
bin\Debug\stmmooier.elf:     file format elf32-avr

Sections:
Idx Name          Size      VMA       LMA       File off  Algn
  0 .data         00000034  00800200  00006cce  00006d82  2**0
                  CONTENTS, ALLOC, LOAD, DATA
  1 .text         00006cce  00000000  00000000  000000b4  2**1
                  CONTENTS, ALLOC, LOAD, READONLY, CODE
  2 .bss          00000022  00800234  00800234  00006db6  2**0
                  ALLOC
  3 .fuse         00000003  00820000  00820000  00006db6  2**0
                  CONTENTS, ALLOC, LOAD, DATA
  4 .comment      00000012  00000000  00000000  00006db9  2**0
                  CONTENTS, READONLY
  5 .note.gnu.avr.deviceinfo 00000040  00000000  00000000  00006dcc  2**2
                  CONTENTS, READONLY, OCTETS
  6 .debug_aranges 000000d8  00000000  00000000  00006e10  2**3
                  CONTENTS, READONLY, DEBUGGING, OCTETS
  7 .debug_info   0000283e  00000000  00000000  00006ee8  2**0
                  CONTENTS, READONLY, DEBUGGING, OCTETS
  8 .debug_abbrev 0000111c  00000000  00000000  00009726  2**0
                  CONTENTS, READONLY, DEBUGGING, OCTETS
  9 .debug_line   00002f09  00000000  00000000  0000a842  2**0
                  CONTENTS, READONLY, DEBUGGING, OCTETS
 10 .debug_frame  0000059c  00000000  00000000  0000d74c  2**2
                  CONTENTS, READONLY, DEBUGGING, OCTETS
 11 .debug_str    00000953  00000000  00000000  0000dce8  2**0
                  CONTENTS, READONLY, DEBUGGING, OCTETS
 12 .debug_line_str 000001b2  00000000  00000000  0000e63b  2**0
                  CONTENTS, READONLY, DEBUGGING, OCTETS

Disassembly of section .text:

00000000 <__vectors>:
       0:	0c 94 82 00 	jmp	0x104	; 0x104 <__ctors_end>
       4:	0c 94 a3 00 	jmp	0x146	; 0x146 <__bad_interrupt>
       8:	0c 94 a3 00 	jmp	0x146	; 0x146 <__bad_interrupt>
       c:	0c 94 a3 00 	jmp	0x146	; 0x146 <__bad_interrupt>
      10:	0c 94 a3 00 	jmp	0x146	; 0x146 <__bad_interrupt>
      14:	0c 94 a3 00 	jmp	0x146	; 0x146 <__bad_interrupt>
      18:	0c 94 a3 00 	jmp	0x146	; 0x146 <__bad_interrupt>
      1c:	0c 94 a3 00 	jmp	0x146	; 0x146 <__bad_interrupt>
      20:	0c 94 a3 00 	jmp	0x146	; 0x146 <__bad_interrupt>
      24:	0c 94 a3 00 	jmp	0x146	; 0x146 <__bad_interrupt>
      28:	0c 94 a3 00 	jmp	0x146	; 0x146 <__bad_interrupt>
      2c:	0c 94 a3 00 	jmp	0x146	; 0x146 <__bad_interrupt>
      30:	0c 94 a3 00 	jmp	0x146	; 0x146 <__bad_interrupt>
      34:	0c 94 a3 00 	jmp	0x146	; 0x146 <__bad_interrupt>
      38:	0c 94 a3 00 	jmp	0x146	; 0x146 <__bad_interrupt>
      3c:	0c 94 a3 00 	jmp	0x146	; 0x146 <__bad_interrupt>
      40:	0c 94 a3 00 	jmp	0x146	; 0x146 <__bad_interrupt>
      44:	0c 94 a3 00 	jmp	0x146	; 0x146 <__bad_interrupt>
      48:	0c 94 a3 00 	jmp	0x146	; 0x146 <__bad_interrupt>
      4c:	0c 94 a3 00 	jmp	0x146	; 0x146 <__bad_interrupt>
      50:	0c 94 a3 00 	jmp	0x146	; 0x146 <__bad_interrupt>
      54:	0c 94 a3 00 	jmp	0x146	; 0x146 <__bad_interrupt>
      58:	0c 94 a3 00 	jmp	0x146	; 0x146 <__bad_interrupt>
      5c:	0c 94 a3 00 	jmp	0x146	; 0x146 <__bad_interrupt>
      60:	0c 94 a3 00 	jmp	0x146	; 0x146 <__bad_interrupt>
      64:	0c 94 a3 00 	jmp	0x146	; 0x146 <__bad_interrupt>
      68:	0c 94 a3 00 	jmp	0x146	; 0x146 <__bad_interrupt>
      6c:	0c 94 a3 00 	jmp	0x146	; 0x146 <__bad_interrupt>
      70:	0c 94 a3 00 	jmp	0x146	; 0x146 <__bad_interrupt>
      74:	0c 94 a3 00 	jmp	0x146	; 0x146 <__bad_interrupt>
      78:	0c 94 a3 00 	jmp	0x146	; 0x146 <__bad_interrupt>
      7c:	0c 94 a3 00 	jmp	0x146	; 0x146 <__bad_interrupt>
      80:	0c 94 a3 00 	jmp	0x146	; 0x146 <__bad_interrupt>
      84:	0c 94 a3 00 	jmp	0x146	; 0x146 <__bad_interrupt>
      88:	0c 94 a3 00 	jmp	0x146	; 0x146 <__bad_interrupt>
      8c:	0c 94 a3 00 	jmp	0x146	; 0x146 <__bad_interrupt>
      90:	0c 94 a3 00 	jmp	0x146	; 0x146 <__bad_interrupt>
      94:	0c 94 a3 00 	jmp	0x146	; 0x146 <__bad_interrupt>
      98:	0c 94 a3 00 	jmp	0x146	; 0x146 <__bad_interrupt>
      9c:	0c 94 a3 00 	jmp	0x146	; 0x146 <__bad_interrupt>
      a0:	0c 94 a3 00 	jmp	0x146	; 0x146 <__bad_interrupt>
      a4:	0c 94 02 1b 	jmp	0x3604	; 0x3604 <__vector_41>
      a8:	0c 94 a3 00 	jmp	0x146	; 0x146 <__bad_interrupt>
      ac:	0c 94 a3 00 	jmp	0x146	; 0x146 <__bad_interrupt>
      b0:	0c 94 a3 00 	jmp	0x146	; 0x146 <__bad_interrupt>
      b4:	0c 94 77 1b 	jmp	0x36ee	; 0x36ee <__vector_45>
      b8:	0c 94 a3 00 	jmp	0x146	; 0x146 <__bad_interrupt>
      bc:	0c 94 a3 00 	jmp	0x146	; 0x146 <__bad_interrupt>
      c0:	0c 94 a3 00 	jmp	0x146	; 0x146 <__bad_interrupt>
      c4:	0c 94 a3 00 	jmp	0x146	; 0x146 <__bad_interrupt>
      c8:	0c 94 a3 00 	jmp	0x146	; 0x146 <__bad_interrupt>
      cc:	0c 94 a3 00 	jmp	0x146	; 0x146 <__bad_interrupt>
      d0:	0c 94 a3 00 	jmp	0x146	; 0x146 <__bad_interrupt>
      d4:	0c 94 a3 00 	jmp	0x146	; 0x146 <__bad_interrupt>
      d8:	0c 94 a3 00 	jmp	0x146	; 0x146 <__bad_interrupt>
      dc:	0c 94 a3 00 	jmp	0x146	; 0x146 <__bad_interrupt>
      e0:	0c 94 a3 00 	jmp	0x146	; 0x146 <__bad_interrupt>

000000e4 <__trampolines_start>:
      e4:	0c 94 59 28 	jmp	0x50b2	; 0x50b2 <.L122>
      e8:	0c 94 d7 1d 	jmp	0x3bae	; 0x3bae <.L125>
      ec:	0c 94 ae 2a 	jmp	0x555c	; 0x555c <.L119>
      f0:	0c 94 bf 25 	jmp	0x4b7e	; 0x4b7e <.L124>
      f4:	0c 94 0c 27 	jmp	0x4e18	; 0x4e18 <.L123>
      f8:	0c 94 ea 1b 	jmp	0x37d4	; 0x37d4 <.L121>
      fc:	0c 94 11 21 	jmp	0x4222	; 0x4222 <.L120>
     100:	0c 94 c5 1f 	jmp	0x3f8a	; 0x3f8a <.L117>

00000104 <__ctors_end>:
     104:	11 24       	eor	r1, r1
     106:	1f be       	out	0x3f, r1	; 63
     108:	cf ef       	ldi	r28, 0xFF	; 255
     10a:	d1 e2       	ldi	r29, 0x21	; 33
     10c:	de bf       	out	0x3e, r29	; 62
     10e:	cd bf       	out	0x3d, r28	; 61
     110:	00 e0       	ldi	r16, 0x00	; 0
     112:	0c bf       	out	0x3c, r16	; 60

00000114 <__do_copy_data>:
     114:	12 e0       	ldi	r17, 0x02	; 2

00000116 <.Loc.1>:
     116:	a0 e0       	ldi	r26, 0x00	; 0

00000118 <.Loc.2>:
     118:	b2 e0       	ldi	r27, 0x02	; 2

0000011a <.Loc.3>:
     11a:	ee ec       	ldi	r30, 0xCE	; 206

0000011c <.Loc.4>:
     11c:	fc e6       	ldi	r31, 0x6C	; 108

0000011e <.Loc.5>:
     11e:	00 e0       	ldi	r16, 0x00	; 0

00000120 <.Loc.6>:
     120:	0b bf       	out	0x3b, r16	; 59

00000122 <.Loc.7>:
     122:	02 c0       	rjmp	.+4      	; 0x128 <.L__do_copy_data_start>

00000124 <.L__do_copy_data_loop>:
     124:	07 90       	elpm	r0, Z+

00000126 <.Loc.9>:
     126:	0d 92       	st	X+, r0

00000128 <.L__do_copy_data_start>:
     128:	a4 33       	cpi	r26, 0x34	; 52

0000012a <.Loc.11>:
     12a:	b1 07       	cpc	r27, r17

0000012c <.Loc.12>:
     12c:	d9 f7       	brne	.-10     	; 0x124 <.L__do_copy_data_loop>

0000012e <__do_clear_bss>:
     12e:	22 e0       	ldi	r18, 0x02	; 2

00000130 <.Loc.1>:
     130:	a4 e3       	ldi	r26, 0x34	; 52

00000132 <.Loc.2>:
     132:	b2 e0       	ldi	r27, 0x02	; 2

00000134 <.Loc.3>:
     134:	01 c0       	rjmp	.+2      	; 0x138 <.Loc.5>

00000136 <.Loc.4>:
     136:	1d 92       	st	X+, r1

00000138 <.Loc.5>:
     138:	a6 35       	cpi	r26, 0x56	; 86

0000013a <.Loc.6>:
     13a:	b2 07       	cpc	r27, r18

0000013c <.Loc.7>:
     13c:	e1 f7       	brne	.-8      	; 0x136 <.Loc.4>

0000013e <L0^A>:
     13e:	0e 94 c4 1b 	call	0x3788	; 0x3788 <main>
     142:	0c 94 5d 36 	jmp	0x6cba	; 0x6cba <_exit>

00000146 <__bad_interrupt>:
     146:	0c 94 00 00 	jmp	0	; 0x0 <__vectors>

0000014a <initLCD>:
Outputs:	none
Description:Configures the Data / command
			ports and initializes the LCD
******************************************************************** */
void initLCD(void)
{
     14a:	cf 93       	push	r28
     14c:	df 93       	push	r29
     14e:	cd b7       	in	r28, 0x3d	; 61
     150:	de b7       	in	r29, 0x3e	; 62
     152:	a2 97       	sbiw	r28, 0x22	; 34
     154:	0f b6       	in	r0, 0x3f	; 63
     156:	f8 94       	cli
     158:	de bf       	out	0x3e, r29	; 62
     15a:	0f be       	out	0x3f, r0	; 63
     15c:	cd bf       	out	0x3d, r28	; 61

0000015e <.Loc.1>:
	/* Configure the data ports and pins */
	configLCDPorts();
     15e:	0e 94 4c 01 	call	0x298	; 0x298 <configLCDPorts>

00000162 <.Loc.2>:

	/* Initialize the LCD controller as determined by instructions */
	lcd_init_4f();
     162:	0e 94 6f 01 	call	0x2de	; 0x2de <lcd_init_4f>
     166:	80 e0       	ldi	r24, 0x00	; 0
     168:	90 e0       	ldi	r25, 0x00	; 0
     16a:	a8 ec       	ldi	r26, 0xC8	; 200
     16c:	b2 e4       	ldi	r27, 0x42	; 66
     16e:	89 83       	std	Y+1, r24	; 0x01
     170:	9a 83       	std	Y+2, r25	; 0x02
     172:	ab 83       	std	Y+3, r26	; 0x03
     174:	bc 83       	std	Y+4, r27	; 0x04

00000176 <.LBB147>:

	__builtin_avr_delay_cycles(__ticks_dc);

#else
	uint16_t __ticks;
	__tmp = ((F_CPU) / 4e3) * __ms;
     176:	20 e0       	ldi	r18, 0x00	; 0
     178:	30 e0       	ldi	r19, 0x00	; 0
     17a:	4a e7       	ldi	r20, 0x7A	; 122
     17c:	55 e4       	ldi	r21, 0x45	; 69
     17e:	69 81       	ldd	r22, Y+1	; 0x01
     180:	7a 81       	ldd	r23, Y+2	; 0x02
     182:	8b 81       	ldd	r24, Y+3	; 0x03
     184:	9c 81       	ldd	r25, Y+4	; 0x04
     186:	0e 94 a0 32 	call	0x6540	; 0x6540 <__mulsf3>
     18a:	6b 8b       	std	Y+19, r22	; 0x13
     18c:	7c 8b       	std	Y+20, r23	; 0x14
     18e:	8d 8b       	std	Y+21, r24	; 0x15
     190:	9e 8b       	std	Y+22, r25	; 0x16
     192:	8b 89       	ldd	r24, Y+19	; 0x13
     194:	9c 89       	ldd	r25, Y+20	; 0x14
     196:	ad 89       	ldd	r26, Y+21	; 0x15
     198:	be 89       	ldd	r27, Y+22	; 0x16
     19a:	8d 83       	std	Y+5, r24	; 0x05
     19c:	9e 83       	std	Y+6, r25	; 0x06
     19e:	af 83       	std	Y+7, r26	; 0x07
     1a0:	b8 87       	std	Y+8, r27	; 0x08

000001a2 <.Loc.4>:
	if (__tmp < 1.0)
     1a2:	20 e0       	ldi	r18, 0x00	; 0
     1a4:	30 e0       	ldi	r19, 0x00	; 0
     1a6:	40 e8       	ldi	r20, 0x80	; 128
     1a8:	5f e3       	ldi	r21, 0x3F	; 63
     1aa:	6d 81       	ldd	r22, Y+5	; 0x05
     1ac:	7e 81       	ldd	r23, Y+6	; 0x06
     1ae:	8f 81       	ldd	r24, Y+7	; 0x07
     1b0:	98 85       	ldd	r25, Y+8	; 0x08
     1b2:	0e 94 3c 31 	call	0x6278	; 0x6278 <__cmpsf2>
     1b6:	88 23       	and	r24, r24
     1b8:	2c f4       	brge	.+10     	; 0x1c4 <.L12>

000001ba <.Loc.5>:
		__ticks = 1;
     1ba:	81 e0       	ldi	r24, 0x01	; 1
     1bc:	90 e0       	ldi	r25, 0x00	; 0
     1be:	9a 87       	std	Y+10, r25	; 0x0a
     1c0:	89 87       	std	Y+9, r24	; 0x09
     1c2:	55 c0       	rjmp	.+170    	; 0x26e <.L4>

000001c4 <.L12>:
	else if (__tmp > 65535)
     1c4:	20 e0       	ldi	r18, 0x00	; 0
     1c6:	3f ef       	ldi	r19, 0xFF	; 255
     1c8:	4f e7       	ldi	r20, 0x7F	; 127
     1ca:	57 e4       	ldi	r21, 0x47	; 71
     1cc:	6d 81       	ldd	r22, Y+5	; 0x05
     1ce:	7e 81       	ldd	r23, Y+6	; 0x06
     1d0:	8f 81       	ldd	r24, Y+7	; 0x07
     1d2:	98 85       	ldd	r25, Y+8	; 0x08
     1d4:	0e 94 9b 32 	call	0x6536	; 0x6536 <__gesf2>
     1d8:	88 23       	and	r24, r24
     1da:	d9 f1       	breq	.+118    	; 0x252 <.L13>
     1dc:	d4 f1       	brlt	.+116    	; 0x252 <.L13>

000001de <.Loc.7>:
	{
		//	__ticks = requested delay in 1/10 ms
		__ticks = (uint16_t) (__ms * 10.0);
     1de:	20 e0       	ldi	r18, 0x00	; 0
     1e0:	30 e0       	ldi	r19, 0x00	; 0
     1e2:	40 e2       	ldi	r20, 0x20	; 32
     1e4:	51 e4       	ldi	r21, 0x41	; 65
     1e6:	69 81       	ldd	r22, Y+1	; 0x01
     1e8:	7a 81       	ldd	r23, Y+2	; 0x02
     1ea:	8b 81       	ldd	r24, Y+3	; 0x03
     1ec:	9c 81       	ldd	r25, Y+4	; 0x04
     1ee:	0e 94 a0 32 	call	0x6540	; 0x6540 <__mulsf3>
     1f2:	6f 8b       	std	Y+23, r22	; 0x17
     1f4:	78 8f       	std	Y+24, r23	; 0x18
     1f6:	89 8f       	std	Y+25, r24	; 0x19
     1f8:	9a 8f       	std	Y+26, r25	; 0x1a
     1fa:	8f 89       	ldd	r24, Y+23	; 0x17
     1fc:	98 8d       	ldd	r25, Y+24	; 0x18
     1fe:	a9 8d       	ldd	r26, Y+25	; 0x19
     200:	ba 8d       	ldd	r27, Y+26	; 0x1a
     202:	8f 87       	std	Y+15, r24	; 0x0f
     204:	98 8b       	std	Y+16, r25	; 0x10
     206:	a9 8b       	std	Y+17, r26	; 0x11
     208:	ba 8b       	std	Y+18, r27	; 0x12

0000020a <.Loc.8>:
     20a:	6f 85       	ldd	r22, Y+15	; 0x0f
     20c:	78 89       	ldd	r23, Y+16	; 0x10
     20e:	89 89       	ldd	r24, Y+17	; 0x11
     210:	9a 89       	ldd	r25, Y+18	; 0x12
     212:	0e 94 ba 31 	call	0x6374	; 0x6374 <__fixunssfsi>
     216:	6b 8f       	std	Y+27, r22	; 0x1b
     218:	7c 8f       	std	Y+28, r23	; 0x1c
     21a:	8d 8f       	std	Y+29, r24	; 0x1d
     21c:	9e 8f       	std	Y+30, r25	; 0x1e
     21e:	ab 8d       	ldd	r26, Y+27	; 0x1b
     220:	bc 8d       	ldd	r27, Y+28	; 0x1c
     222:	ba 87       	std	Y+10, r27	; 0x0a
     224:	a9 87       	std	Y+9, r26	; 0x09

00000226 <.Loc.9>:
		while(__ticks)
     226:	10 c0       	rjmp	.+32     	; 0x248 <.L7>

00000228 <.L8>:
     228:	80 e9       	ldi	r24, 0x90	; 144
     22a:	91 e0       	ldi	r25, 0x01	; 1
     22c:	9c 87       	std	Y+12, r25	; 0x0c
     22e:	8b 87       	std	Y+11, r24	; 0x0b

00000230 <.LBB149>:
		"sbc %B0,__zero_reg__"    "\n\t"
		"brne 1b"
		: "+d" (__count)
	);
#else
	__asm__ volatile (
     230:	8b 85       	ldd	r24, Y+11	; 0x0b
     232:	9c 85       	ldd	r25, Y+12	; 0x0c

00000234 <.L1^B1>:
     234:	01 97       	sbiw	r24, 0x01	; 1
     236:	f1 f7       	brne	.-4      	; 0x234 <.L1^B1>
     238:	9c 87       	std	Y+12, r25	; 0x0c
     23a:	8b 87       	std	Y+11, r24	; 0x0b

0000023c <.Loc.11>:
	...

0000023e <.LBE149>:
		{
			// wait 1/10 ms
			_delay_loop_2(((F_CPU) / 4e3) / 10);
			__ticks --;
     23e:	89 85       	ldd	r24, Y+9	; 0x09
     240:	9a 85       	ldd	r25, Y+10	; 0x0a
     242:	01 97       	sbiw	r24, 0x01	; 1
     244:	9a 87       	std	Y+10, r25	; 0x0a
     246:	89 87       	std	Y+9, r24	; 0x09

00000248 <.L7>:
		while(__ticks)
     248:	89 85       	ldd	r24, Y+9	; 0x09
     24a:	9a 85       	ldd	r25, Y+10	; 0x0a
     24c:	00 97       	sbiw	r24, 0x00	; 0
     24e:	61 f7       	brne	.-40     	; 0x228 <.L8>

00000250 <.Loc.14>:
		}
		return;
     250:	19 c0       	rjmp	.+50     	; 0x284 <.L9>

00000252 <.L13>:
	}
	else
		__ticks = (uint16_t)__tmp;
     252:	6d 81       	ldd	r22, Y+5	; 0x05
     254:	7e 81       	ldd	r23, Y+6	; 0x06
     256:	8f 81       	ldd	r24, Y+7	; 0x07
     258:	98 85       	ldd	r25, Y+8	; 0x08
     25a:	0e 94 ba 31 	call	0x6374	; 0x6374 <__fixunssfsi>
     25e:	6f 8f       	std	Y+31, r22	; 0x1f
     260:	78 a3       	std	Y+32, r23	; 0x20
     262:	89 a3       	std	Y+33, r24	; 0x21
     264:	9a a3       	std	Y+34, r25	; 0x22
     266:	8f 8d       	ldd	r24, Y+31	; 0x1f
     268:	98 a1       	ldd	r25, Y+32	; 0x20
     26a:	9a 87       	std	Y+10, r25	; 0x0a
     26c:	89 87       	std	Y+9, r24	; 0x09

0000026e <.L4>:
     26e:	89 85       	ldd	r24, Y+9	; 0x09
     270:	9a 85       	ldd	r25, Y+10	; 0x0a
     272:	9e 87       	std	Y+14, r25	; 0x0e
     274:	8d 87       	std	Y+13, r24	; 0x0d

00000276 <.LBB151>:
     276:	8d 85       	ldd	r24, Y+13	; 0x0d
     278:	9e 85       	ldd	r25, Y+14	; 0x0e

0000027a <.L1^B2>:
     27a:	01 97       	sbiw	r24, 0x01	; 1
     27c:	f1 f7       	brne	.-4      	; 0x27a <.L1^B2>
     27e:	9e 87       	std	Y+14, r25	; 0x0e
     280:	8d 87       	std	Y+13, r24	; 0x0d

00000282 <.Loc.17>:
	...

00000284 <.L9>:

	_delay_ms(100);
}
     284:	00 00       	nop
     286:	a2 96       	adiw	r28, 0x22	; 34
     288:	0f b6       	in	r0, 0x3f	; 63
     28a:	f8 94       	cli
     28c:	de bf       	out	0x3e, r29	; 62
     28e:	0f be       	out	0x3f, r0	; 63
     290:	cd bf       	out	0x3d, r28	; 61
     292:	df 91       	pop	r29
     294:	cf 91       	pop	r28
     296:	08 95       	ret

00000298 <configLCDPorts>:
Inputs:		none
Outputs:	none
Description:maps the data and control pins to the uC i/o ports
******************************************************************** */
void configLCDPorts(void)
{
     298:	cf 93       	push	r28
     29a:	df 93       	push	r29
     29c:	cd b7       	in	r28, 0x3d	; 61
     29e:	de b7       	in	r29, 0x3e	; 62

000002a0 <.Loc.20>:
	/* configure the microprocessor pins for the data lines */
	lcd_Data_DDR |= (1<<lcd_D7_bit) | (1<<lcd_D6_bit) | (1<<lcd_D5_bit) | (1<<lcd_D4_bit);
     2a0:	87 e2       	ldi	r24, 0x27	; 39
     2a2:	90 e0       	ldi	r25, 0x00	; 0
     2a4:	fc 01       	movw	r30, r24
     2a6:	20 81       	ld	r18, Z
     2a8:	87 e2       	ldi	r24, 0x27	; 39
     2aa:	90 e0       	ldi	r25, 0x00	; 0

000002ac <.Loc.21>:
     2ac:	20 6f       	ori	r18, 0xF0	; 240
     2ae:	fc 01       	movw	r30, r24
     2b0:	20 83       	st	Z, r18

000002b2 <.Loc.22>:

	/* configure the microprocessor pins for the control lines */
	lcd_Ctlr_DDR |= (1<<lcd_RW_bit) | (1<<lcd_RS_bit) | (1<<lcd_E_bit);
     2b2:	87 e2       	ldi	r24, 0x27	; 39
     2b4:	90 e0       	ldi	r25, 0x00	; 0
     2b6:	fc 01       	movw	r30, r24
     2b8:	20 81       	ld	r18, Z
     2ba:	87 e2       	ldi	r24, 0x27	; 39
     2bc:	90 e0       	ldi	r25, 0x00	; 0

000002be <.Loc.23>:
     2be:	2e 60       	ori	r18, 0x0E	; 14
     2c0:	fc 01       	movw	r30, r24
     2c2:	20 83       	st	Z, r18

000002c4 <.Loc.24>:

	/* Turn on LCD */
	DDRB |= (1<<lcd_ONOFF_bit);
     2c4:	84 e2       	ldi	r24, 0x24	; 36
     2c6:	90 e0       	ldi	r25, 0x00	; 0
     2c8:	fc 01       	movw	r30, r24
     2ca:	20 81       	ld	r18, Z
     2cc:	84 e2       	ldi	r24, 0x24	; 36
     2ce:	90 e0       	ldi	r25, 0x00	; 0

000002d0 <.Loc.25>:
     2d0:	21 60       	ori	r18, 0x01	; 1
     2d2:	fc 01       	movw	r30, r24
     2d4:	20 83       	st	Z, r18

000002d6 <.Loc.26>:
}
     2d6:	00 00       	nop
     2d8:	df 91       	pop	r29
     2da:	cf 91       	pop	r28
     2dc:	08 95       	ret

000002de <lcd_init_4f>:
Outputs:	none
Description:initializes the LCD for 4-bit data interface; uses the
			busy flag instead of time delay when possible
******************************************************************** */
void lcd_init_4f(void)
{
     2de:	0f 93       	push	r16
     2e0:	1f 93       	push	r17
     2e2:	cf 93       	push	r28
     2e4:	df 93       	push	r29
     2e6:	cd b7       	in	r28, 0x3d	; 61
     2e8:	de b7       	in	r29, 0x3e	; 62
     2ea:	ca 5f       	subi	r28, 0xFA	; 250
     2ec:	d1 09       	sbc	r29, r1
     2ee:	0f b6       	in	r0, 0x3f	; 63
     2f0:	f8 94       	cli
     2f2:	de bf       	out	0x3e, r29	; 62
     2f4:	0f be       	out	0x3f, r0	; 63
     2f6:	cd bf       	out	0x3d, r28	; 61
     2f8:	9e 01       	movw	r18, r28
     2fa:	2f 59       	subi	r18, 0x9F	; 159
     2fc:	3f 4f       	sbci	r19, 0xFF	; 255
     2fe:	80 e0       	ldi	r24, 0x00	; 0
     300:	90 e0       	ldi	r25, 0x00	; 0
     302:	a8 e4       	ldi	r26, 0x48	; 72
     304:	b2 e4       	ldi	r27, 0x42	; 66
     306:	f9 01       	movw	r30, r18
     308:	80 83       	st	Z, r24
     30a:	91 83       	std	Z+1, r25	; 0x01
     30c:	a2 83       	std	Z+2, r26	; 0x02
     30e:	b3 83       	std	Z+3, r27	; 0x03

00000310 <.LBB153>:
	__tmp = ((F_CPU) / 4e3) * __ms;
     310:	8e 01       	movw	r16, r28
     312:	0b 59       	subi	r16, 0x9B	; 155
     314:	1f 4f       	sbci	r17, 0xFF	; 255
     316:	ce 01       	movw	r24, r28
     318:	8f 59       	subi	r24, 0x9F	; 159
     31a:	9f 4f       	sbci	r25, 0xFF	; 255
     31c:	20 e0       	ldi	r18, 0x00	; 0
     31e:	30 e0       	ldi	r19, 0x00	; 0
     320:	4a e7       	ldi	r20, 0x7A	; 122
     322:	55 e4       	ldi	r21, 0x45	; 69
     324:	dc 01       	movw	r26, r24
     326:	6d 91       	ld	r22, X+
     328:	7d 91       	ld	r23, X+
     32a:	8d 91       	ld	r24, X+
     32c:	9c 91       	ld	r25, X
     32e:	0e 94 a0 32 	call	0x6540	; 0x6540 <__mulsf3>
     332:	c1 58       	subi	r28, 0x81	; 129
     334:	df 4f       	sbci	r29, 0xFF	; 255
     336:	68 83       	st	Y, r22
     338:	79 83       	std	Y+1, r23	; 0x01
     33a:	8a 83       	std	Y+2, r24	; 0x02
     33c:	9b 83       	std	Y+3, r25	; 0x03
     33e:	cf 57       	subi	r28, 0x7F	; 127
     340:	d0 40       	sbci	r29, 0x00	; 0
     342:	c1 58       	subi	r28, 0x81	; 129
     344:	df 4f       	sbci	r29, 0xFF	; 255
     346:	88 81       	ld	r24, Y
     348:	99 81       	ldd	r25, Y+1	; 0x01
     34a:	aa 81       	ldd	r26, Y+2	; 0x02
     34c:	bb 81       	ldd	r27, Y+3	; 0x03
     34e:	cf 57       	subi	r28, 0x7F	; 127
     350:	d0 40       	sbci	r29, 0x00	; 0
     352:	f8 01       	movw	r30, r16
     354:	80 83       	st	Z, r24
     356:	91 83       	std	Z+1, r25	; 0x01
     358:	a2 83       	std	Z+2, r26	; 0x02
     35a:	b3 83       	std	Z+3, r27	; 0x03

0000035c <.Loc.29>:
	if (__tmp < 1.0)
     35c:	ce 01       	movw	r24, r28
     35e:	8b 59       	subi	r24, 0x9B	; 155
     360:	9f 4f       	sbci	r25, 0xFF	; 255
     362:	20 e0       	ldi	r18, 0x00	; 0
     364:	30 e0       	ldi	r19, 0x00	; 0
     366:	40 e8       	ldi	r20, 0x80	; 128
     368:	5f e3       	ldi	r21, 0x3F	; 63
     36a:	dc 01       	movw	r26, r24
     36c:	6d 91       	ld	r22, X+
     36e:	7d 91       	ld	r23, X+
     370:	8d 91       	ld	r24, X+
     372:	9c 91       	ld	r25, X
     374:	0e 94 3c 31 	call	0x6278	; 0x6278 <__cmpsf2>
     378:	88 23       	and	r24, r24
     37a:	4c f4       	brge	.+18     	; 0x38e <.L89>

0000037c <.Loc.30>:
		__ticks = 1;
     37c:	ce 01       	movw	r24, r28
     37e:	87 59       	subi	r24, 0x97	; 151
     380:	9f 4f       	sbci	r25, 0xFF	; 255
     382:	21 e0       	ldi	r18, 0x01	; 1
     384:	30 e0       	ldi	r19, 0x00	; 0
     386:	fc 01       	movw	r30, r24
     388:	31 83       	std	Z+1, r19	; 0x01
     38a:	20 83       	st	Z, r18
     38c:	a1 c0       	rjmp	.+322    	; 0x4d0 <.L18>

0000038e <.L89>:
	else if (__tmp > 65535)
     38e:	ce 01       	movw	r24, r28
     390:	8b 59       	subi	r24, 0x9B	; 155
     392:	9f 4f       	sbci	r25, 0xFF	; 255
     394:	20 e0       	ldi	r18, 0x00	; 0
     396:	3f ef       	ldi	r19, 0xFF	; 255
     398:	4f e7       	ldi	r20, 0x7F	; 127
     39a:	57 e4       	ldi	r21, 0x47	; 71
     39c:	dc 01       	movw	r26, r24
     39e:	6d 91       	ld	r22, X+
     3a0:	7d 91       	ld	r23, X+
     3a2:	8d 91       	ld	r24, X+
     3a4:	9c 91       	ld	r25, X
     3a6:	0e 94 9b 32 	call	0x6536	; 0x6536 <__gesf2>
     3aa:	88 23       	and	r24, r24
     3ac:	09 f0       	breq	.+2      	; 0x3b0 <L0^A>

000003ae <L0^A>:
     3ae:	0c f4       	brge	.+2      	; 0x3b2 <.Loc.32>

000003b0 <L0^A>:
     3b0:	71 c0       	rjmp	.+226    	; 0x494 <.L90>

000003b2 <.Loc.32>:
		__ticks = (uint16_t) (__ms * 10.0);
     3b2:	ce 01       	movw	r24, r28
     3b4:	8f 59       	subi	r24, 0x9F	; 159
     3b6:	9f 4f       	sbci	r25, 0xFF	; 255
     3b8:	20 e0       	ldi	r18, 0x00	; 0
     3ba:	30 e0       	ldi	r19, 0x00	; 0
     3bc:	40 e2       	ldi	r20, 0x20	; 32
     3be:	51 e4       	ldi	r21, 0x41	; 65
     3c0:	fc 01       	movw	r30, r24
     3c2:	60 81       	ld	r22, Z
     3c4:	71 81       	ldd	r23, Z+1	; 0x01
     3c6:	82 81       	ldd	r24, Z+2	; 0x02
     3c8:	93 81       	ldd	r25, Z+3	; 0x03
     3ca:	0e 94 a0 32 	call	0x6540	; 0x6540 <__mulsf3>
     3ce:	cd 57       	subi	r28, 0x7D	; 125
     3d0:	df 4f       	sbci	r29, 0xFF	; 255
     3d2:	68 83       	st	Y, r22
     3d4:	79 83       	std	Y+1, r23	; 0x01
     3d6:	8a 83       	std	Y+2, r24	; 0x02
     3d8:	9b 83       	std	Y+3, r25	; 0x03
     3da:	c3 58       	subi	r28, 0x83	; 131
     3dc:	d0 40       	sbci	r29, 0x00	; 0
     3de:	cd 57       	subi	r28, 0x7D	; 125
     3e0:	df 4f       	sbci	r29, 0xFF	; 255
     3e2:	88 81       	ld	r24, Y
     3e4:	99 81       	ldd	r25, Y+1	; 0x01
     3e6:	aa 81       	ldd	r26, Y+2	; 0x02
     3e8:	bb 81       	ldd	r27, Y+3	; 0x03
     3ea:	c3 58       	subi	r28, 0x83	; 131
     3ec:	d0 40       	sbci	r29, 0x00	; 0
     3ee:	ef 96       	adiw	r28, 0x3f	; 63
     3f0:	8c af       	std	Y+60, r24	; 0x3c
     3f2:	9d af       	std	Y+61, r25	; 0x3d
     3f4:	ae af       	std	Y+62, r26	; 0x3e
     3f6:	bf af       	std	Y+63, r27	; 0x3f
     3f8:	ef 97       	sbiw	r28, 0x3f	; 63

000003fa <.Loc.33>:
     3fa:	8e 01       	movw	r16, r28
     3fc:	07 59       	subi	r16, 0x97	; 151
     3fe:	1f 4f       	sbci	r17, 0xFF	; 255
     400:	ef 96       	adiw	r28, 0x3f	; 63
     402:	6c ad       	ldd	r22, Y+60	; 0x3c
     404:	7d ad       	ldd	r23, Y+61	; 0x3d
     406:	8e ad       	ldd	r24, Y+62	; 0x3e
     408:	9f ad       	ldd	r25, Y+63	; 0x3f
     40a:	ef 97       	sbiw	r28, 0x3f	; 63
     40c:	0e 94 ba 31 	call	0x6374	; 0x6374 <__fixunssfsi>
     410:	c9 57       	subi	r28, 0x79	; 121
     412:	df 4f       	sbci	r29, 0xFF	; 255
     414:	68 83       	st	Y, r22
     416:	79 83       	std	Y+1, r23	; 0x01
     418:	8a 83       	std	Y+2, r24	; 0x02
     41a:	9b 83       	std	Y+3, r25	; 0x03
     41c:	c7 58       	subi	r28, 0x87	; 135
     41e:	d0 40       	sbci	r29, 0x00	; 0
     420:	c9 57       	subi	r28, 0x79	; 121
     422:	df 4f       	sbci	r29, 0xFF	; 255
     424:	e8 81       	ld	r30, Y
     426:	f9 81       	ldd	r31, Y+1	; 0x01
     428:	c7 58       	subi	r28, 0x87	; 135
     42a:	d0 40       	sbci	r29, 0x00	; 0
     42c:	d8 01       	movw	r26, r16
     42e:	11 96       	adiw	r26, 0x01	; 1
     430:	fc 93       	st	X, r31
     432:	ee 93       	st	-X, r30

00000434 <.Loc.34>:
		while(__ticks)
     434:	26 c0       	rjmp	.+76     	; 0x482 <.L21>

00000436 <.L22>:
     436:	ce 01       	movw	r24, r28
     438:	85 59       	subi	r24, 0x95	; 149
     43a:	9f 4f       	sbci	r25, 0xFF	; 255
     43c:	20 e9       	ldi	r18, 0x90	; 144
     43e:	31 e0       	ldi	r19, 0x01	; 1
     440:	dc 01       	movw	r26, r24
     442:	2d 93       	st	X+, r18
     444:	3c 93       	st	X, r19

00000446 <.LBB155>:
     446:	ce 01       	movw	r24, r28
     448:	85 59       	subi	r24, 0x95	; 149
     44a:	9f 4f       	sbci	r25, 0xFF	; 255
     44c:	fc 01       	movw	r30, r24
     44e:	80 81       	ld	r24, Z
     450:	91 81       	ldd	r25, Z+1	; 0x01

00000452 <.L1^B3>:
     452:	01 97       	sbiw	r24, 0x01	; 1
     454:	f1 f7       	brne	.-4      	; 0x452 <.L1^B3>
     456:	9e 01       	movw	r18, r28
     458:	25 59       	subi	r18, 0x95	; 149
     45a:	3f 4f       	sbci	r19, 0xFF	; 255
     45c:	d9 01       	movw	r26, r18
     45e:	8d 93       	st	X+, r24
     460:	9c 93       	st	X, r25

00000462 <.Loc.36>:
	...

00000464 <.LBE155>:
			__ticks --;
     464:	ce 01       	movw	r24, r28
     466:	87 59       	subi	r24, 0x97	; 151
     468:	9f 4f       	sbci	r25, 0xFF	; 255
     46a:	9e 01       	movw	r18, r28
     46c:	27 59       	subi	r18, 0x97	; 151
     46e:	3f 4f       	sbci	r19, 0xFF	; 255
     470:	f9 01       	movw	r30, r18
     472:	20 81       	ld	r18, Z
     474:	31 81       	ldd	r19, Z+1	; 0x01
     476:	21 50       	subi	r18, 0x01	; 1
     478:	31 09       	sbc	r19, r1
     47a:	dc 01       	movw	r26, r24
     47c:	11 96       	adiw	r26, 0x01	; 1
     47e:	3c 93       	st	X, r19
     480:	2e 93       	st	-X, r18

00000482 <.L21>:
		while(__ticks)
     482:	ce 01       	movw	r24, r28
     484:	87 59       	subi	r24, 0x97	; 151
     486:	9f 4f       	sbci	r25, 0xFF	; 255
     488:	fc 01       	movw	r30, r24
     48a:	80 81       	ld	r24, Z
     48c:	91 81       	ldd	r25, Z+1	; 0x01
     48e:	00 97       	sbiw	r24, 0x00	; 0
     490:	91 f6       	brne	.-92     	; 0x436 <.L22>

00000492 <.Loc.39>:
		return;
     492:	39 c0       	rjmp	.+114    	; 0x506 <.L23>

00000494 <.L90>:
		__ticks = (uint16_t)__tmp;
     494:	8e 01       	movw	r16, r28
     496:	07 59       	subi	r16, 0x97	; 151
     498:	1f 4f       	sbci	r17, 0xFF	; 255
     49a:	ce 01       	movw	r24, r28
     49c:	8b 59       	subi	r24, 0x9B	; 155
     49e:	9f 4f       	sbci	r25, 0xFF	; 255
     4a0:	dc 01       	movw	r26, r24
     4a2:	6d 91       	ld	r22, X+
     4a4:	7d 91       	ld	r23, X+
     4a6:	8d 91       	ld	r24, X+
     4a8:	9c 91       	ld	r25, X
     4aa:	0e 94 ba 31 	call	0x6374	; 0x6374 <__fixunssfsi>
     4ae:	c5 57       	subi	r28, 0x75	; 117
     4b0:	df 4f       	sbci	r29, 0xFF	; 255
     4b2:	68 83       	st	Y, r22
     4b4:	79 83       	std	Y+1, r23	; 0x01
     4b6:	8a 83       	std	Y+2, r24	; 0x02
     4b8:	9b 83       	std	Y+3, r25	; 0x03
     4ba:	cb 58       	subi	r28, 0x8B	; 139
     4bc:	d0 40       	sbci	r29, 0x00	; 0
     4be:	c5 57       	subi	r28, 0x75	; 117
     4c0:	df 4f       	sbci	r29, 0xFF	; 255
     4c2:	88 81       	ld	r24, Y
     4c4:	99 81       	ldd	r25, Y+1	; 0x01
     4c6:	cb 58       	subi	r28, 0x8B	; 139
     4c8:	d0 40       	sbci	r29, 0x00	; 0
     4ca:	f8 01       	movw	r30, r16
     4cc:	91 83       	std	Z+1, r25	; 0x01
     4ce:	80 83       	st	Z, r24

000004d0 <.L18>:
     4d0:	ce 01       	movw	r24, r28
     4d2:	83 59       	subi	r24, 0x93	; 147
     4d4:	9f 4f       	sbci	r25, 0xFF	; 255
     4d6:	9e 01       	movw	r18, r28
     4d8:	27 59       	subi	r18, 0x97	; 151
     4da:	3f 4f       	sbci	r19, 0xFF	; 255
     4dc:	d9 01       	movw	r26, r18
     4de:	2d 91       	ld	r18, X+
     4e0:	3c 91       	ld	r19, X
     4e2:	fc 01       	movw	r30, r24
     4e4:	31 83       	std	Z+1, r19	; 0x01
     4e6:	20 83       	st	Z, r18

000004e8 <.LBB157>:
     4e8:	ce 01       	movw	r24, r28
     4ea:	83 59       	subi	r24, 0x93	; 147
     4ec:	9f 4f       	sbci	r25, 0xFF	; 255
     4ee:	dc 01       	movw	r26, r24
     4f0:	8d 91       	ld	r24, X+
     4f2:	9c 91       	ld	r25, X

000004f4 <.L1^B4>:
     4f4:	01 97       	sbiw	r24, 0x01	; 1
     4f6:	f1 f7       	brne	.-4      	; 0x4f4 <.L1^B4>
     4f8:	9e 01       	movw	r18, r28
     4fa:	23 59       	subi	r18, 0x93	; 147
     4fc:	3f 4f       	sbci	r19, 0xFF	; 255
     4fe:	f9 01       	movw	r30, r18
     500:	91 83       	std	Z+1, r25	; 0x01
     502:	80 83       	st	Z, r24

00000504 <.Loc.42>:
	...

00000506 <.L23>:
	 this instruction can be sent on just the four available data lines and it will be interpreted
	 properly by the LCD controller.  The 'lcd_write_4' subroutine will accomplish this if the
	 control lines have previously been configured properly. */

	/* Set up the RS, E, and RW lines for the 'lcd_write_4' function. */
	set_RS_LOW_Instr;	// Select the Instruction Register (RS low)
     506:	88 e2       	ldi	r24, 0x28	; 40
     508:	90 e0       	ldi	r25, 0x00	; 0
     50a:	dc 01       	movw	r26, r24
     50c:	2c 91       	ld	r18, X
     50e:	88 e2       	ldi	r24, 0x28	; 40
     510:	90 e0       	ldi	r25, 0x00	; 0
     512:	2d 7f       	andi	r18, 0xFD	; 253
     514:	fc 01       	movw	r30, r24
     516:	20 83       	st	Z, r18

00000518 <.Loc.44>:
	disable_E_Pin;		// Make sure E is initially low
     518:	88 e2       	ldi	r24, 0x28	; 40
     51a:	90 e0       	ldi	r25, 0x00	; 0
     51c:	dc 01       	movw	r26, r24
     51e:	2c 91       	ld	r18, X
     520:	88 e2       	ldi	r24, 0x28	; 40
     522:	90 e0       	ldi	r25, 0x00	; 0
     524:	27 7f       	andi	r18, 0xF7	; 247
     526:	fc 01       	movw	r30, r24
     528:	20 83       	st	Z, r18

0000052a <.Loc.45>:
	set_RW_LOW_write;	// write to LCD module (RW low)
     52a:	88 e2       	ldi	r24, 0x28	; 40
     52c:	90 e0       	ldi	r25, 0x00	; 0
     52e:	dc 01       	movw	r26, r24
     530:	2c 91       	ld	r18, X
     532:	88 e2       	ldi	r24, 0x28	; 40
     534:	90 e0       	ldi	r25, 0x00	; 0
     536:	2b 7f       	andi	r18, 0xFB	; 251
     538:	fc 01       	movw	r30, r24
     53a:	20 83       	st	Z, r18

0000053c <.Loc.46>:

	/* Reset the LCD controller */
	lcd_write_4(lcd_FunctionReset);		// First part of reset sequence
     53c:	80 e3       	ldi	r24, 0x30	; 48
     53e:	0e 94 32 09 	call	0x1264	; 0x1264 <lcd_write_4>
     542:	9e 01       	movw	r18, r28
     544:	2f 5b       	subi	r18, 0xBF	; 191
     546:	3f 4f       	sbci	r19, 0xFF	; 255
     548:	80 e0       	ldi	r24, 0x00	; 0
     54a:	90 e0       	ldi	r25, 0x00	; 0
     54c:	a0 e2       	ldi	r26, 0x20	; 32
     54e:	b1 e4       	ldi	r27, 0x41	; 65
     550:	f9 01       	movw	r30, r18
     552:	80 83       	st	Z, r24
     554:	91 83       	std	Z+1, r25	; 0x01
     556:	a2 83       	std	Z+2, r26	; 0x02
     558:	b3 83       	std	Z+3, r27	; 0x03

0000055a <.LBB159>:
	__builtin_avr_delay_cycles(__ticks_dc);

#else
	uint8_t __ticks;
	double __tmp2 ;
	__tmp = ((F_CPU) / 3e6) * __us;
     55a:	8e 01       	movw	r16, r28
     55c:	0b 5b       	subi	r16, 0xBB	; 187
     55e:	1f 4f       	sbci	r17, 0xFF	; 255
     560:	ce 01       	movw	r24, r28
     562:	8f 5b       	subi	r24, 0xBF	; 191
     564:	9f 4f       	sbci	r25, 0xFF	; 255
     566:	2b ea       	ldi	r18, 0xAB	; 171
     568:	3a ea       	ldi	r19, 0xAA	; 170
     56a:	4a ea       	ldi	r20, 0xAA	; 170
     56c:	50 e4       	ldi	r21, 0x40	; 64
     56e:	dc 01       	movw	r26, r24
     570:	6d 91       	ld	r22, X+
     572:	7d 91       	ld	r23, X+
     574:	8d 91       	ld	r24, X+
     576:	9c 91       	ld	r25, X
     578:	0e 94 a0 32 	call	0x6540	; 0x6540 <__mulsf3>
     57c:	c1 57       	subi	r28, 0x71	; 113
     57e:	df 4f       	sbci	r29, 0xFF	; 255
     580:	68 83       	st	Y, r22
     582:	79 83       	std	Y+1, r23	; 0x01
     584:	8a 83       	std	Y+2, r24	; 0x02
     586:	9b 83       	std	Y+3, r25	; 0x03
     588:	cf 58       	subi	r28, 0x8F	; 143
     58a:	d0 40       	sbci	r29, 0x00	; 0
     58c:	c1 57       	subi	r28, 0x71	; 113
     58e:	df 4f       	sbci	r29, 0xFF	; 255
     590:	88 81       	ld	r24, Y
     592:	99 81       	ldd	r25, Y+1	; 0x01
     594:	aa 81       	ldd	r26, Y+2	; 0x02
     596:	bb 81       	ldd	r27, Y+3	; 0x03
     598:	cf 58       	subi	r28, 0x8F	; 143
     59a:	d0 40       	sbci	r29, 0x00	; 0
     59c:	f8 01       	movw	r30, r16
     59e:	80 83       	st	Z, r24
     5a0:	91 83       	std	Z+1, r25	; 0x01
     5a2:	a2 83       	std	Z+2, r26	; 0x02
     5a4:	b3 83       	std	Z+3, r27	; 0x03

000005a6 <.Loc.48>:
	__tmp2 = ((F_CPU) / 4e6) * __us;
     5a6:	8e 01       	movw	r16, r28
     5a8:	07 5b       	subi	r16, 0xB7	; 183
     5aa:	1f 4f       	sbci	r17, 0xFF	; 255
     5ac:	ce 01       	movw	r24, r28
     5ae:	8f 5b       	subi	r24, 0xBF	; 191
     5b0:	9f 4f       	sbci	r25, 0xFF	; 255
     5b2:	20 e0       	ldi	r18, 0x00	; 0
     5b4:	30 e0       	ldi	r19, 0x00	; 0
     5b6:	40 e8       	ldi	r20, 0x80	; 128
     5b8:	50 e4       	ldi	r21, 0x40	; 64
     5ba:	dc 01       	movw	r26, r24
     5bc:	6d 91       	ld	r22, X+
     5be:	7d 91       	ld	r23, X+
     5c0:	8d 91       	ld	r24, X+
     5c2:	9c 91       	ld	r25, X
     5c4:	0e 94 a0 32 	call	0x6540	; 0x6540 <__mulsf3>
     5c8:	cd 56       	subi	r28, 0x6D	; 109
     5ca:	df 4f       	sbci	r29, 0xFF	; 255
     5cc:	68 83       	st	Y, r22
     5ce:	79 83       	std	Y+1, r23	; 0x01
     5d0:	8a 83       	std	Y+2, r24	; 0x02
     5d2:	9b 83       	std	Y+3, r25	; 0x03
     5d4:	c3 59       	subi	r28, 0x93	; 147
     5d6:	d0 40       	sbci	r29, 0x00	; 0
     5d8:	cd 56       	subi	r28, 0x6D	; 109
     5da:	df 4f       	sbci	r29, 0xFF	; 255
     5dc:	88 81       	ld	r24, Y
     5de:	99 81       	ldd	r25, Y+1	; 0x01
     5e0:	aa 81       	ldd	r26, Y+2	; 0x02
     5e2:	bb 81       	ldd	r27, Y+3	; 0x03
     5e4:	c3 59       	subi	r28, 0x93	; 147
     5e6:	d0 40       	sbci	r29, 0x00	; 0
     5e8:	f8 01       	movw	r30, r16
     5ea:	80 83       	st	Z, r24
     5ec:	91 83       	std	Z+1, r25	; 0x01
     5ee:	a2 83       	std	Z+2, r26	; 0x02
     5f0:	b3 83       	std	Z+3, r27	; 0x03

000005f2 <.Loc.49>:
	if (__tmp < 1.0)
     5f2:	ce 01       	movw	r24, r28
     5f4:	8b 5b       	subi	r24, 0xBB	; 187
     5f6:	9f 4f       	sbci	r25, 0xFF	; 255
     5f8:	20 e0       	ldi	r18, 0x00	; 0
     5fa:	30 e0       	ldi	r19, 0x00	; 0
     5fc:	40 e8       	ldi	r20, 0x80	; 128
     5fe:	5f e3       	ldi	r21, 0x3F	; 63
     600:	dc 01       	movw	r26, r24
     602:	6d 91       	ld	r22, X+
     604:	7d 91       	ld	r23, X+
     606:	8d 91       	ld	r24, X+
     608:	9c 91       	ld	r25, X
     60a:	0e 94 3c 31 	call	0x6278	; 0x6278 <__cmpsf2>
     60e:	88 23       	and	r24, r24
     610:	3c f4       	brge	.+14     	; 0x620 <.L91>

00000612 <.Loc.50>:
		__ticks = 1;
     612:	ce 01       	movw	r24, r28
     614:	83 5b       	subi	r24, 0xB3	; 179
     616:	9f 4f       	sbci	r25, 0xFF	; 255
     618:	21 e0       	ldi	r18, 0x01	; 1
     61a:	fc 01       	movw	r30, r24
     61c:	20 83       	st	Z, r18
     61e:	9c c1       	rjmp	.+824    	; 0x958 <.L26>

00000620 <.L91>:
	else if (__tmp2 > 65535)
     620:	ce 01       	movw	r24, r28
     622:	87 5b       	subi	r24, 0xB7	; 183
     624:	9f 4f       	sbci	r25, 0xFF	; 255
     626:	20 e0       	ldi	r18, 0x00	; 0
     628:	3f ef       	ldi	r19, 0xFF	; 255
     62a:	4f e7       	ldi	r20, 0x7F	; 127
     62c:	57 e4       	ldi	r21, 0x47	; 71
     62e:	dc 01       	movw	r26, r24
     630:	6d 91       	ld	r22, X+
     632:	7d 91       	ld	r23, X+
     634:	8d 91       	ld	r24, X+
     636:	9c 91       	ld	r25, X
     638:	0e 94 9b 32 	call	0x6536	; 0x6536 <__gesf2>
     63c:	88 23       	and	r24, r24
     63e:	09 f0       	breq	.+2      	; 0x642 <L0^A>

00000640 <L0^A>:
     640:	0c f4       	brge	.+2      	; 0x644 <.Loc.52>

00000642 <L0^A>:
     642:	22 c1       	rjmp	.+580    	; 0x888 <.L92>

00000644 <.Loc.52>:
	{
		_delay_ms(__us / 1000.0);
     644:	ce 01       	movw	r24, r28
     646:	8f 5b       	subi	r24, 0xBF	; 191
     648:	9f 4f       	sbci	r25, 0xFF	; 255
     64a:	20 e0       	ldi	r18, 0x00	; 0
     64c:	30 e0       	ldi	r19, 0x00	; 0
     64e:	4a e7       	ldi	r20, 0x7A	; 122
     650:	54 e4       	ldi	r21, 0x44	; 68
     652:	fc 01       	movw	r30, r24
     654:	60 81       	ld	r22, Z
     656:	71 81       	ldd	r23, Z+1	; 0x01
     658:	82 81       	ldd	r24, Z+2	; 0x02
     65a:	93 81       	ldd	r25, Z+3	; 0x03
     65c:	0e 94 41 31 	call	0x6282	; 0x6282 <__divsf3>
     660:	c9 56       	subi	r28, 0x69	; 105
     662:	df 4f       	sbci	r29, 0xFF	; 255
     664:	68 83       	st	Y, r22
     666:	79 83       	std	Y+1, r23	; 0x01
     668:	8a 83       	std	Y+2, r24	; 0x02
     66a:	9b 83       	std	Y+3, r25	; 0x03
     66c:	c7 59       	subi	r28, 0x97	; 151
     66e:	d0 40       	sbci	r29, 0x00	; 0
     670:	c9 56       	subi	r28, 0x69	; 105
     672:	df 4f       	sbci	r29, 0xFF	; 255
     674:	88 81       	ld	r24, Y
     676:	99 81       	ldd	r25, Y+1	; 0x01
     678:	aa 81       	ldd	r26, Y+2	; 0x02
     67a:	bb 81       	ldd	r27, Y+3	; 0x03
     67c:	c7 59       	subi	r28, 0x97	; 151
     67e:	d0 40       	sbci	r29, 0x00	; 0
     680:	9e 01       	movw	r18, r28
     682:	22 5b       	subi	r18, 0xB2	; 178
     684:	3f 4f       	sbci	r19, 0xFF	; 255
     686:	f9 01       	movw	r30, r18
     688:	80 83       	st	Z, r24
     68a:	91 83       	std	Z+1, r25	; 0x01
     68c:	a2 83       	std	Z+2, r26	; 0x02
     68e:	b3 83       	std	Z+3, r27	; 0x03

00000690 <.LBB161>:
	__tmp = ((F_CPU) / 4e3) * __ms;
     690:	8e 01       	movw	r16, r28
     692:	0e 5a       	subi	r16, 0xAE	; 174
     694:	1f 4f       	sbci	r17, 0xFF	; 255
     696:	ce 01       	movw	r24, r28
     698:	82 5b       	subi	r24, 0xB2	; 178
     69a:	9f 4f       	sbci	r25, 0xFF	; 255
     69c:	20 e0       	ldi	r18, 0x00	; 0
     69e:	30 e0       	ldi	r19, 0x00	; 0
     6a0:	4a e7       	ldi	r20, 0x7A	; 122
     6a2:	55 e4       	ldi	r21, 0x45	; 69
     6a4:	dc 01       	movw	r26, r24
     6a6:	6d 91       	ld	r22, X+
     6a8:	7d 91       	ld	r23, X+
     6aa:	8d 91       	ld	r24, X+
     6ac:	9c 91       	ld	r25, X
     6ae:	0e 94 a0 32 	call	0x6540	; 0x6540 <__mulsf3>
     6b2:	c5 56       	subi	r28, 0x65	; 101
     6b4:	df 4f       	sbci	r29, 0xFF	; 255
     6b6:	68 83       	st	Y, r22
     6b8:	79 83       	std	Y+1, r23	; 0x01
     6ba:	8a 83       	std	Y+2, r24	; 0x02
     6bc:	9b 83       	std	Y+3, r25	; 0x03
     6be:	cb 59       	subi	r28, 0x9B	; 155
     6c0:	d0 40       	sbci	r29, 0x00	; 0
     6c2:	c5 56       	subi	r28, 0x65	; 101
     6c4:	df 4f       	sbci	r29, 0xFF	; 255
     6c6:	88 81       	ld	r24, Y
     6c8:	99 81       	ldd	r25, Y+1	; 0x01
     6ca:	aa 81       	ldd	r26, Y+2	; 0x02
     6cc:	bb 81       	ldd	r27, Y+3	; 0x03
     6ce:	cb 59       	subi	r28, 0x9B	; 155
     6d0:	d0 40       	sbci	r29, 0x00	; 0
     6d2:	f8 01       	movw	r30, r16
     6d4:	80 83       	st	Z, r24
     6d6:	91 83       	std	Z+1, r25	; 0x01
     6d8:	a2 83       	std	Z+2, r26	; 0x02
     6da:	b3 83       	std	Z+3, r27	; 0x03

000006dc <.Loc.54>:
	if (__tmp < 1.0)
     6dc:	ce 01       	movw	r24, r28
     6de:	8e 5a       	subi	r24, 0xAE	; 174
     6e0:	9f 4f       	sbci	r25, 0xFF	; 255
     6e2:	20 e0       	ldi	r18, 0x00	; 0
     6e4:	30 e0       	ldi	r19, 0x00	; 0
     6e6:	40 e8       	ldi	r20, 0x80	; 128
     6e8:	5f e3       	ldi	r21, 0x3F	; 63
     6ea:	dc 01       	movw	r26, r24
     6ec:	6d 91       	ld	r22, X+
     6ee:	7d 91       	ld	r23, X+
     6f0:	8d 91       	ld	r24, X+
     6f2:	9c 91       	ld	r25, X
     6f4:	0e 94 3c 31 	call	0x6278	; 0x6278 <__cmpsf2>
     6f8:	88 23       	and	r24, r24
     6fa:	4c f4       	brge	.+18     	; 0x70e <.L93>

000006fc <.Loc.55>:
		__ticks = 1;
     6fc:	ce 01       	movw	r24, r28
     6fe:	8a 5a       	subi	r24, 0xAA	; 170
     700:	9f 4f       	sbci	r25, 0xFF	; 255
     702:	21 e0       	ldi	r18, 0x01	; 1
     704:	30 e0       	ldi	r19, 0x00	; 0
     706:	fc 01       	movw	r30, r24
     708:	31 83       	std	Z+1, r19	; 0x01
     70a:	20 83       	st	Z, r18
     70c:	a1 c0       	rjmp	.+322    	; 0x850 <.L31>

0000070e <.L93>:
	else if (__tmp > 65535)
     70e:	ce 01       	movw	r24, r28
     710:	8e 5a       	subi	r24, 0xAE	; 174
     712:	9f 4f       	sbci	r25, 0xFF	; 255
     714:	20 e0       	ldi	r18, 0x00	; 0
     716:	3f ef       	ldi	r19, 0xFF	; 255
     718:	4f e7       	ldi	r20, 0x7F	; 127
     71a:	57 e4       	ldi	r21, 0x47	; 71
     71c:	dc 01       	movw	r26, r24
     71e:	6d 91       	ld	r22, X+
     720:	7d 91       	ld	r23, X+
     722:	8d 91       	ld	r24, X+
     724:	9c 91       	ld	r25, X
     726:	0e 94 9b 32 	call	0x6536	; 0x6536 <__gesf2>
     72a:	88 23       	and	r24, r24
     72c:	09 f0       	breq	.+2      	; 0x730 <L0^A>

0000072e <L0^A>:
     72e:	0c f4       	brge	.+2      	; 0x732 <.Loc.57>

00000730 <L0^A>:
     730:	71 c0       	rjmp	.+226    	; 0x814 <.L94>

00000732 <.Loc.57>:
		__ticks = (uint16_t) (__ms * 10.0);
     732:	ce 01       	movw	r24, r28
     734:	82 5b       	subi	r24, 0xB2	; 178
     736:	9f 4f       	sbci	r25, 0xFF	; 255
     738:	20 e0       	ldi	r18, 0x00	; 0
     73a:	30 e0       	ldi	r19, 0x00	; 0
     73c:	40 e2       	ldi	r20, 0x20	; 32
     73e:	51 e4       	ldi	r21, 0x41	; 65
     740:	fc 01       	movw	r30, r24
     742:	60 81       	ld	r22, Z
     744:	71 81       	ldd	r23, Z+1	; 0x01
     746:	82 81       	ldd	r24, Z+2	; 0x02
     748:	93 81       	ldd	r25, Z+3	; 0x03
     74a:	0e 94 a0 32 	call	0x6540	; 0x6540 <__mulsf3>
     74e:	c1 56       	subi	r28, 0x61	; 97
     750:	df 4f       	sbci	r29, 0xFF	; 255
     752:	68 83       	st	Y, r22
     754:	79 83       	std	Y+1, r23	; 0x01
     756:	8a 83       	std	Y+2, r24	; 0x02
     758:	9b 83       	std	Y+3, r25	; 0x03
     75a:	cf 59       	subi	r28, 0x9F	; 159
     75c:	d0 40       	sbci	r29, 0x00	; 0
     75e:	c1 56       	subi	r28, 0x61	; 97
     760:	df 4f       	sbci	r29, 0xFF	; 255
     762:	88 81       	ld	r24, Y
     764:	99 81       	ldd	r25, Y+1	; 0x01
     766:	aa 81       	ldd	r26, Y+2	; 0x02
     768:	bb 81       	ldd	r27, Y+3	; 0x03
     76a:	cf 59       	subi	r28, 0x9F	; 159
     76c:	d0 40       	sbci	r29, 0x00	; 0
     76e:	eb 96       	adiw	r28, 0x3b	; 59
     770:	8c af       	std	Y+60, r24	; 0x3c
     772:	9d af       	std	Y+61, r25	; 0x3d
     774:	ae af       	std	Y+62, r26	; 0x3e
     776:	bf af       	std	Y+63, r27	; 0x3f
     778:	eb 97       	sbiw	r28, 0x3b	; 59

0000077a <.Loc.58>:
     77a:	8e 01       	movw	r16, r28
     77c:	0a 5a       	subi	r16, 0xAA	; 170
     77e:	1f 4f       	sbci	r17, 0xFF	; 255
     780:	eb 96       	adiw	r28, 0x3b	; 59
     782:	6c ad       	ldd	r22, Y+60	; 0x3c
     784:	7d ad       	ldd	r23, Y+61	; 0x3d
     786:	8e ad       	ldd	r24, Y+62	; 0x3e
     788:	9f ad       	ldd	r25, Y+63	; 0x3f
     78a:	eb 97       	sbiw	r28, 0x3b	; 59
     78c:	0e 94 ba 31 	call	0x6374	; 0x6374 <__fixunssfsi>
     790:	cd 55       	subi	r28, 0x5D	; 93
     792:	df 4f       	sbci	r29, 0xFF	; 255
     794:	68 83       	st	Y, r22
     796:	79 83       	std	Y+1, r23	; 0x01
     798:	8a 83       	std	Y+2, r24	; 0x02
     79a:	9b 83       	std	Y+3, r25	; 0x03
     79c:	c3 5a       	subi	r28, 0xA3	; 163
     79e:	d0 40       	sbci	r29, 0x00	; 0
     7a0:	cd 55       	subi	r28, 0x5D	; 93
     7a2:	df 4f       	sbci	r29, 0xFF	; 255
     7a4:	e8 81       	ld	r30, Y
     7a6:	f9 81       	ldd	r31, Y+1	; 0x01
     7a8:	c3 5a       	subi	r28, 0xA3	; 163
     7aa:	d0 40       	sbci	r29, 0x00	; 0
     7ac:	d8 01       	movw	r26, r16
     7ae:	11 96       	adiw	r26, 0x01	; 1
     7b0:	fc 93       	st	X, r31
     7b2:	ee 93       	st	-X, r30

000007b4 <.Loc.59>:
		while(__ticks)
     7b4:	26 c0       	rjmp	.+76     	; 0x802 <.L34>

000007b6 <.L35>:
     7b6:	ce 01       	movw	r24, r28
     7b8:	88 5a       	subi	r24, 0xA8	; 168
     7ba:	9f 4f       	sbci	r25, 0xFF	; 255
     7bc:	20 e9       	ldi	r18, 0x90	; 144
     7be:	31 e0       	ldi	r19, 0x01	; 1
     7c0:	dc 01       	movw	r26, r24
     7c2:	2d 93       	st	X+, r18
     7c4:	3c 93       	st	X, r19

000007c6 <.LBB163>:
     7c6:	ce 01       	movw	r24, r28
     7c8:	88 5a       	subi	r24, 0xA8	; 168
     7ca:	9f 4f       	sbci	r25, 0xFF	; 255
     7cc:	fc 01       	movw	r30, r24
     7ce:	80 81       	ld	r24, Z
     7d0:	91 81       	ldd	r25, Z+1	; 0x01

000007d2 <.L1^B5>:
     7d2:	01 97       	sbiw	r24, 0x01	; 1
     7d4:	f1 f7       	brne	.-4      	; 0x7d2 <.L1^B5>
     7d6:	9e 01       	movw	r18, r28
     7d8:	28 5a       	subi	r18, 0xA8	; 168
     7da:	3f 4f       	sbci	r19, 0xFF	; 255
     7dc:	d9 01       	movw	r26, r18
     7de:	8d 93       	st	X+, r24
     7e0:	9c 93       	st	X, r25

000007e2 <.Loc.61>:
	...

000007e4 <.LBE163>:
			__ticks --;
     7e4:	ce 01       	movw	r24, r28
     7e6:	8a 5a       	subi	r24, 0xAA	; 170
     7e8:	9f 4f       	sbci	r25, 0xFF	; 255
     7ea:	9e 01       	movw	r18, r28
     7ec:	2a 5a       	subi	r18, 0xAA	; 170
     7ee:	3f 4f       	sbci	r19, 0xFF	; 255
     7f0:	f9 01       	movw	r30, r18
     7f2:	20 81       	ld	r18, Z
     7f4:	31 81       	ldd	r19, Z+1	; 0x01
     7f6:	21 50       	subi	r18, 0x01	; 1
     7f8:	31 09       	sbc	r19, r1
     7fa:	dc 01       	movw	r26, r24
     7fc:	11 96       	adiw	r26, 0x01	; 1
     7fe:	3c 93       	st	X, r19
     800:	2e 93       	st	-X, r18

00000802 <.L34>:
		while(__ticks)
     802:	ce 01       	movw	r24, r28
     804:	8a 5a       	subi	r24, 0xAA	; 170
     806:	9f 4f       	sbci	r25, 0xFF	; 255
     808:	fc 01       	movw	r30, r24
     80a:	80 81       	ld	r24, Z
     80c:	91 81       	ldd	r25, Z+1	; 0x01
     80e:	00 97       	sbiw	r24, 0x00	; 0
     810:	91 f6       	brne	.-92     	; 0x7b6 <.L35>

00000812 <.Loc.64>:
		return;
     812:	a2 c0       	rjmp	.+324    	; 0x958 <.L26>

00000814 <.L94>:
		__ticks = (uint16_t)__tmp;
     814:	8e 01       	movw	r16, r28
     816:	0a 5a       	subi	r16, 0xAA	; 170
     818:	1f 4f       	sbci	r17, 0xFF	; 255
     81a:	ce 01       	movw	r24, r28
     81c:	8e 5a       	subi	r24, 0xAE	; 174
     81e:	9f 4f       	sbci	r25, 0xFF	; 255
     820:	dc 01       	movw	r26, r24
     822:	6d 91       	ld	r22, X+
     824:	7d 91       	ld	r23, X+
     826:	8d 91       	ld	r24, X+
     828:	9c 91       	ld	r25, X
     82a:	0e 94 ba 31 	call	0x6374	; 0x6374 <__fixunssfsi>
     82e:	c9 55       	subi	r28, 0x59	; 89
     830:	df 4f       	sbci	r29, 0xFF	; 255
     832:	68 83       	st	Y, r22
     834:	79 83       	std	Y+1, r23	; 0x01
     836:	8a 83       	std	Y+2, r24	; 0x02
     838:	9b 83       	std	Y+3, r25	; 0x03
     83a:	c7 5a       	subi	r28, 0xA7	; 167
     83c:	d0 40       	sbci	r29, 0x00	; 0
     83e:	c9 55       	subi	r28, 0x59	; 89
     840:	df 4f       	sbci	r29, 0xFF	; 255
     842:	88 81       	ld	r24, Y
     844:	99 81       	ldd	r25, Y+1	; 0x01
     846:	c7 5a       	subi	r28, 0xA7	; 167
     848:	d0 40       	sbci	r29, 0x00	; 0
     84a:	f8 01       	movw	r30, r16
     84c:	91 83       	std	Z+1, r25	; 0x01
     84e:	80 83       	st	Z, r24

00000850 <.L31>:
     850:	ce 01       	movw	r24, r28
     852:	86 5a       	subi	r24, 0xA6	; 166
     854:	9f 4f       	sbci	r25, 0xFF	; 255
     856:	9e 01       	movw	r18, r28
     858:	2a 5a       	subi	r18, 0xAA	; 170
     85a:	3f 4f       	sbci	r19, 0xFF	; 255
     85c:	d9 01       	movw	r26, r18
     85e:	2d 91       	ld	r18, X+
     860:	3c 91       	ld	r19, X
     862:	fc 01       	movw	r30, r24
     864:	31 83       	std	Z+1, r19	; 0x01
     866:	20 83       	st	Z, r18

00000868 <.LBB165>:
     868:	ce 01       	movw	r24, r28
     86a:	86 5a       	subi	r24, 0xA6	; 166
     86c:	9f 4f       	sbci	r25, 0xFF	; 255
     86e:	dc 01       	movw	r26, r24
     870:	8d 91       	ld	r24, X+
     872:	9c 91       	ld	r25, X
     874:	11 97       	sbiw	r26, 0x01	; 1

00000876 <.L1^B6>:
     876:	01 97       	sbiw	r24, 0x01	; 1
     878:	f1 f7       	brne	.-4      	; 0x876 <.L1^B6>
     87a:	9e 01       	movw	r18, r28
     87c:	26 5a       	subi	r18, 0xA6	; 166
     87e:	3f 4f       	sbci	r19, 0xFF	; 255
     880:	f9 01       	movw	r30, r18
     882:	91 83       	std	Z+1, r25	; 0x01
     884:	80 83       	st	Z, r24

00000886 <.Loc.67>:
		"brne 1b"
		: "=w" (__count)
		: "0" (__count)
	);
#endif /* __AVR_TINY__ */
}
     886:	68 c0       	rjmp	.+208    	; 0x958 <.L26>

00000888 <.L92>:
	}
	else if (__tmp > 255)
     888:	ce 01       	movw	r24, r28
     88a:	8b 5b       	subi	r24, 0xBB	; 187
     88c:	9f 4f       	sbci	r25, 0xFF	; 255
     88e:	20 e0       	ldi	r18, 0x00	; 0
     890:	30 e0       	ldi	r19, 0x00	; 0
     892:	4f e7       	ldi	r20, 0x7F	; 127
     894:	53 e4       	ldi	r21, 0x43	; 67
     896:	dc 01       	movw	r26, r24
     898:	6d 91       	ld	r22, X+
     89a:	7d 91       	ld	r23, X+
     89c:	8d 91       	ld	r24, X+
     89e:	9c 91       	ld	r25, X
     8a0:	0e 94 9b 32 	call	0x6536	; 0x6536 <__gesf2>
     8a4:	88 23       	and	r24, r24
     8a6:	e1 f1       	breq	.+120    	; 0x920 <.L95>
     8a8:	dc f1       	brlt	.+118    	; 0x920 <.L95>

000008aa <.LBB167>:
	{
		uint16_t __ticks=(uint16_t)__tmp2;
     8aa:	8e 01       	movw	r16, r28
     8ac:	04 5a       	subi	r16, 0xA4	; 164
     8ae:	1f 4f       	sbci	r17, 0xFF	; 255
     8b0:	ce 01       	movw	r24, r28
     8b2:	87 5b       	subi	r24, 0xB7	; 183
     8b4:	9f 4f       	sbci	r25, 0xFF	; 255
     8b6:	fc 01       	movw	r30, r24
     8b8:	60 81       	ld	r22, Z
     8ba:	71 81       	ldd	r23, Z+1	; 0x01
     8bc:	82 81       	ldd	r24, Z+2	; 0x02
     8be:	93 81       	ldd	r25, Z+3	; 0x03
     8c0:	0e 94 ba 31 	call	0x6374	; 0x6374 <__fixunssfsi>
     8c4:	c5 55       	subi	r28, 0x55	; 85
     8c6:	df 4f       	sbci	r29, 0xFF	; 255
     8c8:	68 83       	st	Y, r22
     8ca:	79 83       	std	Y+1, r23	; 0x01
     8cc:	8a 83       	std	Y+2, r24	; 0x02
     8ce:	9b 83       	std	Y+3, r25	; 0x03
     8d0:	cb 5a       	subi	r28, 0xAB	; 171
     8d2:	d0 40       	sbci	r29, 0x00	; 0
     8d4:	c5 55       	subi	r28, 0x55	; 85
     8d6:	df 4f       	sbci	r29, 0xFF	; 255
     8d8:	e8 81       	ld	r30, Y
     8da:	f9 81       	ldd	r31, Y+1	; 0x01
     8dc:	cb 5a       	subi	r28, 0xAB	; 171
     8de:	d0 40       	sbci	r29, 0x00	; 0
     8e0:	d8 01       	movw	r26, r16
     8e2:	ed 93       	st	X+, r30
     8e4:	fc 93       	st	X, r31
     8e6:	ce 01       	movw	r24, r28
     8e8:	82 5a       	subi	r24, 0xA2	; 162
     8ea:	9f 4f       	sbci	r25, 0xFF	; 255
     8ec:	9e 01       	movw	r18, r28
     8ee:	24 5a       	subi	r18, 0xA4	; 164
     8f0:	3f 4f       	sbci	r19, 0xFF	; 255
     8f2:	d9 01       	movw	r26, r18
     8f4:	2d 91       	ld	r18, X+
     8f6:	3c 91       	ld	r19, X
     8f8:	fc 01       	movw	r30, r24
     8fa:	31 83       	std	Z+1, r19	; 0x01
     8fc:	20 83       	st	Z, r18

000008fe <.LBB168>:
	__asm__ volatile (
     8fe:	ce 01       	movw	r24, r28
     900:	82 5a       	subi	r24, 0xA2	; 162
     902:	9f 4f       	sbci	r25, 0xFF	; 255
     904:	dc 01       	movw	r26, r24
     906:	8d 91       	ld	r24, X+
     908:	9c 91       	ld	r25, X
     90a:	11 97       	sbiw	r26, 0x01	; 1

0000090c <.L1^B7>:
     90c:	01 97       	sbiw	r24, 0x01	; 1
     90e:	f1 f7       	brne	.-4      	; 0x90c <.L1^B7>
     910:	9e 01       	movw	r18, r28
     912:	22 5a       	subi	r18, 0xA2	; 162
     914:	3f 4f       	sbci	r19, 0xFF	; 255
     916:	f9 01       	movw	r30, r18
     918:	91 83       	std	Z+1, r25	; 0x01
     91a:	80 83       	st	Z, r24

0000091c <.Loc.71>:
	...

0000091e <.LBE168>:
		_delay_loop_2(__ticks);
		return;
     91e:	34 c0       	rjmp	.+104    	; 0x988 <.L39>

00000920 <.L95>:
	}
	else
		__ticks = (uint8_t)__tmp;
     920:	8e 01       	movw	r16, r28
     922:	03 5b       	subi	r16, 0xB3	; 179
     924:	1f 4f       	sbci	r17, 0xFF	; 255
     926:	ce 01       	movw	r24, r28
     928:	8b 5b       	subi	r24, 0xBB	; 187
     92a:	9f 4f       	sbci	r25, 0xFF	; 255
     92c:	dc 01       	movw	r26, r24
     92e:	6d 91       	ld	r22, X+
     930:	7d 91       	ld	r23, X+
     932:	8d 91       	ld	r24, X+
     934:	9c 91       	ld	r25, X
     936:	0e 94 ba 31 	call	0x6374	; 0x6374 <__fixunssfsi>
     93a:	c1 55       	subi	r28, 0x51	; 81
     93c:	df 4f       	sbci	r29, 0xFF	; 255
     93e:	68 83       	st	Y, r22
     940:	79 83       	std	Y+1, r23	; 0x01
     942:	8a 83       	std	Y+2, r24	; 0x02
     944:	9b 83       	std	Y+3, r25	; 0x03
     946:	cf 5a       	subi	r28, 0xAF	; 175
     948:	d0 40       	sbci	r29, 0x00	; 0
     94a:	c1 55       	subi	r28, 0x51	; 81
     94c:	df 4f       	sbci	r29, 0xFF	; 255
     94e:	88 81       	ld	r24, Y
     950:	cf 5a       	subi	r28, 0xAF	; 175
     952:	d0 40       	sbci	r29, 0x00	; 0
     954:	f8 01       	movw	r30, r16
     956:	80 83       	st	Z, r24

00000958 <.L26>:
     958:	ce 01       	movw	r24, r28
     95a:	80 5a       	subi	r24, 0xA0	; 160
     95c:	9f 4f       	sbci	r25, 0xFF	; 255
     95e:	9e 01       	movw	r18, r28
     960:	23 5b       	subi	r18, 0xB3	; 179
     962:	3f 4f       	sbci	r19, 0xFF	; 255
     964:	d9 01       	movw	r26, r18
     966:	2c 91       	ld	r18, X
     968:	fc 01       	movw	r30, r24
     96a:	20 83       	st	Z, r18

0000096c <.LBB170>:
	__asm__ volatile (
     96c:	ce 01       	movw	r24, r28
     96e:	80 5a       	subi	r24, 0xA0	; 160
     970:	9f 4f       	sbci	r25, 0xFF	; 255
     972:	dc 01       	movw	r26, r24
     974:	8c 91       	ld	r24, X
     976:	28 2f       	mov	r18, r24

00000978 <.L1^B8>:
     978:	2a 95       	dec	r18
     97a:	f1 f7       	brne	.-4      	; 0x978 <.L1^B8>
     97c:	ce 01       	movw	r24, r28
     97e:	80 5a       	subi	r24, 0xA0	; 160
     980:	9f 4f       	sbci	r25, 0xFF	; 255
     982:	fc 01       	movw	r30, r24
     984:	20 83       	st	Z, r18

00000986 <.Loc.75>:
	...

00000988 <.L39>:
	_delay_us(10);                      // Delay of 10 us

	lcd_write_4(lcd_FunctionReset);		// Second part of reset sequence
     988:	80 e3       	ldi	r24, 0x30	; 48
     98a:	0e 94 32 09 	call	0x1264	; 0x1264 <lcd_write_4>
     98e:	80 e0       	ldi	r24, 0x00	; 0
     990:	90 e0       	ldi	r25, 0x00	; 0
     992:	a8 e4       	ldi	r26, 0x48	; 72
     994:	b3 e4       	ldi	r27, 0x43	; 67
     996:	89 a3       	std	Y+33, r24	; 0x21
     998:	9a a3       	std	Y+34, r25	; 0x22
     99a:	ab a3       	std	Y+35, r26	; 0x23
     99c:	bc a3       	std	Y+36, r27	; 0x24

0000099e <.LBB172>:
	__tmp = ((F_CPU) / 3e6) * __us;
     99e:	2b ea       	ldi	r18, 0xAB	; 171
     9a0:	3a ea       	ldi	r19, 0xAA	; 170
     9a2:	4a ea       	ldi	r20, 0xAA	; 170
     9a4:	50 e4       	ldi	r21, 0x40	; 64
     9a6:	69 a1       	ldd	r22, Y+33	; 0x21
     9a8:	7a a1       	ldd	r23, Y+34	; 0x22
     9aa:	8b a1       	ldd	r24, Y+35	; 0x23
     9ac:	9c a1       	ldd	r25, Y+36	; 0x24
     9ae:	0e 94 a0 32 	call	0x6540	; 0x6540 <__mulsf3>
     9b2:	cd 54       	subi	r28, 0x4D	; 77
     9b4:	df 4f       	sbci	r29, 0xFF	; 255
     9b6:	68 83       	st	Y, r22
     9b8:	79 83       	std	Y+1, r23	; 0x01
     9ba:	8a 83       	std	Y+2, r24	; 0x02
     9bc:	9b 83       	std	Y+3, r25	; 0x03
     9be:	c3 5b       	subi	r28, 0xB3	; 179
     9c0:	d0 40       	sbci	r29, 0x00	; 0
     9c2:	cd 54       	subi	r28, 0x4D	; 77
     9c4:	df 4f       	sbci	r29, 0xFF	; 255
     9c6:	88 81       	ld	r24, Y
     9c8:	99 81       	ldd	r25, Y+1	; 0x01
     9ca:	aa 81       	ldd	r26, Y+2	; 0x02
     9cc:	bb 81       	ldd	r27, Y+3	; 0x03
     9ce:	c3 5b       	subi	r28, 0xB3	; 179
     9d0:	d0 40       	sbci	r29, 0x00	; 0
     9d2:	8d a3       	std	Y+37, r24	; 0x25
     9d4:	9e a3       	std	Y+38, r25	; 0x26
     9d6:	af a3       	std	Y+39, r26	; 0x27
     9d8:	b8 a7       	std	Y+40, r27	; 0x28

000009da <.Loc.78>:
	__tmp2 = ((F_CPU) / 4e6) * __us;
     9da:	20 e0       	ldi	r18, 0x00	; 0
     9dc:	30 e0       	ldi	r19, 0x00	; 0
     9de:	40 e8       	ldi	r20, 0x80	; 128
     9e0:	50 e4       	ldi	r21, 0x40	; 64
     9e2:	69 a1       	ldd	r22, Y+33	; 0x21
     9e4:	7a a1       	ldd	r23, Y+34	; 0x22
     9e6:	8b a1       	ldd	r24, Y+35	; 0x23
     9e8:	9c a1       	ldd	r25, Y+36	; 0x24
     9ea:	0e 94 a0 32 	call	0x6540	; 0x6540 <__mulsf3>
     9ee:	c9 54       	subi	r28, 0x49	; 73
     9f0:	df 4f       	sbci	r29, 0xFF	; 255
     9f2:	68 83       	st	Y, r22
     9f4:	79 83       	std	Y+1, r23	; 0x01
     9f6:	8a 83       	std	Y+2, r24	; 0x02
     9f8:	9b 83       	std	Y+3, r25	; 0x03
     9fa:	c7 5b       	subi	r28, 0xB7	; 183
     9fc:	d0 40       	sbci	r29, 0x00	; 0
     9fe:	c9 54       	subi	r28, 0x49	; 73
     a00:	df 4f       	sbci	r29, 0xFF	; 255
     a02:	88 81       	ld	r24, Y
     a04:	99 81       	ldd	r25, Y+1	; 0x01
     a06:	aa 81       	ldd	r26, Y+2	; 0x02
     a08:	bb 81       	ldd	r27, Y+3	; 0x03
     a0a:	c7 5b       	subi	r28, 0xB7	; 183
     a0c:	d0 40       	sbci	r29, 0x00	; 0
     a0e:	89 a7       	std	Y+41, r24	; 0x29
     a10:	9a a7       	std	Y+42, r25	; 0x2a
     a12:	ab a7       	std	Y+43, r26	; 0x2b
     a14:	bc a7       	std	Y+44, r27	; 0x2c

00000a16 <.Loc.79>:
	if (__tmp < 1.0)
     a16:	20 e0       	ldi	r18, 0x00	; 0
     a18:	30 e0       	ldi	r19, 0x00	; 0
     a1a:	40 e8       	ldi	r20, 0x80	; 128
     a1c:	5f e3       	ldi	r21, 0x3F	; 63
     a1e:	6d a1       	ldd	r22, Y+37	; 0x25
     a20:	7e a1       	ldd	r23, Y+38	; 0x26
     a22:	8f a1       	ldd	r24, Y+39	; 0x27
     a24:	98 a5       	ldd	r25, Y+40	; 0x28
     a26:	0e 94 3c 31 	call	0x6278	; 0x6278 <__cmpsf2>
     a2a:	88 23       	and	r24, r24
     a2c:	1c f4       	brge	.+6      	; 0xa34 <.L96>

00000a2e <.Loc.80>:
		__ticks = 1;
     a2e:	81 e0       	ldi	r24, 0x01	; 1
     a30:	8d a7       	std	Y+45, r24	; 0x2d
     a32:	1b c1       	rjmp	.+566    	; 0xc6a <.L42>

00000a34 <.L96>:
	else if (__tmp2 > 65535)
     a34:	20 e0       	ldi	r18, 0x00	; 0
     a36:	3f ef       	ldi	r19, 0xFF	; 255
     a38:	4f e7       	ldi	r20, 0x7F	; 127
     a3a:	57 e4       	ldi	r21, 0x47	; 71
     a3c:	69 a5       	ldd	r22, Y+41	; 0x29
     a3e:	7a a5       	ldd	r23, Y+42	; 0x2a
     a40:	8b a5       	ldd	r24, Y+43	; 0x2b
     a42:	9c a5       	ldd	r25, Y+44	; 0x2c
     a44:	0e 94 9b 32 	call	0x6536	; 0x6536 <__gesf2>
     a48:	88 23       	and	r24, r24
     a4a:	09 f0       	breq	.+2      	; 0xa4e <L0^A>

00000a4c <L0^A>:
     a4c:	0c f4       	brge	.+2      	; 0xa50 <.Loc.82>

00000a4e <L0^A>:
     a4e:	ca c0       	rjmp	.+404    	; 0xbe4 <.L97>

00000a50 <.Loc.82>:
		_delay_ms(__us / 1000.0);
     a50:	20 e0       	ldi	r18, 0x00	; 0
     a52:	30 e0       	ldi	r19, 0x00	; 0
     a54:	4a e7       	ldi	r20, 0x7A	; 122
     a56:	54 e4       	ldi	r21, 0x44	; 68
     a58:	69 a1       	ldd	r22, Y+33	; 0x21
     a5a:	7a a1       	ldd	r23, Y+34	; 0x22
     a5c:	8b a1       	ldd	r24, Y+35	; 0x23
     a5e:	9c a1       	ldd	r25, Y+36	; 0x24
     a60:	0e 94 41 31 	call	0x6282	; 0x6282 <__divsf3>
     a64:	c5 54       	subi	r28, 0x45	; 69
     a66:	df 4f       	sbci	r29, 0xFF	; 255
     a68:	68 83       	st	Y, r22
     a6a:	79 83       	std	Y+1, r23	; 0x01
     a6c:	8a 83       	std	Y+2, r24	; 0x02
     a6e:	9b 83       	std	Y+3, r25	; 0x03
     a70:	cb 5b       	subi	r28, 0xBB	; 187
     a72:	d0 40       	sbci	r29, 0x00	; 0
     a74:	c5 54       	subi	r28, 0x45	; 69
     a76:	df 4f       	sbci	r29, 0xFF	; 255
     a78:	88 81       	ld	r24, Y
     a7a:	99 81       	ldd	r25, Y+1	; 0x01
     a7c:	aa 81       	ldd	r26, Y+2	; 0x02
     a7e:	bb 81       	ldd	r27, Y+3	; 0x03
     a80:	cb 5b       	subi	r28, 0xBB	; 187
     a82:	d0 40       	sbci	r29, 0x00	; 0
     a84:	8e a7       	std	Y+46, r24	; 0x2e
     a86:	9f a7       	std	Y+47, r25	; 0x2f
     a88:	a8 ab       	std	Y+48, r26	; 0x30
     a8a:	b9 ab       	std	Y+49, r27	; 0x31

00000a8c <.LBB174>:
	__tmp = ((F_CPU) / 4e3) * __ms;
     a8c:	20 e0       	ldi	r18, 0x00	; 0
     a8e:	30 e0       	ldi	r19, 0x00	; 0
     a90:	4a e7       	ldi	r20, 0x7A	; 122
     a92:	55 e4       	ldi	r21, 0x45	; 69
     a94:	6e a5       	ldd	r22, Y+46	; 0x2e
     a96:	7f a5       	ldd	r23, Y+47	; 0x2f
     a98:	88 a9       	ldd	r24, Y+48	; 0x30
     a9a:	99 a9       	ldd	r25, Y+49	; 0x31
     a9c:	0e 94 a0 32 	call	0x6540	; 0x6540 <__mulsf3>
     aa0:	c1 54       	subi	r28, 0x41	; 65
     aa2:	df 4f       	sbci	r29, 0xFF	; 255
     aa4:	68 83       	st	Y, r22
     aa6:	79 83       	std	Y+1, r23	; 0x01
     aa8:	8a 83       	std	Y+2, r24	; 0x02
     aaa:	9b 83       	std	Y+3, r25	; 0x03
     aac:	cf 5b       	subi	r28, 0xBF	; 191
     aae:	d0 40       	sbci	r29, 0x00	; 0
     ab0:	c1 54       	subi	r28, 0x41	; 65
     ab2:	df 4f       	sbci	r29, 0xFF	; 255
     ab4:	88 81       	ld	r24, Y
     ab6:	99 81       	ldd	r25, Y+1	; 0x01
     ab8:	aa 81       	ldd	r26, Y+2	; 0x02
     aba:	bb 81       	ldd	r27, Y+3	; 0x03
     abc:	cf 5b       	subi	r28, 0xBF	; 191
     abe:	d0 40       	sbci	r29, 0x00	; 0
     ac0:	8a ab       	std	Y+50, r24	; 0x32
     ac2:	9b ab       	std	Y+51, r25	; 0x33
     ac4:	ac ab       	std	Y+52, r26	; 0x34
     ac6:	bd ab       	std	Y+53, r27	; 0x35

00000ac8 <.Loc.84>:
	if (__tmp < 1.0)
     ac8:	20 e0       	ldi	r18, 0x00	; 0
     aca:	30 e0       	ldi	r19, 0x00	; 0
     acc:	40 e8       	ldi	r20, 0x80	; 128
     ace:	5f e3       	ldi	r21, 0x3F	; 63
     ad0:	6a a9       	ldd	r22, Y+50	; 0x32
     ad2:	7b a9       	ldd	r23, Y+51	; 0x33
     ad4:	8c a9       	ldd	r24, Y+52	; 0x34
     ad6:	9d a9       	ldd	r25, Y+53	; 0x35
     ad8:	0e 94 3c 31 	call	0x6278	; 0x6278 <__cmpsf2>
     adc:	88 23       	and	r24, r24
     ade:	2c f4       	brge	.+10     	; 0xaea <.L98>

00000ae0 <.Loc.85>:
		__ticks = 1;
     ae0:	81 e0       	ldi	r24, 0x01	; 1
     ae2:	90 e0       	ldi	r25, 0x00	; 0
     ae4:	9f ab       	std	Y+55, r25	; 0x37
     ae6:	8e ab       	std	Y+54, r24	; 0x36
     ae8:	72 c0       	rjmp	.+228    	; 0xbce <.L47>

00000aea <.L98>:
	else if (__tmp > 65535)
     aea:	20 e0       	ldi	r18, 0x00	; 0
     aec:	3f ef       	ldi	r19, 0xFF	; 255
     aee:	4f e7       	ldi	r20, 0x7F	; 127
     af0:	57 e4       	ldi	r21, 0x47	; 71
     af2:	6a a9       	ldd	r22, Y+50	; 0x32
     af4:	7b a9       	ldd	r23, Y+51	; 0x33
     af6:	8c a9       	ldd	r24, Y+52	; 0x34
     af8:	9d a9       	ldd	r25, Y+53	; 0x35
     afa:	0e 94 9b 32 	call	0x6536	; 0x6536 <__gesf2>
     afe:	88 23       	and	r24, r24
     b00:	09 f0       	breq	.+2      	; 0xb04 <L0^A>

00000b02 <L0^A>:
     b02:	0c f4       	brge	.+2      	; 0xb06 <.Loc.87>

00000b04 <L0^A>:
     b04:	4e c0       	rjmp	.+156    	; 0xba2 <.L99>

00000b06 <.Loc.87>:
		__ticks = (uint16_t) (__ms * 10.0);
     b06:	20 e0       	ldi	r18, 0x00	; 0
     b08:	30 e0       	ldi	r19, 0x00	; 0
     b0a:	40 e2       	ldi	r20, 0x20	; 32
     b0c:	51 e4       	ldi	r21, 0x41	; 65
     b0e:	6e a5       	ldd	r22, Y+46	; 0x2e
     b10:	7f a5       	ldd	r23, Y+47	; 0x2f
     b12:	88 a9       	ldd	r24, Y+48	; 0x30
     b14:	99 a9       	ldd	r25, Y+49	; 0x31
     b16:	0e 94 a0 32 	call	0x6540	; 0x6540 <__mulsf3>
     b1a:	cd 53       	subi	r28, 0x3D	; 61
     b1c:	df 4f       	sbci	r29, 0xFF	; 255
     b1e:	68 83       	st	Y, r22
     b20:	79 83       	std	Y+1, r23	; 0x01
     b22:	8a 83       	std	Y+2, r24	; 0x02
     b24:	9b 83       	std	Y+3, r25	; 0x03
     b26:	c3 5c       	subi	r28, 0xC3	; 195
     b28:	d0 40       	sbci	r29, 0x00	; 0
     b2a:	cd 53       	subi	r28, 0x3D	; 61
     b2c:	df 4f       	sbci	r29, 0xFF	; 255
     b2e:	88 81       	ld	r24, Y
     b30:	99 81       	ldd	r25, Y+1	; 0x01
     b32:	aa 81       	ldd	r26, Y+2	; 0x02
     b34:	bb 81       	ldd	r27, Y+3	; 0x03
     b36:	c3 5c       	subi	r28, 0xC3	; 195
     b38:	d0 40       	sbci	r29, 0x00	; 0
     b3a:	e7 96       	adiw	r28, 0x37	; 55
     b3c:	8c af       	std	Y+60, r24	; 0x3c
     b3e:	9d af       	std	Y+61, r25	; 0x3d
     b40:	ae af       	std	Y+62, r26	; 0x3e
     b42:	bf af       	std	Y+63, r27	; 0x3f
     b44:	e7 97       	sbiw	r28, 0x37	; 55

00000b46 <.Loc.88>:
     b46:	e7 96       	adiw	r28, 0x37	; 55
     b48:	6c ad       	ldd	r22, Y+60	; 0x3c
     b4a:	7d ad       	ldd	r23, Y+61	; 0x3d
     b4c:	8e ad       	ldd	r24, Y+62	; 0x3e
     b4e:	9f ad       	ldd	r25, Y+63	; 0x3f
     b50:	e7 97       	sbiw	r28, 0x37	; 55
     b52:	0e 94 ba 31 	call	0x6374	; 0x6374 <__fixunssfsi>
     b56:	c9 53       	subi	r28, 0x39	; 57
     b58:	df 4f       	sbci	r29, 0xFF	; 255
     b5a:	68 83       	st	Y, r22
     b5c:	79 83       	std	Y+1, r23	; 0x01
     b5e:	8a 83       	std	Y+2, r24	; 0x02
     b60:	9b 83       	std	Y+3, r25	; 0x03
     b62:	c7 5c       	subi	r28, 0xC7	; 199
     b64:	d0 40       	sbci	r29, 0x00	; 0
     b66:	c9 53       	subi	r28, 0x39	; 57
     b68:	df 4f       	sbci	r29, 0xFF	; 255
     b6a:	a8 81       	ld	r26, Y
     b6c:	b9 81       	ldd	r27, Y+1	; 0x01
     b6e:	c7 5c       	subi	r28, 0xC7	; 199
     b70:	d0 40       	sbci	r29, 0x00	; 0
     b72:	bf ab       	std	Y+55, r27	; 0x37
     b74:	ae ab       	std	Y+54, r26	; 0x36

00000b76 <.Loc.89>:
		while(__ticks)
     b76:	10 c0       	rjmp	.+32     	; 0xb98 <.L50>

00000b78 <.L51>:
     b78:	80 e9       	ldi	r24, 0x90	; 144
     b7a:	91 e0       	ldi	r25, 0x01	; 1
     b7c:	99 af       	std	Y+57, r25	; 0x39
     b7e:	88 af       	std	Y+56, r24	; 0x38

00000b80 <.LBB176>:
	__asm__ volatile (
     b80:	88 ad       	ldd	r24, Y+56	; 0x38
     b82:	99 ad       	ldd	r25, Y+57	; 0x39

00000b84 <.L1^B9>:
     b84:	01 97       	sbiw	r24, 0x01	; 1
     b86:	f1 f7       	brne	.-4      	; 0xb84 <.L1^B9>
     b88:	99 af       	std	Y+57, r25	; 0x39
     b8a:	88 af       	std	Y+56, r24	; 0x38

00000b8c <.Loc.91>:
	...

00000b8e <.LBE176>:
			__ticks --;
     b8e:	8e a9       	ldd	r24, Y+54	; 0x36
     b90:	9f a9       	ldd	r25, Y+55	; 0x37
     b92:	01 97       	sbiw	r24, 0x01	; 1
     b94:	9f ab       	std	Y+55, r25	; 0x37
     b96:	8e ab       	std	Y+54, r24	; 0x36

00000b98 <.L50>:
		while(__ticks)
     b98:	8e a9       	ldd	r24, Y+54	; 0x36
     b9a:	9f a9       	ldd	r25, Y+55	; 0x37
     b9c:	00 97       	sbiw	r24, 0x00	; 0
     b9e:	61 f7       	brne	.-40     	; 0xb78 <.L51>

00000ba0 <.Loc.94>:
		return;
     ba0:	64 c0       	rjmp	.+200    	; 0xc6a <.L42>

00000ba2 <.L99>:
		__ticks = (uint16_t)__tmp;
     ba2:	6a a9       	ldd	r22, Y+50	; 0x32
     ba4:	7b a9       	ldd	r23, Y+51	; 0x33
     ba6:	8c a9       	ldd	r24, Y+52	; 0x34
     ba8:	9d a9       	ldd	r25, Y+53	; 0x35
     baa:	0e 94 ba 31 	call	0x6374	; 0x6374 <__fixunssfsi>
     bae:	c5 53       	subi	r28, 0x35	; 53
     bb0:	df 4f       	sbci	r29, 0xFF	; 255
     bb2:	68 83       	st	Y, r22
     bb4:	79 83       	std	Y+1, r23	; 0x01
     bb6:	8a 83       	std	Y+2, r24	; 0x02
     bb8:	9b 83       	std	Y+3, r25	; 0x03
     bba:	cb 5c       	subi	r28, 0xCB	; 203
     bbc:	d0 40       	sbci	r29, 0x00	; 0
     bbe:	c5 53       	subi	r28, 0x35	; 53
     bc0:	df 4f       	sbci	r29, 0xFF	; 255
     bc2:	e8 81       	ld	r30, Y
     bc4:	f9 81       	ldd	r31, Y+1	; 0x01
     bc6:	cb 5c       	subi	r28, 0xCB	; 203
     bc8:	d0 40       	sbci	r29, 0x00	; 0
     bca:	ff ab       	std	Y+55, r31	; 0x37
     bcc:	ee ab       	std	Y+54, r30	; 0x36

00000bce <.L47>:
     bce:	8e a9       	ldd	r24, Y+54	; 0x36
     bd0:	9f a9       	ldd	r25, Y+55	; 0x37
     bd2:	9b af       	std	Y+59, r25	; 0x3b
     bd4:	8a af       	std	Y+58, r24	; 0x3a

00000bd6 <.LBB178>:
     bd6:	8a ad       	ldd	r24, Y+58	; 0x3a
     bd8:	9b ad       	ldd	r25, Y+59	; 0x3b

00000bda <.L1^B10>:
     bda:	01 97       	sbiw	r24, 0x01	; 1
     bdc:	f1 f7       	brne	.-4      	; 0xbda <.L1^B10>
     bde:	9b af       	std	Y+59, r25	; 0x3b
     be0:	8a af       	std	Y+58, r24	; 0x3a

00000be2 <.Loc.97>:
}
     be2:	43 c0       	rjmp	.+134    	; 0xc6a <.L42>

00000be4 <.L97>:
	else if (__tmp > 255)
     be4:	20 e0       	ldi	r18, 0x00	; 0
     be6:	30 e0       	ldi	r19, 0x00	; 0
     be8:	4f e7       	ldi	r20, 0x7F	; 127
     bea:	53 e4       	ldi	r21, 0x43	; 67
     bec:	6d a1       	ldd	r22, Y+37	; 0x25
     bee:	7e a1       	ldd	r23, Y+38	; 0x26
     bf0:	8f a1       	ldd	r24, Y+39	; 0x27
     bf2:	98 a5       	ldd	r25, Y+40	; 0x28
     bf4:	0e 94 9b 32 	call	0x6536	; 0x6536 <__gesf2>
     bf8:	88 23       	and	r24, r24
     bfa:	19 f1       	breq	.+70     	; 0xc42 <.L100>
     bfc:	14 f1       	brlt	.+68     	; 0xc42 <.L100>

00000bfe <.LBB180>:
		uint16_t __ticks=(uint16_t)__tmp2;
     bfe:	69 a5       	ldd	r22, Y+41	; 0x29
     c00:	7a a5       	ldd	r23, Y+42	; 0x2a
     c02:	8b a5       	ldd	r24, Y+43	; 0x2b
     c04:	9c a5       	ldd	r25, Y+44	; 0x2c
     c06:	0e 94 ba 31 	call	0x6374	; 0x6374 <__fixunssfsi>
     c0a:	c1 53       	subi	r28, 0x31	; 49
     c0c:	df 4f       	sbci	r29, 0xFF	; 255
     c0e:	68 83       	st	Y, r22
     c10:	79 83       	std	Y+1, r23	; 0x01
     c12:	8a 83       	std	Y+2, r24	; 0x02
     c14:	9b 83       	std	Y+3, r25	; 0x03
     c16:	cf 5c       	subi	r28, 0xCF	; 207
     c18:	d0 40       	sbci	r29, 0x00	; 0
     c1a:	c1 53       	subi	r28, 0x31	; 49
     c1c:	df 4f       	sbci	r29, 0xFF	; 255
     c1e:	88 81       	ld	r24, Y
     c20:	99 81       	ldd	r25, Y+1	; 0x01
     c22:	cf 5c       	subi	r28, 0xCF	; 207
     c24:	d0 40       	sbci	r29, 0x00	; 0
     c26:	9d af       	std	Y+61, r25	; 0x3d
     c28:	8c af       	std	Y+60, r24	; 0x3c
     c2a:	8c ad       	ldd	r24, Y+60	; 0x3c
     c2c:	9d ad       	ldd	r25, Y+61	; 0x3d
     c2e:	9f af       	std	Y+63, r25	; 0x3f
     c30:	8e af       	std	Y+62, r24	; 0x3e

00000c32 <.LBB181>:
	__asm__ volatile (
     c32:	8e ad       	ldd	r24, Y+62	; 0x3e
     c34:	9f ad       	ldd	r25, Y+63	; 0x3f

00000c36 <.L1^B11>:
     c36:	01 97       	sbiw	r24, 0x01	; 1
     c38:	f1 f7       	brne	.-4      	; 0xc36 <.L1^B11>
     c3a:	9f af       	std	Y+63, r25	; 0x3f
     c3c:	8e af       	std	Y+62, r24	; 0x3e

00000c3e <.Loc.101>:
	...

00000c40 <.LBE181>:
		return;
     c40:	28 c0       	rjmp	.+80     	; 0xc92 <.L55>

00000c42 <.L100>:
		__ticks = (uint8_t)__tmp;
     c42:	6d a1       	ldd	r22, Y+37	; 0x25
     c44:	7e a1       	ldd	r23, Y+38	; 0x26
     c46:	8f a1       	ldd	r24, Y+39	; 0x27
     c48:	98 a5       	ldd	r25, Y+40	; 0x28
     c4a:	0e 94 ba 31 	call	0x6374	; 0x6374 <__fixunssfsi>
     c4e:	cd 52       	subi	r28, 0x2D	; 45
     c50:	df 4f       	sbci	r29, 0xFF	; 255
     c52:	68 83       	st	Y, r22
     c54:	79 83       	std	Y+1, r23	; 0x01
     c56:	8a 83       	std	Y+2, r24	; 0x02
     c58:	9b 83       	std	Y+3, r25	; 0x03
     c5a:	c3 5d       	subi	r28, 0xD3	; 211
     c5c:	d0 40       	sbci	r29, 0x00	; 0
     c5e:	cd 52       	subi	r28, 0x2D	; 45
     c60:	df 4f       	sbci	r29, 0xFF	; 255
     c62:	98 81       	ld	r25, Y
     c64:	c3 5d       	subi	r28, 0xD3	; 211
     c66:	d0 40       	sbci	r29, 0x00	; 0
     c68:	9d a7       	std	Y+45, r25	; 0x2d

00000c6a <.L42>:
     c6a:	2d a5       	ldd	r18, Y+45	; 0x2d
     c6c:	ce 01       	movw	r24, r28
     c6e:	80 5c       	subi	r24, 0xC0	; 192
     c70:	9f 4f       	sbci	r25, 0xFF	; 255
     c72:	dc 01       	movw	r26, r24
     c74:	2c 93       	st	X, r18

00000c76 <.LBB183>:
	__asm__ volatile (
     c76:	ce 01       	movw	r24, r28
     c78:	80 5c       	subi	r24, 0xC0	; 192
     c7a:	9f 4f       	sbci	r25, 0xFF	; 255
     c7c:	fc 01       	movw	r30, r24
     c7e:	80 81       	ld	r24, Z
     c80:	28 2f       	mov	r18, r24

00000c82 <.L1^B12>:
     c82:	2a 95       	dec	r18
     c84:	f1 f7       	brne	.-4      	; 0xc82 <.L1^B12>
     c86:	ce 01       	movw	r24, r28
     c88:	80 5c       	subi	r24, 0xC0	; 192
     c8a:	9f 4f       	sbci	r25, 0xFF	; 255
     c8c:	dc 01       	movw	r26, r24
     c8e:	2c 93       	st	X, r18

00000c90 <.Loc.105>:
	...

00000c92 <.L55>:
	_delay_us(200);						// Delay of 200 us

	lcd_write_4(lcd_FunctionReset);		// Third part of reset sequence
     c92:	80 e3       	ldi	r24, 0x30	; 48
     c94:	0e 94 32 09 	call	0x1264	; 0x1264 <lcd_write_4>
     c98:	80 e0       	ldi	r24, 0x00	; 0
     c9a:	90 e0       	ldi	r25, 0x00	; 0
     c9c:	a0 ea       	ldi	r26, 0xA0	; 160
     c9e:	b2 e4       	ldi	r27, 0x42	; 66
     ca0:	89 83       	std	Y+1, r24	; 0x01
     ca2:	9a 83       	std	Y+2, r25	; 0x02
     ca4:	ab 83       	std	Y+3, r26	; 0x03
     ca6:	bc 83       	std	Y+4, r27	; 0x04

00000ca8 <.LBB185>:
	__tmp = ((F_CPU) / 3e6) * __us;
     ca8:	2b ea       	ldi	r18, 0xAB	; 171
     caa:	3a ea       	ldi	r19, 0xAA	; 170
     cac:	4a ea       	ldi	r20, 0xAA	; 170
     cae:	50 e4       	ldi	r21, 0x40	; 64
     cb0:	69 81       	ldd	r22, Y+1	; 0x01
     cb2:	7a 81       	ldd	r23, Y+2	; 0x02
     cb4:	8b 81       	ldd	r24, Y+3	; 0x03
     cb6:	9c 81       	ldd	r25, Y+4	; 0x04
     cb8:	0e 94 a0 32 	call	0x6540	; 0x6540 <__mulsf3>
     cbc:	c9 52       	subi	r28, 0x29	; 41
     cbe:	df 4f       	sbci	r29, 0xFF	; 255
     cc0:	68 83       	st	Y, r22
     cc2:	79 83       	std	Y+1, r23	; 0x01
     cc4:	8a 83       	std	Y+2, r24	; 0x02
     cc6:	9b 83       	std	Y+3, r25	; 0x03
     cc8:	c7 5d       	subi	r28, 0xD7	; 215
     cca:	d0 40       	sbci	r29, 0x00	; 0
     ccc:	c9 52       	subi	r28, 0x29	; 41
     cce:	df 4f       	sbci	r29, 0xFF	; 255
     cd0:	88 81       	ld	r24, Y
     cd2:	99 81       	ldd	r25, Y+1	; 0x01
     cd4:	aa 81       	ldd	r26, Y+2	; 0x02
     cd6:	bb 81       	ldd	r27, Y+3	; 0x03
     cd8:	c7 5d       	subi	r28, 0xD7	; 215
     cda:	d0 40       	sbci	r29, 0x00	; 0
     cdc:	8d 83       	std	Y+5, r24	; 0x05
     cde:	9e 83       	std	Y+6, r25	; 0x06
     ce0:	af 83       	std	Y+7, r26	; 0x07
     ce2:	b8 87       	std	Y+8, r27	; 0x08

00000ce4 <.Loc.108>:
	__tmp2 = ((F_CPU) / 4e6) * __us;
     ce4:	20 e0       	ldi	r18, 0x00	; 0
     ce6:	30 e0       	ldi	r19, 0x00	; 0
     ce8:	40 e8       	ldi	r20, 0x80	; 128
     cea:	50 e4       	ldi	r21, 0x40	; 64
     cec:	69 81       	ldd	r22, Y+1	; 0x01
     cee:	7a 81       	ldd	r23, Y+2	; 0x02
     cf0:	8b 81       	ldd	r24, Y+3	; 0x03
     cf2:	9c 81       	ldd	r25, Y+4	; 0x04
     cf4:	0e 94 a0 32 	call	0x6540	; 0x6540 <__mulsf3>
     cf8:	c5 52       	subi	r28, 0x25	; 37
     cfa:	df 4f       	sbci	r29, 0xFF	; 255
     cfc:	68 83       	st	Y, r22
     cfe:	79 83       	std	Y+1, r23	; 0x01
     d00:	8a 83       	std	Y+2, r24	; 0x02
     d02:	9b 83       	std	Y+3, r25	; 0x03
     d04:	cb 5d       	subi	r28, 0xDB	; 219
     d06:	d0 40       	sbci	r29, 0x00	; 0
     d08:	c5 52       	subi	r28, 0x25	; 37
     d0a:	df 4f       	sbci	r29, 0xFF	; 255
     d0c:	88 81       	ld	r24, Y
     d0e:	99 81       	ldd	r25, Y+1	; 0x01
     d10:	aa 81       	ldd	r26, Y+2	; 0x02
     d12:	bb 81       	ldd	r27, Y+3	; 0x03
     d14:	cb 5d       	subi	r28, 0xDB	; 219
     d16:	d0 40       	sbci	r29, 0x00	; 0
     d18:	89 87       	std	Y+9, r24	; 0x09
     d1a:	9a 87       	std	Y+10, r25	; 0x0a
     d1c:	ab 87       	std	Y+11, r26	; 0x0b
     d1e:	bc 87       	std	Y+12, r27	; 0x0c

00000d20 <.Loc.109>:
	if (__tmp < 1.0)
     d20:	20 e0       	ldi	r18, 0x00	; 0
     d22:	30 e0       	ldi	r19, 0x00	; 0
     d24:	40 e8       	ldi	r20, 0x80	; 128
     d26:	5f e3       	ldi	r21, 0x3F	; 63
     d28:	6d 81       	ldd	r22, Y+5	; 0x05
     d2a:	7e 81       	ldd	r23, Y+6	; 0x06
     d2c:	8f 81       	ldd	r24, Y+7	; 0x07
     d2e:	98 85       	ldd	r25, Y+8	; 0x08
     d30:	0e 94 3c 31 	call	0x6278	; 0x6278 <__cmpsf2>
     d34:	88 23       	and	r24, r24
     d36:	1c f4       	brge	.+6      	; 0xd3e <.L101>

00000d38 <.Loc.110>:
		__ticks = 1;
     d38:	81 e0       	ldi	r24, 0x01	; 1
     d3a:	8d 87       	std	Y+13, r24	; 0x0d
     d3c:	1b c1       	rjmp	.+566    	; 0xf74 <.L58>

00000d3e <.L101>:
	else if (__tmp2 > 65535)
     d3e:	20 e0       	ldi	r18, 0x00	; 0
     d40:	3f ef       	ldi	r19, 0xFF	; 255
     d42:	4f e7       	ldi	r20, 0x7F	; 127
     d44:	57 e4       	ldi	r21, 0x47	; 71
     d46:	69 85       	ldd	r22, Y+9	; 0x09
     d48:	7a 85       	ldd	r23, Y+10	; 0x0a
     d4a:	8b 85       	ldd	r24, Y+11	; 0x0b
     d4c:	9c 85       	ldd	r25, Y+12	; 0x0c
     d4e:	0e 94 9b 32 	call	0x6536	; 0x6536 <__gesf2>
     d52:	88 23       	and	r24, r24
     d54:	09 f0       	breq	.+2      	; 0xd58 <L0^A>

00000d56 <L0^A>:
     d56:	0c f4       	brge	.+2      	; 0xd5a <.Loc.112>

00000d58 <L0^A>:
     d58:	ca c0       	rjmp	.+404    	; 0xeee <.L102>

00000d5a <.Loc.112>:
		_delay_ms(__us / 1000.0);
     d5a:	20 e0       	ldi	r18, 0x00	; 0
     d5c:	30 e0       	ldi	r19, 0x00	; 0
     d5e:	4a e7       	ldi	r20, 0x7A	; 122
     d60:	54 e4       	ldi	r21, 0x44	; 68
     d62:	69 81       	ldd	r22, Y+1	; 0x01
     d64:	7a 81       	ldd	r23, Y+2	; 0x02
     d66:	8b 81       	ldd	r24, Y+3	; 0x03
     d68:	9c 81       	ldd	r25, Y+4	; 0x04
     d6a:	0e 94 41 31 	call	0x6282	; 0x6282 <__divsf3>
     d6e:	c1 52       	subi	r28, 0x21	; 33
     d70:	df 4f       	sbci	r29, 0xFF	; 255
     d72:	68 83       	st	Y, r22
     d74:	79 83       	std	Y+1, r23	; 0x01
     d76:	8a 83       	std	Y+2, r24	; 0x02
     d78:	9b 83       	std	Y+3, r25	; 0x03
     d7a:	cf 5d       	subi	r28, 0xDF	; 223
     d7c:	d0 40       	sbci	r29, 0x00	; 0
     d7e:	c1 52       	subi	r28, 0x21	; 33
     d80:	df 4f       	sbci	r29, 0xFF	; 255
     d82:	88 81       	ld	r24, Y
     d84:	99 81       	ldd	r25, Y+1	; 0x01
     d86:	aa 81       	ldd	r26, Y+2	; 0x02
     d88:	bb 81       	ldd	r27, Y+3	; 0x03
     d8a:	cf 5d       	subi	r28, 0xDF	; 223
     d8c:	d0 40       	sbci	r29, 0x00	; 0
     d8e:	8e 87       	std	Y+14, r24	; 0x0e
     d90:	9f 87       	std	Y+15, r25	; 0x0f
     d92:	a8 8b       	std	Y+16, r26	; 0x10
     d94:	b9 8b       	std	Y+17, r27	; 0x11

00000d96 <.LBB187>:
	__tmp = ((F_CPU) / 4e3) * __ms;
     d96:	20 e0       	ldi	r18, 0x00	; 0
     d98:	30 e0       	ldi	r19, 0x00	; 0
     d9a:	4a e7       	ldi	r20, 0x7A	; 122
     d9c:	55 e4       	ldi	r21, 0x45	; 69
     d9e:	6e 85       	ldd	r22, Y+14	; 0x0e
     da0:	7f 85       	ldd	r23, Y+15	; 0x0f
     da2:	88 89       	ldd	r24, Y+16	; 0x10
     da4:	99 89       	ldd	r25, Y+17	; 0x11
     da6:	0e 94 a0 32 	call	0x6540	; 0x6540 <__mulsf3>
     daa:	cd 51       	subi	r28, 0x1D	; 29
     dac:	df 4f       	sbci	r29, 0xFF	; 255
     dae:	68 83       	st	Y, r22
     db0:	79 83       	std	Y+1, r23	; 0x01
     db2:	8a 83       	std	Y+2, r24	; 0x02
     db4:	9b 83       	std	Y+3, r25	; 0x03
     db6:	c3 5e       	subi	r28, 0xE3	; 227
     db8:	d0 40       	sbci	r29, 0x00	; 0
     dba:	cd 51       	subi	r28, 0x1D	; 29
     dbc:	df 4f       	sbci	r29, 0xFF	; 255
     dbe:	88 81       	ld	r24, Y
     dc0:	99 81       	ldd	r25, Y+1	; 0x01
     dc2:	aa 81       	ldd	r26, Y+2	; 0x02
     dc4:	bb 81       	ldd	r27, Y+3	; 0x03
     dc6:	c3 5e       	subi	r28, 0xE3	; 227
     dc8:	d0 40       	sbci	r29, 0x00	; 0
     dca:	8a 8b       	std	Y+18, r24	; 0x12
     dcc:	9b 8b       	std	Y+19, r25	; 0x13
     dce:	ac 8b       	std	Y+20, r26	; 0x14
     dd0:	bd 8b       	std	Y+21, r27	; 0x15

00000dd2 <.Loc.114>:
	if (__tmp < 1.0)
     dd2:	20 e0       	ldi	r18, 0x00	; 0
     dd4:	30 e0       	ldi	r19, 0x00	; 0
     dd6:	40 e8       	ldi	r20, 0x80	; 128
     dd8:	5f e3       	ldi	r21, 0x3F	; 63
     dda:	6a 89       	ldd	r22, Y+18	; 0x12
     ddc:	7b 89       	ldd	r23, Y+19	; 0x13
     dde:	8c 89       	ldd	r24, Y+20	; 0x14
     de0:	9d 89       	ldd	r25, Y+21	; 0x15
     de2:	0e 94 3c 31 	call	0x6278	; 0x6278 <__cmpsf2>
     de6:	88 23       	and	r24, r24
     de8:	2c f4       	brge	.+10     	; 0xdf4 <.L103>

00000dea <.Loc.115>:
		__ticks = 1;
     dea:	81 e0       	ldi	r24, 0x01	; 1
     dec:	90 e0       	ldi	r25, 0x00	; 0
     dee:	9f 8b       	std	Y+23, r25	; 0x17
     df0:	8e 8b       	std	Y+22, r24	; 0x16
     df2:	72 c0       	rjmp	.+228    	; 0xed8 <.L63>

00000df4 <.L103>:
	else if (__tmp > 65535)
     df4:	20 e0       	ldi	r18, 0x00	; 0
     df6:	3f ef       	ldi	r19, 0xFF	; 255
     df8:	4f e7       	ldi	r20, 0x7F	; 127
     dfa:	57 e4       	ldi	r21, 0x47	; 71
     dfc:	6a 89       	ldd	r22, Y+18	; 0x12
     dfe:	7b 89       	ldd	r23, Y+19	; 0x13
     e00:	8c 89       	ldd	r24, Y+20	; 0x14
     e02:	9d 89       	ldd	r25, Y+21	; 0x15
     e04:	0e 94 9b 32 	call	0x6536	; 0x6536 <__gesf2>
     e08:	88 23       	and	r24, r24
     e0a:	09 f0       	breq	.+2      	; 0xe0e <L0^A>

00000e0c <L0^A>:
     e0c:	0c f4       	brge	.+2      	; 0xe10 <.Loc.117>

00000e0e <L0^A>:
     e0e:	4e c0       	rjmp	.+156    	; 0xeac <.L104>

00000e10 <.Loc.117>:
		__ticks = (uint16_t) (__ms * 10.0);
     e10:	20 e0       	ldi	r18, 0x00	; 0
     e12:	30 e0       	ldi	r19, 0x00	; 0
     e14:	40 e2       	ldi	r20, 0x20	; 32
     e16:	51 e4       	ldi	r21, 0x41	; 65
     e18:	6e 85       	ldd	r22, Y+14	; 0x0e
     e1a:	7f 85       	ldd	r23, Y+15	; 0x0f
     e1c:	88 89       	ldd	r24, Y+16	; 0x10
     e1e:	99 89       	ldd	r25, Y+17	; 0x11
     e20:	0e 94 a0 32 	call	0x6540	; 0x6540 <__mulsf3>
     e24:	c9 51       	subi	r28, 0x19	; 25
     e26:	df 4f       	sbci	r29, 0xFF	; 255
     e28:	68 83       	st	Y, r22
     e2a:	79 83       	std	Y+1, r23	; 0x01
     e2c:	8a 83       	std	Y+2, r24	; 0x02
     e2e:	9b 83       	std	Y+3, r25	; 0x03
     e30:	c7 5e       	subi	r28, 0xE7	; 231
     e32:	d0 40       	sbci	r29, 0x00	; 0
     e34:	c9 51       	subi	r28, 0x19	; 25
     e36:	df 4f       	sbci	r29, 0xFF	; 255
     e38:	88 81       	ld	r24, Y
     e3a:	99 81       	ldd	r25, Y+1	; 0x01
     e3c:	aa 81       	ldd	r26, Y+2	; 0x02
     e3e:	bb 81       	ldd	r27, Y+3	; 0x03
     e40:	c7 5e       	subi	r28, 0xE7	; 231
     e42:	d0 40       	sbci	r29, 0x00	; 0
     e44:	e3 96       	adiw	r28, 0x33	; 51
     e46:	8c af       	std	Y+60, r24	; 0x3c
     e48:	9d af       	std	Y+61, r25	; 0x3d
     e4a:	ae af       	std	Y+62, r26	; 0x3e
     e4c:	bf af       	std	Y+63, r27	; 0x3f
     e4e:	e3 97       	sbiw	r28, 0x33	; 51

00000e50 <.Loc.118>:
     e50:	e3 96       	adiw	r28, 0x33	; 51
     e52:	6c ad       	ldd	r22, Y+60	; 0x3c
     e54:	7d ad       	ldd	r23, Y+61	; 0x3d
     e56:	8e ad       	ldd	r24, Y+62	; 0x3e
     e58:	9f ad       	ldd	r25, Y+63	; 0x3f
     e5a:	e3 97       	sbiw	r28, 0x33	; 51
     e5c:	0e 94 ba 31 	call	0x6374	; 0x6374 <__fixunssfsi>
     e60:	c5 51       	subi	r28, 0x15	; 21
     e62:	df 4f       	sbci	r29, 0xFF	; 255
     e64:	68 83       	st	Y, r22
     e66:	79 83       	std	Y+1, r23	; 0x01
     e68:	8a 83       	std	Y+2, r24	; 0x02
     e6a:	9b 83       	std	Y+3, r25	; 0x03
     e6c:	cb 5e       	subi	r28, 0xEB	; 235
     e6e:	d0 40       	sbci	r29, 0x00	; 0
     e70:	c5 51       	subi	r28, 0x15	; 21
     e72:	df 4f       	sbci	r29, 0xFF	; 255
     e74:	a8 81       	ld	r26, Y
     e76:	b9 81       	ldd	r27, Y+1	; 0x01
     e78:	cb 5e       	subi	r28, 0xEB	; 235
     e7a:	d0 40       	sbci	r29, 0x00	; 0
     e7c:	bf 8b       	std	Y+23, r27	; 0x17
     e7e:	ae 8b       	std	Y+22, r26	; 0x16

00000e80 <.Loc.119>:
		while(__ticks)
     e80:	10 c0       	rjmp	.+32     	; 0xea2 <.L66>

00000e82 <.L67>:
     e82:	80 e9       	ldi	r24, 0x90	; 144
     e84:	91 e0       	ldi	r25, 0x01	; 1
     e86:	99 8f       	std	Y+25, r25	; 0x19
     e88:	88 8f       	std	Y+24, r24	; 0x18

00000e8a <.LBB189>:
	__asm__ volatile (
     e8a:	88 8d       	ldd	r24, Y+24	; 0x18
     e8c:	99 8d       	ldd	r25, Y+25	; 0x19

00000e8e <.L1^B13>:
     e8e:	01 97       	sbiw	r24, 0x01	; 1
     e90:	f1 f7       	brne	.-4      	; 0xe8e <.L1^B13>
     e92:	99 8f       	std	Y+25, r25	; 0x19
     e94:	88 8f       	std	Y+24, r24	; 0x18

00000e96 <.Loc.121>:
	...

00000e98 <.LBE189>:
			__ticks --;
     e98:	8e 89       	ldd	r24, Y+22	; 0x16
     e9a:	9f 89       	ldd	r25, Y+23	; 0x17
     e9c:	01 97       	sbiw	r24, 0x01	; 1
     e9e:	9f 8b       	std	Y+23, r25	; 0x17
     ea0:	8e 8b       	std	Y+22, r24	; 0x16

00000ea2 <.L66>:
		while(__ticks)
     ea2:	8e 89       	ldd	r24, Y+22	; 0x16
     ea4:	9f 89       	ldd	r25, Y+23	; 0x17
     ea6:	00 97       	sbiw	r24, 0x00	; 0
     ea8:	61 f7       	brne	.-40     	; 0xe82 <.L67>

00000eaa <.Loc.124>:
		return;
     eaa:	64 c0       	rjmp	.+200    	; 0xf74 <.L58>

00000eac <.L104>:
		__ticks = (uint16_t)__tmp;
     eac:	6a 89       	ldd	r22, Y+18	; 0x12
     eae:	7b 89       	ldd	r23, Y+19	; 0x13
     eb0:	8c 89       	ldd	r24, Y+20	; 0x14
     eb2:	9d 89       	ldd	r25, Y+21	; 0x15
     eb4:	0e 94 ba 31 	call	0x6374	; 0x6374 <__fixunssfsi>
     eb8:	c1 51       	subi	r28, 0x11	; 17
     eba:	df 4f       	sbci	r29, 0xFF	; 255
     ebc:	68 83       	st	Y, r22
     ebe:	79 83       	std	Y+1, r23	; 0x01
     ec0:	8a 83       	std	Y+2, r24	; 0x02
     ec2:	9b 83       	std	Y+3, r25	; 0x03
     ec4:	cf 5e       	subi	r28, 0xEF	; 239
     ec6:	d0 40       	sbci	r29, 0x00	; 0
     ec8:	c1 51       	subi	r28, 0x11	; 17
     eca:	df 4f       	sbci	r29, 0xFF	; 255
     ecc:	e8 81       	ld	r30, Y
     ece:	f9 81       	ldd	r31, Y+1	; 0x01
     ed0:	cf 5e       	subi	r28, 0xEF	; 239
     ed2:	d0 40       	sbci	r29, 0x00	; 0
     ed4:	ff 8b       	std	Y+23, r31	; 0x17
     ed6:	ee 8b       	std	Y+22, r30	; 0x16

00000ed8 <.L63>:
     ed8:	8e 89       	ldd	r24, Y+22	; 0x16
     eda:	9f 89       	ldd	r25, Y+23	; 0x17
     edc:	9b 8f       	std	Y+27, r25	; 0x1b
     ede:	8a 8f       	std	Y+26, r24	; 0x1a

00000ee0 <.LBB191>:
     ee0:	8a 8d       	ldd	r24, Y+26	; 0x1a
     ee2:	9b 8d       	ldd	r25, Y+27	; 0x1b

00000ee4 <.L1^B14>:
     ee4:	01 97       	sbiw	r24, 0x01	; 1
     ee6:	f1 f7       	brne	.-4      	; 0xee4 <.L1^B14>
     ee8:	9b 8f       	std	Y+27, r25	; 0x1b
     eea:	8a 8f       	std	Y+26, r24	; 0x1a

00000eec <.Loc.127>:
}
     eec:	43 c0       	rjmp	.+134    	; 0xf74 <.L58>

00000eee <.L102>:
	else if (__tmp > 255)
     eee:	20 e0       	ldi	r18, 0x00	; 0
     ef0:	30 e0       	ldi	r19, 0x00	; 0
     ef2:	4f e7       	ldi	r20, 0x7F	; 127
     ef4:	53 e4       	ldi	r21, 0x43	; 67
     ef6:	6d 81       	ldd	r22, Y+5	; 0x05
     ef8:	7e 81       	ldd	r23, Y+6	; 0x06
     efa:	8f 81       	ldd	r24, Y+7	; 0x07
     efc:	98 85       	ldd	r25, Y+8	; 0x08
     efe:	0e 94 9b 32 	call	0x6536	; 0x6536 <__gesf2>
     f02:	88 23       	and	r24, r24
     f04:	19 f1       	breq	.+70     	; 0xf4c <.L105>
     f06:	14 f1       	brlt	.+68     	; 0xf4c <.L105>

00000f08 <.LBB193>:
		uint16_t __ticks=(uint16_t)__tmp2;
     f08:	69 85       	ldd	r22, Y+9	; 0x09
     f0a:	7a 85       	ldd	r23, Y+10	; 0x0a
     f0c:	8b 85       	ldd	r24, Y+11	; 0x0b
     f0e:	9c 85       	ldd	r25, Y+12	; 0x0c
     f10:	0e 94 ba 31 	call	0x6374	; 0x6374 <__fixunssfsi>
     f14:	cd 50       	subi	r28, 0x0D	; 13
     f16:	df 4f       	sbci	r29, 0xFF	; 255
     f18:	68 83       	st	Y, r22
     f1a:	79 83       	std	Y+1, r23	; 0x01
     f1c:	8a 83       	std	Y+2, r24	; 0x02
     f1e:	9b 83       	std	Y+3, r25	; 0x03
     f20:	c3 5f       	subi	r28, 0xF3	; 243
     f22:	d0 40       	sbci	r29, 0x00	; 0
     f24:	cd 50       	subi	r28, 0x0D	; 13
     f26:	df 4f       	sbci	r29, 0xFF	; 255
     f28:	88 81       	ld	r24, Y
     f2a:	99 81       	ldd	r25, Y+1	; 0x01
     f2c:	c3 5f       	subi	r28, 0xF3	; 243
     f2e:	d0 40       	sbci	r29, 0x00	; 0
     f30:	9d 8f       	std	Y+29, r25	; 0x1d
     f32:	8c 8f       	std	Y+28, r24	; 0x1c
     f34:	8c 8d       	ldd	r24, Y+28	; 0x1c
     f36:	9d 8d       	ldd	r25, Y+29	; 0x1d
     f38:	9f 8f       	std	Y+31, r25	; 0x1f
     f3a:	8e 8f       	std	Y+30, r24	; 0x1e

00000f3c <.LBB194>:
	__asm__ volatile (
     f3c:	8e 8d       	ldd	r24, Y+30	; 0x1e
     f3e:	9f 8d       	ldd	r25, Y+31	; 0x1f

00000f40 <.L1^B15>:
     f40:	01 97       	sbiw	r24, 0x01	; 1
     f42:	f1 f7       	brne	.-4      	; 0xf40 <.L1^B15>
     f44:	9f 8f       	std	Y+31, r25	; 0x1f
     f46:	8e 8f       	std	Y+30, r24	; 0x1e

00000f48 <.Loc.131>:
	...

00000f4a <.LBE194>:
		return;
     f4a:	1b c0       	rjmp	.+54     	; 0xf82 <.L71>

00000f4c <.L105>:
		__ticks = (uint8_t)__tmp;
     f4c:	6d 81       	ldd	r22, Y+5	; 0x05
     f4e:	7e 81       	ldd	r23, Y+6	; 0x06
     f50:	8f 81       	ldd	r24, Y+7	; 0x07
     f52:	98 85       	ldd	r25, Y+8	; 0x08
     f54:	0e 94 ba 31 	call	0x6374	; 0x6374 <__fixunssfsi>
     f58:	c9 50       	subi	r28, 0x09	; 9
     f5a:	df 4f       	sbci	r29, 0xFF	; 255
     f5c:	68 83       	st	Y, r22
     f5e:	79 83       	std	Y+1, r23	; 0x01
     f60:	8a 83       	std	Y+2, r24	; 0x02
     f62:	9b 83       	std	Y+3, r25	; 0x03
     f64:	c7 5f       	subi	r28, 0xF7	; 247
     f66:	d0 40       	sbci	r29, 0x00	; 0
     f68:	c9 50       	subi	r28, 0x09	; 9
     f6a:	df 4f       	sbci	r29, 0xFF	; 255
     f6c:	98 81       	ld	r25, Y
     f6e:	c7 5f       	subi	r28, 0xF7	; 247
     f70:	d0 40       	sbci	r29, 0x00	; 0
     f72:	9d 87       	std	Y+13, r25	; 0x0d

00000f74 <.L58>:
     f74:	8d 85       	ldd	r24, Y+13	; 0x0d
     f76:	88 a3       	std	Y+32, r24	; 0x20

00000f78 <.LBB196>:
	__asm__ volatile (
     f78:	88 a1       	ldd	r24, Y+32	; 0x20

00000f7a <.L1^B16>:
     f7a:	8a 95       	dec	r24
     f7c:	f1 f7       	brne	.-4      	; 0xf7a <.L1^B16>
     f7e:	88 a3       	std	Y+32, r24	; 0x20

00000f80 <.Loc.135>:
	...

00000f82 <.L71>:
	/* Preliminary Function Set instruction - used only to set the 4-bit mode.
	 The number of lines or the font cannot be set at this time since the controller is still in the
	 8-bit mode, but the data transfer mode can be changed since this parameter is determined by one
	 of the upper four bits of the instruction. */

	lcd_write_4(lcd_FunctionSet4bit);	// Set 4-bit mode
     f82:	88 e2       	ldi	r24, 0x28	; 40
     f84:	0e 94 32 09 	call	0x1264	; 0x1264 <lcd_write_4>

00000f88 <.Loc.137>:
	// From this point on the busy flag is available

	// Function Set instruction
	lcd_check_BF_4();    // Makes sure LCD controller is ready
     f88:	0e 94 ca 0c 	call	0x1994	; 0x1994 <lcd_check_BF_4>

00000f8c <.Loc.138>:

	lcd_write_instruction_4f(lcd_FunctionSet4bit);  // Set mode, lines, and font
     f8c:	88 e2       	ldi	r24, 0x28	; 40
     f8e:	0e 94 04 09 	call	0x1208	; 0x1208 <lcd_write_instruction_4f>

00000f92 <.Loc.139>:
	/*The next three instructions are specified in the data sheet as part of the initialization routine,
	  so it is a good idea (but probably not necessary) to do them just as specified and then redo them
	  later if the application requires a different configuration.*/

	/* Display On/Off Control instruction */
	lcd_check_BF_4();
     f92:	0e 94 ca 0c 	call	0x1994	; 0x1994 <lcd_check_BF_4>

00000f96 <.Loc.140>:
	lcd_write_instruction_4f(lcd_DisplayOff);       // Turn display OFF
     f96:	88 e0       	ldi	r24, 0x08	; 8
     f98:	0e 94 04 09 	call	0x1208	; 0x1208 <lcd_write_instruction_4f>

00000f9c <.Loc.141>:

	/* Clear Display instruction */
	lcd_check_BF_4();
     f9c:	0e 94 ca 0c 	call	0x1994	; 0x1994 <lcd_check_BF_4>

00000fa0 <.Loc.142>:
	lcd_write_instruction_4f(lcd_Clear);            // Clear display RAM
     fa0:	81 e0       	ldi	r24, 0x01	; 1
     fa2:	0e 94 04 09 	call	0x1208	; 0x1208 <lcd_write_instruction_4f>

00000fa6 <.Loc.143>:

	/* Entry Mode Set instruction */
	lcd_check_BF_4();
     fa6:	0e 94 ca 0c 	call	0x1994	; 0x1994 <lcd_check_BF_4>

00000faa <.Loc.144>:
	lcd_write_instruction_4f(lcd_EntryMode);        // Set desired shift characteristics
     faa:	86 e0       	ldi	r24, 0x06	; 6
     fac:	0e 94 04 09 	call	0x1208	; 0x1208 <lcd_write_instruction_4f>

00000fb0 <.Loc.145>:
	/*This is the end of the LCD controller initialization as specified in the data sheet, but the display
	  has been left in the OFF condition.  This is a good time to turn the display back ON. */

	/* Display On/Off Control instruction */
	lcd_check_BF_4();
     fb0:	0e 94 ca 0c 	call	0x1994	; 0x1994 <lcd_check_BF_4>

00000fb4 <.Loc.146>:
	lcd_write_instruction_4f(lcd_DisplayOn);        // turn the display ON
     fb4:	8c e0       	ldi	r24, 0x0C	; 12
     fb6:	0e 94 04 09 	call	0x1208	; 0x1208 <lcd_write_instruction_4f>

00000fba <.Loc.147>:
}
     fba:	00 00       	nop
     fbc:	c6 50       	subi	r28, 0x06	; 6
     fbe:	df 4f       	sbci	r29, 0xFF	; 255
     fc0:	0f b6       	in	r0, 0x3f	; 63
     fc2:	f8 94       	cli
     fc4:	de bf       	out	0x3e, r29	; 62
     fc6:	0f be       	out	0x3f, r0	; 63
     fc8:	cd bf       	out	0x3d, r28	; 61
     fca:	df 91       	pop	r29
     fcc:	cf 91       	pop	r28
     fce:	1f 91       	pop	r17
     fd0:	0f 91       	pop	r16
     fd2:	08 95       	ret

00000fd4 <updateLCDScreen>:
Inputs:		two pointers to a uint8 type data and 2 values, one for each row
Outputs:	none
Description:commands writing on LCD line by line
******************************************************************** */
void updateLCDScreen(uint8_t row, char * s1, int data, char * s2)
{
     fd4:	cf 93       	push	r28
     fd6:	df 93       	push	r29
     fd8:	cd b7       	in	r28, 0x3d	; 61
     fda:	de b7       	in	r29, 0x3e	; 62
     fdc:	af 97       	sbiw	r28, 0x2f	; 47
     fde:	0f b6       	in	r0, 0x3f	; 63
     fe0:	f8 94       	cli
     fe2:	de bf       	out	0x3e, r29	; 62
     fe4:	0f be       	out	0x3f, r0	; 63
     fe6:	cd bf       	out	0x3d, r28	; 61
     fe8:	89 a7       	std	Y+41, r24	; 0x29
     fea:	7b a7       	std	Y+43, r23	; 0x2b
     fec:	6a a7       	std	Y+42, r22	; 0x2a
     fee:	5d a7       	std	Y+45, r21	; 0x2d
     ff0:	4c a7       	std	Y+44, r20	; 0x2c
     ff2:	3f a7       	std	Y+47, r19	; 0x2f
     ff4:	2e a7       	std	Y+46, r18	; 0x2e

00000ff6 <.Loc.149>:
	/* convert data to string [buf] */
	char data2char[5] = "     ";
     ff6:	25 e0       	ldi	r18, 0x05	; 5
     ff8:	ec e1       	ldi	r30, 0x1C	; 28
     ffa:	f2 e0       	ldi	r31, 0x02	; 2
     ffc:	ce 01       	movw	r24, r28
     ffe:	01 96       	adiw	r24, 0x01	; 1
    1000:	dc 01       	movw	r26, r24

00001002 <.L^B1>:
    1002:	01 90       	ld	r0, Z+
    1004:	0d 92       	st	X+, r0
    1006:	2a 95       	dec	r18
    1008:	e1 f7       	brne	.-8      	; 0x1002 <.L^B1>

0000100a <.Loc.150>:
	char charRow[17];
	char emptyString[] = "                 ";	//17 empty spaces
    100a:	82 e1       	ldi	r24, 0x12	; 18
    100c:	e1 e2       	ldi	r30, 0x21	; 33
    100e:	f2 e0       	ldi	r31, 0x02	; 2
    1010:	de 01       	movw	r26, r28
    1012:	57 96       	adiw	r26, 0x17	; 23

00001014 <.L^B2>:
    1014:	01 90       	ld	r0, Z+
    1016:	0d 92       	st	X+, r0
    1018:	8a 95       	dec	r24
    101a:	e1 f7       	brne	.-8      	; 0x1014 <.L^B2>

0000101c <.Loc.151>:

	if (data != NONE)	{ itoa(data, data2char, 10);}
    101c:	8c a5       	ldd	r24, Y+44	; 0x2c
    101e:	9d a5       	ldd	r25, Y+45	; 0x2d
    1020:	8f 3f       	cpi	r24, 0xFF	; 255
    1022:	91 05       	cpc	r25, r1
    1024:	51 f0       	breq	.+20     	; 0x103a <.L107>

00001026 <.Loc.152>:
    1026:	8c a5       	ldd	r24, Y+44	; 0x2c
    1028:	9d a5       	ldd	r25, Y+45	; 0x2d
    102a:	4a e0       	ldi	r20, 0x0A	; 10
    102c:	50 e0       	ldi	r21, 0x00	; 0
    102e:	9e 01       	movw	r18, r28
    1030:	2f 5f       	subi	r18, 0xFF	; 255
    1032:	3f 4f       	sbci	r19, 0xFF	; 255
    1034:	b9 01       	movw	r22, r18
    1036:	0e 94 16 33 	call	0x662c	; 0x662c <itoa>

0000103a <.L107>:
	if (strcmp(s1, "NONE") == 0 ) { s1 = ""; }
    103a:	8a a5       	ldd	r24, Y+42	; 0x2a
    103c:	9b a5       	ldd	r25, Y+43	; 0x2b
    103e:	64 e0       	ldi	r22, 0x04	; 4
    1040:	72 e0       	ldi	r23, 0x02	; 2
    1042:	0e 94 0d 33 	call	0x661a	; 0x661a <strcmp>

00001046 <.Loc.154>:
    1046:	00 97       	sbiw	r24, 0x00	; 0
    1048:	21 f4       	brne	.+8      	; 0x1052 <.L108>

0000104a <.Loc.155>:
    104a:	89 e0       	ldi	r24, 0x09	; 9
    104c:	92 e0       	ldi	r25, 0x02	; 2
    104e:	9b a7       	std	Y+43, r25	; 0x2b
    1050:	8a a7       	std	Y+42, r24	; 0x2a

00001052 <.L108>:
	if (strcmp(s2, "NONE") == 0 ) { s2 = ""; }
    1052:	8e a5       	ldd	r24, Y+46	; 0x2e
    1054:	9f a5       	ldd	r25, Y+47	; 0x2f
    1056:	64 e0       	ldi	r22, 0x04	; 4
    1058:	72 e0       	ldi	r23, 0x02	; 2
    105a:	0e 94 0d 33 	call	0x661a	; 0x661a <strcmp>

0000105e <.Loc.157>:
    105e:	00 97       	sbiw	r24, 0x00	; 0
    1060:	21 f4       	brne	.+8      	; 0x106a <.L109>

00001062 <.Loc.158>:
    1062:	89 e0       	ldi	r24, 0x09	; 9
    1064:	92 e0       	ldi	r25, 0x02	; 2
    1066:	9f a7       	std	Y+47, r25	; 0x2f
    1068:	8e a7       	std	Y+46, r24	; 0x2e

0000106a <.L109>:

	/* Create the strings to be displayed */
	snprintf( charRow, sizeof charRow, "%s%s%s%s", s1, data2char, s2, emptyString );
    106a:	ce 01       	movw	r24, r28
    106c:	47 96       	adiw	r24, 0x17	; 23
    106e:	29 2f       	mov	r18, r25
    1070:	2f 93       	push	r18
    1072:	8f 93       	push	r24
    1074:	8f a5       	ldd	r24, Y+47	; 0x2f
    1076:	8f 93       	push	r24
    1078:	8e a5       	ldd	r24, Y+46	; 0x2e
    107a:	8f 93       	push	r24
    107c:	ce 01       	movw	r24, r28
    107e:	01 96       	adiw	r24, 0x01	; 1
    1080:	9f 93       	push	r25
    1082:	8f 93       	push	r24
    1084:	8b a5       	ldd	r24, Y+43	; 0x2b
    1086:	8f 93       	push	r24
    1088:	8a a5       	ldd	r24, Y+42	; 0x2a
    108a:	8f 93       	push	r24
    108c:	8a e0       	ldi	r24, 0x0A	; 10
    108e:	92 e0       	ldi	r25, 0x02	; 2
    1090:	89 2f       	mov	r24, r25
    1092:	8f 93       	push	r24
    1094:	8a e0       	ldi	r24, 0x0A	; 10
    1096:	92 e0       	ldi	r25, 0x02	; 2
    1098:	8f 93       	push	r24
    109a:	1f 92       	push	r1
    109c:	81 e1       	ldi	r24, 0x11	; 17
    109e:	8f 93       	push	r24
    10a0:	ce 01       	movw	r24, r28
    10a2:	06 96       	adiw	r24, 0x06	; 6
    10a4:	29 2f       	mov	r18, r25
    10a6:	2f 93       	push	r18
    10a8:	8f 93       	push	r24
    10aa:	0e 94 46 33 	call	0x668c	; 0x668c <snprintf>
    10ae:	8d b7       	in	r24, 0x3d	; 61
    10b0:	9e b7       	in	r25, 0x3e	; 62
    10b2:	0e 96       	adiw	r24, 0x0e	; 14
    10b4:	0f b6       	in	r0, 0x3f	; 63
    10b6:	f8 94       	cli
    10b8:	de bf       	out	0x3e, r29	; 62
    10ba:	0f be       	out	0x3f, r0	; 63
    10bc:	cd bf       	out	0x3d, r28	; 61

000010be <.Loc.160>:
	if (strcmp(s1, "CLEAR") == 0 ) { snprintf( charRow, sizeof charRow, "%s", emptyString ); };
    10be:	8a a5       	ldd	r24, Y+42	; 0x2a
    10c0:	9b a5       	ldd	r25, Y+43	; 0x2b
    10c2:	63 e1       	ldi	r22, 0x13	; 19
    10c4:	72 e0       	ldi	r23, 0x02	; 2
    10c6:	0e 94 0d 33 	call	0x661a	; 0x661a <strcmp>

000010ca <.Loc.161>:
    10ca:	00 97       	sbiw	r24, 0x00	; 0
    10cc:	f1 f4       	brne	.+60     	; 0x110a <.L110>

000010ce <.Loc.162>:
    10ce:	ce 01       	movw	r24, r28
    10d0:	47 96       	adiw	r24, 0x17	; 23
    10d2:	29 2f       	mov	r18, r25
    10d4:	2f 93       	push	r18
    10d6:	8f 93       	push	r24
    10d8:	89 e1       	ldi	r24, 0x19	; 25
    10da:	92 e0       	ldi	r25, 0x02	; 2
    10dc:	89 2f       	mov	r24, r25
    10de:	8f 93       	push	r24
    10e0:	89 e1       	ldi	r24, 0x19	; 25
    10e2:	92 e0       	ldi	r25, 0x02	; 2
    10e4:	8f 93       	push	r24
    10e6:	1f 92       	push	r1
    10e8:	81 e1       	ldi	r24, 0x11	; 17
    10ea:	8f 93       	push	r24
    10ec:	ce 01       	movw	r24, r28
    10ee:	06 96       	adiw	r24, 0x06	; 6
    10f0:	29 2f       	mov	r18, r25
    10f2:	2f 93       	push	r18
    10f4:	8f 93       	push	r24
    10f6:	0e 94 46 33 	call	0x668c	; 0x668c <snprintf>
    10fa:	8d b7       	in	r24, 0x3d	; 61
    10fc:	9e b7       	in	r25, 0x3e	; 62
    10fe:	08 96       	adiw	r24, 0x08	; 8
    1100:	0f b6       	in	r0, 0x3f	; 63
    1102:	f8 94       	cli
    1104:	de bf       	out	0x3e, r29	; 62
    1106:	0f be       	out	0x3f, r0	; 63
    1108:	cd bf       	out	0x3d, r28	; 61

0000110a <.L110>:

	switch(row) {
    110a:	89 a5       	ldd	r24, Y+41	; 0x29
    110c:	88 2f       	mov	r24, r24
    110e:	90 e0       	ldi	r25, 0x00	; 0
    1110:	81 30       	cpi	r24, 0x01	; 1
    1112:	91 05       	cpc	r25, r1
    1114:	21 f0       	breq	.+8      	; 0x111e <.L111>
    1116:	82 30       	cpi	r24, 0x02	; 2
    1118:	91 05       	cpc	r25, r1
    111a:	29 f0       	breq	.+10     	; 0x1126 <.L112>
    111c:	08 c0       	rjmp	.+16     	; 0x112e <.L113>

0000111e <.L111>:
		case 1: /* ======= Line 1 ======= */
			lcd_write_instruction_4f(lcd_SetCursor | lcd_LineOne);
    111e:	80 e8       	ldi	r24, 0x80	; 128
    1120:	0e 94 04 09 	call	0x1208	; 0x1208 <lcd_write_instruction_4f>

00001124 <.Loc.165>:
			break;
    1124:	04 c0       	rjmp	.+8      	; 0x112e <.L113>

00001126 <.L112>:
		case 2: /* ======= Line 2 ======= */
			lcd_write_instruction_4f(lcd_SetCursor | lcd_LineTwo);
    1126:	80 ec       	ldi	r24, 0xC0	; 192
    1128:	0e 94 04 09 	call	0x1208	; 0x1208 <lcd_write_instruction_4f>

0000112c <.Loc.167>:
	...

0000112e <.L113>:
			break;
	}
	lcd_write_string_4f((unsigned char*) charRow);
    112e:	ce 01       	movw	r24, r28
    1130:	06 96       	adiw	r24, 0x06	; 6
    1132:	0e 94 a5 08 	call	0x114a	; 0x114a <lcd_write_string_4f>

00001136 <.Loc.169>:
}
    1136:	00 00       	nop
    1138:	af 96       	adiw	r28, 0x2f	; 47
    113a:	0f b6       	in	r0, 0x3f	; 63
    113c:	f8 94       	cli
    113e:	de bf       	out	0x3e, r29	; 62
    1140:	0f be       	out	0x3f, r0	; 63
    1142:	cd bf       	out	0x3d, r28	; 61
    1144:	df 91       	pop	r29
    1146:	cf 91       	pop	r28
    1148:	08 95       	ret

0000114a <lcd_write_string_4f>:
Inputs:		string to be displayed (stringData)
Outputs:	none
Description:writes a string of characters on LCD; uses the busy flag
******************************************************************** */
void lcd_write_string_4f(uint8_t stringData[])
{
    114a:	cf 93       	push	r28
    114c:	df 93       	push	r29
    114e:	00 d0       	rcall	.+0      	; 0x1150 <L0^A>

00001150 <L0^A>:
    1150:	0f 92       	push	r0
    1152:	cd b7       	in	r28, 0x3d	; 61
    1154:	de b7       	in	r29, 0x3e	; 62
    1156:	9c 83       	std	Y+4, r25	; 0x04
    1158:	8b 83       	std	Y+3, r24	; 0x03

0000115a <.Loc.171>:
    volatile int i = 0;                             // Character counter
    115a:	1a 82       	std	Y+2, r1	; 0x02
    115c:	19 82       	std	Y+1, r1	; 0x01

0000115e <.Loc.172>:
    while (stringData[i] != 0)
    115e:	12 c0       	rjmp	.+36     	; 0x1184 <.L115>

00001160 <.L116>:
    {
        lcd_check_BF_4();                           // Make sure LCD controller is ready
    1160:	0e 94 ca 0c 	call	0x1994	; 0x1994 <lcd_check_BF_4>

00001164 <.Loc.174>:
        lcd_write_character_4f(stringData[i]);
    1164:	89 81       	ldd	r24, Y+1	; 0x01
    1166:	9a 81       	ldd	r25, Y+2	; 0x02
    1168:	9c 01       	movw	r18, r24
    116a:	8b 81       	ldd	r24, Y+3	; 0x03
    116c:	9c 81       	ldd	r25, Y+4	; 0x04
    116e:	82 0f       	add	r24, r18
    1170:	93 1f       	adc	r25, r19

00001172 <.Loc.175>:
    1172:	fc 01       	movw	r30, r24
    1174:	80 81       	ld	r24, Z
    1176:	0e 94 d6 08 	call	0x11ac	; 0x11ac <lcd_write_character_4f>

0000117a <.Loc.176>:
        i++;
    117a:	89 81       	ldd	r24, Y+1	; 0x01
    117c:	9a 81       	ldd	r25, Y+2	; 0x02
    117e:	01 96       	adiw	r24, 0x01	; 1
    1180:	9a 83       	std	Y+2, r25	; 0x02
    1182:	89 83       	std	Y+1, r24	; 0x01

00001184 <.L115>:
    while (stringData[i] != 0)
    1184:	89 81       	ldd	r24, Y+1	; 0x01
    1186:	9a 81       	ldd	r25, Y+2	; 0x02
    1188:	9c 01       	movw	r18, r24
    118a:	8b 81       	ldd	r24, Y+3	; 0x03
    118c:	9c 81       	ldd	r25, Y+4	; 0x04
    118e:	82 0f       	add	r24, r18
    1190:	93 1f       	adc	r25, r19
    1192:	fc 01       	movw	r30, r24
    1194:	80 81       	ld	r24, Z

00001196 <.Loc.178>:
    1196:	88 23       	and	r24, r24
    1198:	19 f7       	brne	.-58     	; 0x1160 <.L116>

0000119a <.Loc.179>:
    }
}
    119a:	00 00       	nop
    119c:	00 00       	nop
    119e:	0f 90       	pop	r0
    11a0:	0f 90       	pop	r0
    11a2:	0f 90       	pop	r0
    11a4:	0f 90       	pop	r0
    11a6:	df 91       	pop	r29
    11a8:	cf 91       	pop	r28
    11aa:	08 95       	ret

000011ac <lcd_write_character_4f>:
Outputs:	none
Description:sends a byte to the LCD data register, configures RW
			(busy flag is implemented)
******************************************************************** */
void lcd_write_character_4f(uint8_t theChar)
{
    11ac:	cf 93       	push	r28
    11ae:	df 93       	push	r29
    11b0:	0f 92       	push	r0
    11b2:	cd b7       	in	r28, 0x3d	; 61
    11b4:	de b7       	in	r29, 0x3e	; 62
    11b6:	89 83       	std	Y+1, r24	; 0x01

000011b8 <.Loc.181>:
    set_RW_LOW_write;					// Write to LCD module (RW low)
    11b8:	88 e2       	ldi	r24, 0x28	; 40
    11ba:	90 e0       	ldi	r25, 0x00	; 0
    11bc:	fc 01       	movw	r30, r24
    11be:	20 81       	ld	r18, Z
    11c0:	88 e2       	ldi	r24, 0x28	; 40
    11c2:	90 e0       	ldi	r25, 0x00	; 0
    11c4:	2b 7f       	andi	r18, 0xFB	; 251
    11c6:	fc 01       	movw	r30, r24
    11c8:	20 83       	st	Z, r18

000011ca <.Loc.182>:
    set_RS_HIGH_Data;					// Select the Data Register (RS high)
    11ca:	88 e2       	ldi	r24, 0x28	; 40
    11cc:	90 e0       	ldi	r25, 0x00	; 0
    11ce:	fc 01       	movw	r30, r24
    11d0:	20 81       	ld	r18, Z
    11d2:	88 e2       	ldi	r24, 0x28	; 40
    11d4:	90 e0       	ldi	r25, 0x00	; 0
    11d6:	22 60       	ori	r18, 0x02	; 2
    11d8:	fc 01       	movw	r30, r24
    11da:	20 83       	st	Z, r18

000011dc <.Loc.183>:
    disable_E_Pin;						// Make sure E is initially low
    11dc:	88 e2       	ldi	r24, 0x28	; 40
    11de:	90 e0       	ldi	r25, 0x00	; 0
    11e0:	fc 01       	movw	r30, r24
    11e2:	20 81       	ld	r18, Z
    11e4:	88 e2       	ldi	r24, 0x28	; 40
    11e6:	90 e0       	ldi	r25, 0x00	; 0
    11e8:	27 7f       	andi	r18, 0xF7	; 247
    11ea:	fc 01       	movw	r30, r24
    11ec:	20 83       	st	Z, r18

000011ee <.Loc.184>:
    lcd_write_4(theChar);				// Write the upper 4-bits of the data
    11ee:	89 81       	ldd	r24, Y+1	; 0x01
    11f0:	0e 94 32 09 	call	0x1264	; 0x1264 <lcd_write_4>

000011f4 <.Loc.185>:
    lcd_write_4(theChar << 4);			// Write the lower 4-bits of the data
    11f4:	89 81       	ldd	r24, Y+1	; 0x01
    11f6:	82 95       	swap	r24
    11f8:	80 7f       	andi	r24, 0xF0	; 240
    11fa:	0e 94 32 09 	call	0x1264	; 0x1264 <lcd_write_4>

000011fe <.Loc.186>:
}
    11fe:	00 00       	nop
    1200:	0f 90       	pop	r0
    1202:	df 91       	pop	r29
    1204:	cf 91       	pop	r28
    1206:	08 95       	ret

00001208 <lcd_write_instruction_4f>:
Outputs:	none
Description:sends a byte to the LCD instruction register, configures RW
			(busy flag is implemented)
******************************************************************** */
void lcd_write_instruction_4f(uint8_t theInstruction)
{
    1208:	cf 93       	push	r28
    120a:	df 93       	push	r29
    120c:	0f 92       	push	r0
    120e:	cd b7       	in	r28, 0x3d	; 61
    1210:	de b7       	in	r29, 0x3e	; 62
    1212:	89 83       	std	Y+1, r24	; 0x01

00001214 <.Loc.188>:
    set_RW_LOW_write;					// Write to LCD module (RW low)
    1214:	88 e2       	ldi	r24, 0x28	; 40
    1216:	90 e0       	ldi	r25, 0x00	; 0
    1218:	fc 01       	movw	r30, r24
    121a:	20 81       	ld	r18, Z
    121c:	88 e2       	ldi	r24, 0x28	; 40
    121e:	90 e0       	ldi	r25, 0x00	; 0
    1220:	2b 7f       	andi	r18, 0xFB	; 251
    1222:	fc 01       	movw	r30, r24
    1224:	20 83       	st	Z, r18

00001226 <.Loc.189>:
    set_RS_LOW_Instr;					// Select the Data Register (RS high)
    1226:	88 e2       	ldi	r24, 0x28	; 40
    1228:	90 e0       	ldi	r25, 0x00	; 0
    122a:	fc 01       	movw	r30, r24
    122c:	20 81       	ld	r18, Z
    122e:	88 e2       	ldi	r24, 0x28	; 40
    1230:	90 e0       	ldi	r25, 0x00	; 0
    1232:	2d 7f       	andi	r18, 0xFD	; 253
    1234:	fc 01       	movw	r30, r24
    1236:	20 83       	st	Z, r18

00001238 <.Loc.190>:
    disable_E_Pin;						// Make sure E is initially low
    1238:	88 e2       	ldi	r24, 0x28	; 40
    123a:	90 e0       	ldi	r25, 0x00	; 0
    123c:	fc 01       	movw	r30, r24
    123e:	20 81       	ld	r18, Z
    1240:	88 e2       	ldi	r24, 0x28	; 40
    1242:	90 e0       	ldi	r25, 0x00	; 0
    1244:	27 7f       	andi	r18, 0xF7	; 247
    1246:	fc 01       	movw	r30, r24
    1248:	20 83       	st	Z, r18

0000124a <.Loc.191>:
    lcd_write_4(theInstruction);		// Write the upper 4-bits of the data
    124a:	89 81       	ldd	r24, Y+1	; 0x01
    124c:	0e 94 32 09 	call	0x1264	; 0x1264 <lcd_write_4>

00001250 <.Loc.192>:
    lcd_write_4(theInstruction << 4);	// Write the lower 4-bits of the data
    1250:	89 81       	ldd	r24, Y+1	; 0x01
    1252:	82 95       	swap	r24
    1254:	80 7f       	andi	r24, 0xF0	; 240
    1256:	0e 94 32 09 	call	0x1264	; 0x1264 <lcd_write_4>

0000125a <.Loc.193>:
}
    125a:	00 00       	nop
    125c:	0f 90       	pop	r0
    125e:	df 91       	pop	r29
    1260:	cf 91       	pop	r28
    1262:	08 95       	ret

00001264 <lcd_write_4>:
			RS is configured for the expected register
			E is low, RW is low
			uses either time delays or the busy flag
******************************************************************** */
void lcd_write_4(uint8_t theNibble)
{
    1264:	cf 93       	push	r28
    1266:	df 93       	push	r29
    1268:	cd b7       	in	r28, 0x3d	; 61
    126a:	de b7       	in	r29, 0x3e	; 62
    126c:	c8 59       	subi	r28, 0x98	; 152
    126e:	d1 09       	sbc	r29, r1
    1270:	0f b6       	in	r0, 0x3f	; 63
    1272:	f8 94       	cli
    1274:	de bf       	out	0x3e, r29	; 62
    1276:	0f be       	out	0x3f, r0	; 63
    1278:	cd bf       	out	0x3d, r28	; 61
    127a:	9e 01       	movw	r18, r28
    127c:	2a 5b       	subi	r18, 0xBA	; 186
    127e:	3f 4f       	sbci	r19, 0xFF	; 255
    1280:	f9 01       	movw	r30, r18
    1282:	80 83       	st	Z, r24

00001284 <.Loc.195>:
	uint8_t mask[4] = {0};
    1284:	ce 01       	movw	r24, r28
    1286:	8e 5b       	subi	r24, 0xBE	; 190
    1288:	9f 4f       	sbci	r25, 0xFF	; 255
    128a:	fc 01       	movw	r30, r24
    128c:	11 82       	std	Z+1, r1	; 0x01
    128e:	10 82       	st	Z, r1
    1290:	fc 01       	movw	r30, r24
    1292:	13 82       	std	Z+3, r1	; 0x03
    1294:	12 82       	std	Z+2, r1	; 0x02

00001296 <.LBB198>:
	for (uint8_t i = 0; i < 4; i++)
    1296:	19 82       	std	Y+1, r1	; 0x01

00001298 <.Loc.197>:
    1298:	28 c0       	rjmp	.+80     	; 0x12ea <.L120>

0000129a <.L122>:
	{
		if (theNibble & 1 << (7 - i))
    129a:	ce 01       	movw	r24, r28
    129c:	8a 5b       	subi	r24, 0xBA	; 186
    129e:	9f 4f       	sbci	r25, 0xFF	; 255
    12a0:	fc 01       	movw	r30, r24
    12a2:	80 81       	ld	r24, Z
    12a4:	88 2f       	mov	r24, r24
    12a6:	90 e0       	ldi	r25, 0x00	; 0

000012a8 <.Loc.199>:
    12a8:	29 81       	ldd	r18, Y+1	; 0x01
    12aa:	22 2f       	mov	r18, r18
    12ac:	30 e0       	ldi	r19, 0x00	; 0
    12ae:	47 e0       	ldi	r20, 0x07	; 7
    12b0:	50 e0       	ldi	r21, 0x00	; 0
    12b2:	fa 01       	movw	r30, r20
    12b4:	e2 1b       	sub	r30, r18
    12b6:	f3 0b       	sbc	r31, r19
    12b8:	9f 01       	movw	r18, r30

000012ba <.Loc.200>:
    12ba:	02 2e       	mov	r0, r18
    12bc:	02 c0       	rjmp	.+4      	; 0x12c2 <.L2^B1>

000012be <.L1^B17>:
    12be:	95 95       	asr	r25
    12c0:	87 95       	ror	r24

000012c2 <.L2^B1>:
    12c2:	0a 94       	dec	r0
    12c4:	e2 f7       	brpl	.-8      	; 0x12be <.L1^B17>
    12c6:	81 70       	andi	r24, 0x01	; 1
    12c8:	99 27       	eor	r25, r25

000012ca <.Loc.201>:
    12ca:	00 97       	sbiw	r24, 0x00	; 0
    12cc:	59 f0       	breq	.+22     	; 0x12e4 <.L121>

000012ce <.Loc.202>:
		{
			mask[i] = 1;
    12ce:	89 81       	ldd	r24, Y+1	; 0x01
    12d0:	88 2f       	mov	r24, r24
    12d2:	90 e0       	ldi	r25, 0x00	; 0

000012d4 <.Loc.203>:
    12d4:	9e 01       	movw	r18, r28
    12d6:	2e 5b       	subi	r18, 0xBE	; 190
    12d8:	3f 4f       	sbci	r19, 0xFF	; 255
    12da:	82 0f       	add	r24, r18
    12dc:	93 1f       	adc	r25, r19
    12de:	21 e0       	ldi	r18, 0x01	; 1
    12e0:	fc 01       	movw	r30, r24
    12e2:	20 83       	st	Z, r18

000012e4 <.L121>:
	for (uint8_t i = 0; i < 4; i++)
    12e4:	89 81       	ldd	r24, Y+1	; 0x01
    12e6:	8f 5f       	subi	r24, 0xFF	; 255
    12e8:	89 83       	std	Y+1, r24	; 0x01

000012ea <.L120>:
    12ea:	89 81       	ldd	r24, Y+1	; 0x01
    12ec:	83 30       	cpi	r24, 0x03	; 3
    12ee:	a9 f2       	breq	.-86     	; 0x129a <.L122>
    12f0:	a0 f2       	brcs	.-88     	; 0x129a <.L122>

000012f2 <.LBE198>:
		}
	}

	/* Clear bits in first step */
	lcd_Data_Port &= ~((1 << lcd_D7_bit) | (1 << lcd_D6_bit) | (1 << lcd_D5_bit) | (1 << lcd_D4_bit));
    12f2:	88 e2       	ldi	r24, 0x28	; 40
    12f4:	90 e0       	ldi	r25, 0x00	; 0
    12f6:	dc 01       	movw	r26, r24
    12f8:	2c 91       	ld	r18, X

000012fa <.Loc.207>:
    12fa:	88 e2       	ldi	r24, 0x28	; 40
    12fc:	90 e0       	ldi	r25, 0x00	; 0

000012fe <.Loc.208>:
    12fe:	2f 70       	andi	r18, 0x0F	; 15
    1300:	fc 01       	movw	r30, r24
    1302:	20 83       	st	Z, r18

00001304 <.Loc.209>:

	/* Set bits where necessary */
	lcd_Data_Port |= ((mask[0]) << lcd_D7_bit | (mask[1]) << lcd_D6_bit | (mask[2]) << lcd_D5_bit | (mask[3]) << lcd_D4_bit);
    1304:	88 e2       	ldi	r24, 0x28	; 40
    1306:	90 e0       	ldi	r25, 0x00	; 0
    1308:	dc 01       	movw	r26, r24
    130a:	8c 91       	ld	r24, X
    130c:	38 2f       	mov	r19, r24

0000130e <.Loc.210>:
    130e:	ce 01       	movw	r24, r28
    1310:	8e 5b       	subi	r24, 0xBE	; 190
    1312:	9f 4f       	sbci	r25, 0xFF	; 255
    1314:	fc 01       	movw	r30, r24
    1316:	80 81       	ld	r24, Z
    1318:	88 2f       	mov	r24, r24
    131a:	90 e0       	ldi	r25, 0x00	; 0

0000131c <.Loc.211>:
    131c:	b8 2f       	mov	r27, r24
    131e:	b6 95       	lsr	r27
    1320:	a8 2f       	mov	r26, r24
    1322:	a7 95       	ror	r26
    1324:	aa 27       	eor	r26, r26
    1326:	a7 95       	ror	r26

00001328 <.Loc.212>:
    1328:	2a 2f       	mov	r18, r26

0000132a <.Loc.213>:
    132a:	ce 01       	movw	r24, r28
    132c:	8e 5b       	subi	r24, 0xBE	; 190
    132e:	9f 4f       	sbci	r25, 0xFF	; 255
    1330:	dc 01       	movw	r26, r24
    1332:	11 96       	adiw	r26, 0x01	; 1
    1334:	8c 91       	ld	r24, X
    1336:	88 2f       	mov	r24, r24
    1338:	90 e0       	ldi	r25, 0x00	; 0

0000133a <.Loc.214>:
    133a:	b8 2f       	mov	r27, r24
    133c:	b6 95       	lsr	r27
    133e:	b6 95       	lsr	r27
    1340:	c8 56       	subi	r28, 0x68	; 104
    1342:	df 4f       	sbci	r29, 0xFF	; 255
    1344:	b8 83       	st	Y, r27
    1346:	c8 59       	subi	r28, 0x98	; 152
    1348:	d0 40       	sbci	r29, 0x00	; 0
    134a:	e8 2f       	mov	r30, r24
    134c:	e2 95       	swap	r30
    134e:	ee 0f       	add	r30, r30
    1350:	ee 0f       	add	r30, r30
    1352:	e0 7c       	andi	r30, 0xC0	; 192
    1354:	c9 56       	subi	r28, 0x69	; 105
    1356:	df 4f       	sbci	r29, 0xFF	; 255
    1358:	e8 83       	st	Y, r30
    135a:	c7 59       	subi	r28, 0x97	; 151
    135c:	d0 40       	sbci	r29, 0x00	; 0

0000135e <.Loc.215>:
    135e:	c9 56       	subi	r28, 0x69	; 105
    1360:	df 4f       	sbci	r29, 0xFF	; 255
    1362:	88 81       	ld	r24, Y
    1364:	c7 59       	subi	r28, 0x97	; 151
    1366:	d0 40       	sbci	r29, 0x00	; 0
    1368:	28 2b       	or	r18, r24

0000136a <.Loc.216>:
    136a:	ce 01       	movw	r24, r28
    136c:	8e 5b       	subi	r24, 0xBE	; 190
    136e:	9f 4f       	sbci	r25, 0xFF	; 255
    1370:	dc 01       	movw	r26, r24
    1372:	12 96       	adiw	r26, 0x02	; 2
    1374:	8c 91       	ld	r24, X
    1376:	88 2f       	mov	r24, r24
    1378:	90 e0       	ldi	r25, 0x00	; 0

0000137a <.Loc.217>:
    137a:	78 2f       	mov	r23, r24
    137c:	76 95       	lsr	r23
    137e:	76 95       	lsr	r23
    1380:	76 95       	lsr	r23
    1382:	68 2f       	mov	r22, r24
    1384:	62 95       	swap	r22
    1386:	66 0f       	add	r22, r22
    1388:	60 7e       	andi	r22, 0xE0	; 224

0000138a <.Loc.218>:
    138a:	86 2f       	mov	r24, r22
    138c:	28 2b       	or	r18, r24

0000138e <.Loc.219>:
    138e:	ce 01       	movw	r24, r28
    1390:	8e 5b       	subi	r24, 0xBE	; 190
    1392:	9f 4f       	sbci	r25, 0xFF	; 255
    1394:	fc 01       	movw	r30, r24
    1396:	83 81       	ldd	r24, Z+3	; 0x03
    1398:	88 2f       	mov	r24, r24
    139a:	90 e0       	ldi	r25, 0x00	; 0

0000139c <.Loc.220>:
    139c:	82 95       	swap	r24
    139e:	92 95       	swap	r25
    13a0:	90 7f       	andi	r25, 0xF0	; 240
    13a2:	98 27       	eor	r25, r24
    13a4:	80 7f       	andi	r24, 0xF0	; 240
    13a6:	98 27       	eor	r25, r24

000013a8 <.Loc.221>:
    13a8:	82 2b       	or	r24, r18

000013aa <.Loc.222>:
    13aa:	23 2f       	mov	r18, r19
    13ac:	28 2b       	or	r18, r24

000013ae <.Loc.223>:
    13ae:	88 e2       	ldi	r24, 0x28	; 40
    13b0:	90 e0       	ldi	r25, 0x00	; 0

000013b2 <.Loc.224>:
    13b2:	dc 01       	movw	r26, r24
    13b4:	2c 93       	st	X, r18

000013b6 <.Loc.225>:

    /* Write the data */
    enable_E_Pin;                   // Enable pin high
    13b6:	88 e2       	ldi	r24, 0x28	; 40
    13b8:	90 e0       	ldi	r25, 0x00	; 0
    13ba:	fc 01       	movw	r30, r24
    13bc:	20 81       	ld	r18, Z
    13be:	88 e2       	ldi	r24, 0x28	; 40
    13c0:	90 e0       	ldi	r25, 0x00	; 0
    13c2:	28 60       	ori	r18, 0x08	; 8
    13c4:	dc 01       	movw	r26, r24
    13c6:	2c 93       	st	X, r18
    13c8:	80 e0       	ldi	r24, 0x00	; 0
    13ca:	90 e0       	ldi	r25, 0x00	; 0
    13cc:	a0 e8       	ldi	r26, 0x80	; 128
    13ce:	bf e3       	ldi	r27, 0x3F	; 63
    13d0:	8a a3       	std	Y+34, r24	; 0x22
    13d2:	9b a3       	std	Y+35, r25	; 0x23
    13d4:	ac a3       	std	Y+36, r26	; 0x24
    13d6:	bd a3       	std	Y+37, r27	; 0x25

000013d8 <.LBB199>:
	__tmp = ((F_CPU) / 3e6) * __us;
    13d8:	2b ea       	ldi	r18, 0xAB	; 171
    13da:	3a ea       	ldi	r19, 0xAA	; 170
    13dc:	4a ea       	ldi	r20, 0xAA	; 170
    13de:	50 e4       	ldi	r21, 0x40	; 64
    13e0:	6a a1       	ldd	r22, Y+34	; 0x22
    13e2:	7b a1       	ldd	r23, Y+35	; 0x23
    13e4:	8c a1       	ldd	r24, Y+36	; 0x24
    13e6:	9d a1       	ldd	r25, Y+37	; 0x25
    13e8:	0e 94 a0 32 	call	0x6540	; 0x6540 <__mulsf3>
    13ec:	63 96       	adiw	r28, 0x13	; 19
    13ee:	6c af       	std	Y+60, r22	; 0x3c
    13f0:	7d af       	std	Y+61, r23	; 0x3d
    13f2:	8e af       	std	Y+62, r24	; 0x3e
    13f4:	9f af       	std	Y+63, r25	; 0x3f
    13f6:	63 97       	sbiw	r28, 0x13	; 19
    13f8:	63 96       	adiw	r28, 0x13	; 19
    13fa:	8c ad       	ldd	r24, Y+60	; 0x3c
    13fc:	9d ad       	ldd	r25, Y+61	; 0x3d
    13fe:	ae ad       	ldd	r26, Y+62	; 0x3e
    1400:	bf ad       	ldd	r27, Y+63	; 0x3f
    1402:	63 97       	sbiw	r28, 0x13	; 19
    1404:	8e a3       	std	Y+38, r24	; 0x26
    1406:	9f a3       	std	Y+39, r25	; 0x27
    1408:	a8 a7       	std	Y+40, r26	; 0x28
    140a:	b9 a7       	std	Y+41, r27	; 0x29

0000140c <.Loc.227>:
	__tmp2 = ((F_CPU) / 4e6) * __us;
    140c:	20 e0       	ldi	r18, 0x00	; 0
    140e:	30 e0       	ldi	r19, 0x00	; 0
    1410:	40 e8       	ldi	r20, 0x80	; 128
    1412:	50 e4       	ldi	r21, 0x40	; 64
    1414:	6a a1       	ldd	r22, Y+34	; 0x22
    1416:	7b a1       	ldd	r23, Y+35	; 0x23
    1418:	8c a1       	ldd	r24, Y+36	; 0x24
    141a:	9d a1       	ldd	r25, Y+37	; 0x25
    141c:	0e 94 a0 32 	call	0x6540	; 0x6540 <__mulsf3>
    1420:	67 96       	adiw	r28, 0x17	; 23
    1422:	6c af       	std	Y+60, r22	; 0x3c
    1424:	7d af       	std	Y+61, r23	; 0x3d
    1426:	8e af       	std	Y+62, r24	; 0x3e
    1428:	9f af       	std	Y+63, r25	; 0x3f
    142a:	67 97       	sbiw	r28, 0x17	; 23
    142c:	67 96       	adiw	r28, 0x17	; 23
    142e:	8c ad       	ldd	r24, Y+60	; 0x3c
    1430:	9d ad       	ldd	r25, Y+61	; 0x3d
    1432:	ae ad       	ldd	r26, Y+62	; 0x3e
    1434:	bf ad       	ldd	r27, Y+63	; 0x3f
    1436:	67 97       	sbiw	r28, 0x17	; 23
    1438:	8a a7       	std	Y+42, r24	; 0x2a
    143a:	9b a7       	std	Y+43, r25	; 0x2b
    143c:	ac a7       	std	Y+44, r26	; 0x2c
    143e:	bd a7       	std	Y+45, r27	; 0x2d

00001440 <.Loc.228>:
	if (__tmp < 1.0)
    1440:	20 e0       	ldi	r18, 0x00	; 0
    1442:	30 e0       	ldi	r19, 0x00	; 0
    1444:	40 e8       	ldi	r20, 0x80	; 128
    1446:	5f e3       	ldi	r21, 0x3F	; 63
    1448:	6e a1       	ldd	r22, Y+38	; 0x26
    144a:	7f a1       	ldd	r23, Y+39	; 0x27
    144c:	88 a5       	ldd	r24, Y+40	; 0x28
    144e:	99 a5       	ldd	r25, Y+41	; 0x29
    1450:	0e 94 3c 31 	call	0x6278	; 0x6278 <__cmpsf2>
    1454:	88 23       	and	r24, r24
    1456:	1c f4       	brge	.+6      	; 0x145e <.L165>

00001458 <.Loc.229>:
		__ticks = 1;
    1458:	81 e0       	ldi	r24, 0x01	; 1
    145a:	8e a7       	std	Y+46, r24	; 0x2e
    145c:	0a c1       	rjmp	.+532    	; 0x1672 <.L125>

0000145e <.L165>:
	else if (__tmp2 > 65535)
    145e:	20 e0       	ldi	r18, 0x00	; 0
    1460:	3f ef       	ldi	r19, 0xFF	; 255
    1462:	4f e7       	ldi	r20, 0x7F	; 127
    1464:	57 e4       	ldi	r21, 0x47	; 71
    1466:	6a a5       	ldd	r22, Y+42	; 0x2a
    1468:	7b a5       	ldd	r23, Y+43	; 0x2b
    146a:	8c a5       	ldd	r24, Y+44	; 0x2c
    146c:	9d a5       	ldd	r25, Y+45	; 0x2d
    146e:	0e 94 9b 32 	call	0x6536	; 0x6536 <__gesf2>
    1472:	88 23       	and	r24, r24
    1474:	09 f0       	breq	.+2      	; 0x1478 <L0^A>

00001476 <L0^A>:
    1476:	0c f4       	brge	.+2      	; 0x147a <.Loc.231>

00001478 <L0^A>:
    1478:	b6 c0       	rjmp	.+364    	; 0x15e6 <.L166>

0000147a <.Loc.231>:
		_delay_ms(__us / 1000.0);
    147a:	20 e0       	ldi	r18, 0x00	; 0
    147c:	30 e0       	ldi	r19, 0x00	; 0
    147e:	4a e7       	ldi	r20, 0x7A	; 122
    1480:	54 e4       	ldi	r21, 0x44	; 68
    1482:	6a a1       	ldd	r22, Y+34	; 0x22
    1484:	7b a1       	ldd	r23, Y+35	; 0x23
    1486:	8c a1       	ldd	r24, Y+36	; 0x24
    1488:	9d a1       	ldd	r25, Y+37	; 0x25
    148a:	0e 94 41 31 	call	0x6282	; 0x6282 <__divsf3>
    148e:	6b 96       	adiw	r28, 0x1b	; 27
    1490:	6c af       	std	Y+60, r22	; 0x3c
    1492:	7d af       	std	Y+61, r23	; 0x3d
    1494:	8e af       	std	Y+62, r24	; 0x3e
    1496:	9f af       	std	Y+63, r25	; 0x3f
    1498:	6b 97       	sbiw	r28, 0x1b	; 27
    149a:	6b 96       	adiw	r28, 0x1b	; 27
    149c:	8c ad       	ldd	r24, Y+60	; 0x3c
    149e:	9d ad       	ldd	r25, Y+61	; 0x3d
    14a0:	ae ad       	ldd	r26, Y+62	; 0x3e
    14a2:	bf ad       	ldd	r27, Y+63	; 0x3f
    14a4:	6b 97       	sbiw	r28, 0x1b	; 27
    14a6:	8f a7       	std	Y+47, r24	; 0x2f
    14a8:	98 ab       	std	Y+48, r25	; 0x30
    14aa:	a9 ab       	std	Y+49, r26	; 0x31
    14ac:	ba ab       	std	Y+50, r27	; 0x32

000014ae <.LBB201>:
	__tmp = ((F_CPU) / 4e3) * __ms;
    14ae:	20 e0       	ldi	r18, 0x00	; 0
    14b0:	30 e0       	ldi	r19, 0x00	; 0
    14b2:	4a e7       	ldi	r20, 0x7A	; 122
    14b4:	55 e4       	ldi	r21, 0x45	; 69
    14b6:	6f a5       	ldd	r22, Y+47	; 0x2f
    14b8:	78 a9       	ldd	r23, Y+48	; 0x30
    14ba:	89 a9       	ldd	r24, Y+49	; 0x31
    14bc:	9a a9       	ldd	r25, Y+50	; 0x32
    14be:	0e 94 a0 32 	call	0x6540	; 0x6540 <__mulsf3>
    14c2:	6f 96       	adiw	r28, 0x1f	; 31
    14c4:	6c af       	std	Y+60, r22	; 0x3c
    14c6:	7d af       	std	Y+61, r23	; 0x3d
    14c8:	8e af       	std	Y+62, r24	; 0x3e
    14ca:	9f af       	std	Y+63, r25	; 0x3f
    14cc:	6f 97       	sbiw	r28, 0x1f	; 31
    14ce:	6f 96       	adiw	r28, 0x1f	; 31
    14d0:	8c ad       	ldd	r24, Y+60	; 0x3c
    14d2:	9d ad       	ldd	r25, Y+61	; 0x3d
    14d4:	ae ad       	ldd	r26, Y+62	; 0x3e
    14d6:	bf ad       	ldd	r27, Y+63	; 0x3f
    14d8:	6f 97       	sbiw	r28, 0x1f	; 31
    14da:	8b ab       	std	Y+51, r24	; 0x33
    14dc:	9c ab       	std	Y+52, r25	; 0x34
    14de:	ad ab       	std	Y+53, r26	; 0x35
    14e0:	be ab       	std	Y+54, r27	; 0x36

000014e2 <.Loc.233>:
	if (__tmp < 1.0)
    14e2:	20 e0       	ldi	r18, 0x00	; 0
    14e4:	30 e0       	ldi	r19, 0x00	; 0
    14e6:	40 e8       	ldi	r20, 0x80	; 128
    14e8:	5f e3       	ldi	r21, 0x3F	; 63
    14ea:	6b a9       	ldd	r22, Y+51	; 0x33
    14ec:	7c a9       	ldd	r23, Y+52	; 0x34
    14ee:	8d a9       	ldd	r24, Y+53	; 0x35
    14f0:	9e a9       	ldd	r25, Y+54	; 0x36
    14f2:	0e 94 3c 31 	call	0x6278	; 0x6278 <__cmpsf2>
    14f6:	88 23       	and	r24, r24
    14f8:	2c f4       	brge	.+10     	; 0x1504 <.L167>

000014fa <.Loc.234>:
		__ticks = 1;
    14fa:	81 e0       	ldi	r24, 0x01	; 1
    14fc:	90 e0       	ldi	r25, 0x00	; 0
    14fe:	98 af       	std	Y+56, r25	; 0x38
    1500:	8f ab       	std	Y+55, r24	; 0x37
    1502:	66 c0       	rjmp	.+204    	; 0x15d0 <.L130>

00001504 <.L167>:
	else if (__tmp > 65535)
    1504:	20 e0       	ldi	r18, 0x00	; 0
    1506:	3f ef       	ldi	r19, 0xFF	; 255
    1508:	4f e7       	ldi	r20, 0x7F	; 127
    150a:	57 e4       	ldi	r21, 0x47	; 71
    150c:	6b a9       	ldd	r22, Y+51	; 0x33
    150e:	7c a9       	ldd	r23, Y+52	; 0x34
    1510:	8d a9       	ldd	r24, Y+53	; 0x35
    1512:	9e a9       	ldd	r25, Y+54	; 0x36
    1514:	0e 94 9b 32 	call	0x6536	; 0x6536 <__gesf2>
    1518:	88 23       	and	r24, r24
    151a:	09 f0       	breq	.+2      	; 0x151e <L0^A>

0000151c <L0^A>:
    151c:	0c f4       	brge	.+2      	; 0x1520 <.Loc.236>

0000151e <L0^A>:
    151e:	46 c0       	rjmp	.+140    	; 0x15ac <.L168>

00001520 <.Loc.236>:
		__ticks = (uint16_t) (__ms * 10.0);
    1520:	20 e0       	ldi	r18, 0x00	; 0
    1522:	30 e0       	ldi	r19, 0x00	; 0
    1524:	40 e2       	ldi	r20, 0x20	; 32
    1526:	51 e4       	ldi	r21, 0x41	; 65
    1528:	6f a5       	ldd	r22, Y+47	; 0x2f
    152a:	78 a9       	ldd	r23, Y+48	; 0x30
    152c:	89 a9       	ldd	r24, Y+49	; 0x31
    152e:	9a a9       	ldd	r25, Y+50	; 0x32
    1530:	0e 94 a0 32 	call	0x6540	; 0x6540 <__mulsf3>
    1534:	a3 96       	adiw	r28, 0x23	; 35
    1536:	6c af       	std	Y+60, r22	; 0x3c
    1538:	7d af       	std	Y+61, r23	; 0x3d
    153a:	8e af       	std	Y+62, r24	; 0x3e
    153c:	9f af       	std	Y+63, r25	; 0x3f
    153e:	a3 97       	sbiw	r28, 0x23	; 35
    1540:	a3 96       	adiw	r28, 0x23	; 35
    1542:	8c ad       	ldd	r24, Y+60	; 0x3c
    1544:	9d ad       	ldd	r25, Y+61	; 0x3d
    1546:	ae ad       	ldd	r26, Y+62	; 0x3e
    1548:	bf ad       	ldd	r27, Y+63	; 0x3f
    154a:	a3 97       	sbiw	r28, 0x23	; 35
    154c:	2f 96       	adiw	r28, 0x0f	; 15
    154e:	8c af       	std	Y+60, r24	; 0x3c
    1550:	9d af       	std	Y+61, r25	; 0x3d
    1552:	ae af       	std	Y+62, r26	; 0x3e
    1554:	bf af       	std	Y+63, r27	; 0x3f
    1556:	2f 97       	sbiw	r28, 0x0f	; 15

00001558 <.Loc.237>:
    1558:	2f 96       	adiw	r28, 0x0f	; 15
    155a:	6c ad       	ldd	r22, Y+60	; 0x3c
    155c:	7d ad       	ldd	r23, Y+61	; 0x3d
    155e:	8e ad       	ldd	r24, Y+62	; 0x3e
    1560:	9f ad       	ldd	r25, Y+63	; 0x3f
    1562:	2f 97       	sbiw	r28, 0x0f	; 15
    1564:	0e 94 ba 31 	call	0x6374	; 0x6374 <__fixunssfsi>
    1568:	a7 96       	adiw	r28, 0x27	; 39
    156a:	6c af       	std	Y+60, r22	; 0x3c
    156c:	7d af       	std	Y+61, r23	; 0x3d
    156e:	8e af       	std	Y+62, r24	; 0x3e
    1570:	9f af       	std	Y+63, r25	; 0x3f
    1572:	a7 97       	sbiw	r28, 0x27	; 39
    1574:	a5 96       	adiw	r28, 0x25	; 37
    1576:	ae ad       	ldd	r26, Y+62	; 0x3e
    1578:	bf ad       	ldd	r27, Y+63	; 0x3f
    157a:	a5 97       	sbiw	r28, 0x25	; 37
    157c:	b8 af       	std	Y+56, r27	; 0x38
    157e:	af ab       	std	Y+55, r26	; 0x37

00001580 <.Loc.238>:
		while(__ticks)
    1580:	10 c0       	rjmp	.+32     	; 0x15a2 <.L133>

00001582 <.L134>:
    1582:	80 e9       	ldi	r24, 0x90	; 144
    1584:	91 e0       	ldi	r25, 0x01	; 1
    1586:	9a af       	std	Y+58, r25	; 0x3a
    1588:	89 af       	std	Y+57, r24	; 0x39

0000158a <.LBB203>:
	__asm__ volatile (
    158a:	89 ad       	ldd	r24, Y+57	; 0x39
    158c:	9a ad       	ldd	r25, Y+58	; 0x3a

0000158e <.L1^B18>:
    158e:	01 97       	sbiw	r24, 0x01	; 1
    1590:	f1 f7       	brne	.-4      	; 0x158e <.L1^B18>
    1592:	9a af       	std	Y+58, r25	; 0x3a
    1594:	89 af       	std	Y+57, r24	; 0x39

00001596 <.Loc.240>:
	...

00001598 <.LBE203>:
			__ticks --;
    1598:	8f a9       	ldd	r24, Y+55	; 0x37
    159a:	98 ad       	ldd	r25, Y+56	; 0x38
    159c:	01 97       	sbiw	r24, 0x01	; 1
    159e:	98 af       	std	Y+56, r25	; 0x38
    15a0:	8f ab       	std	Y+55, r24	; 0x37

000015a2 <.L133>:
		while(__ticks)
    15a2:	8f a9       	ldd	r24, Y+55	; 0x37
    15a4:	98 ad       	ldd	r25, Y+56	; 0x38
    15a6:	00 97       	sbiw	r24, 0x00	; 0
    15a8:	61 f7       	brne	.-40     	; 0x1582 <.L134>

000015aa <.Loc.243>:
		return;
    15aa:	63 c0       	rjmp	.+198    	; 0x1672 <.L125>

000015ac <.L168>:
		__ticks = (uint16_t)__tmp;
    15ac:	6b a9       	ldd	r22, Y+51	; 0x33
    15ae:	7c a9       	ldd	r23, Y+52	; 0x34
    15b0:	8d a9       	ldd	r24, Y+53	; 0x35
    15b2:	9e a9       	ldd	r25, Y+54	; 0x36
    15b4:	0e 94 ba 31 	call	0x6374	; 0x6374 <__fixunssfsi>
    15b8:	ab 96       	adiw	r28, 0x2b	; 43
    15ba:	6c af       	std	Y+60, r22	; 0x3c
    15bc:	7d af       	std	Y+61, r23	; 0x3d
    15be:	8e af       	std	Y+62, r24	; 0x3e
    15c0:	9f af       	std	Y+63, r25	; 0x3f
    15c2:	ab 97       	sbiw	r28, 0x2b	; 43
    15c4:	a9 96       	adiw	r28, 0x29	; 41
    15c6:	ee ad       	ldd	r30, Y+62	; 0x3e
    15c8:	ff ad       	ldd	r31, Y+63	; 0x3f
    15ca:	a9 97       	sbiw	r28, 0x29	; 41
    15cc:	f8 af       	std	Y+56, r31	; 0x38
    15ce:	ef ab       	std	Y+55, r30	; 0x37

000015d0 <.L130>:
    15d0:	8f a9       	ldd	r24, Y+55	; 0x37
    15d2:	98 ad       	ldd	r25, Y+56	; 0x38
    15d4:	9c af       	std	Y+60, r25	; 0x3c
    15d6:	8b af       	std	Y+59, r24	; 0x3b

000015d8 <.LBB205>:
    15d8:	8b ad       	ldd	r24, Y+59	; 0x3b
    15da:	9c ad       	ldd	r25, Y+60	; 0x3c

000015dc <.L1^B19>:
    15dc:	01 97       	sbiw	r24, 0x01	; 1
    15de:	f1 f7       	brne	.-4      	; 0x15dc <.L1^B19>
    15e0:	9c af       	std	Y+60, r25	; 0x3c
    15e2:	8b af       	std	Y+59, r24	; 0x3b

000015e4 <.Loc.246>:
}
    15e4:	46 c0       	rjmp	.+140    	; 0x1672 <.L125>

000015e6 <.L166>:
	else if (__tmp > 255)
    15e6:	20 e0       	ldi	r18, 0x00	; 0
    15e8:	30 e0       	ldi	r19, 0x00	; 0
    15ea:	4f e7       	ldi	r20, 0x7F	; 127
    15ec:	53 e4       	ldi	r21, 0x43	; 67
    15ee:	6e a1       	ldd	r22, Y+38	; 0x26
    15f0:	7f a1       	ldd	r23, Y+39	; 0x27
    15f2:	88 a5       	ldd	r24, Y+40	; 0x28
    15f4:	99 a5       	ldd	r25, Y+41	; 0x29
    15f6:	0e 94 9b 32 	call	0x6536	; 0x6536 <__gesf2>
    15fa:	88 23       	and	r24, r24
    15fc:	51 f1       	breq	.+84     	; 0x1652 <.L169>
    15fe:	4c f1       	brlt	.+82     	; 0x1652 <.L169>

00001600 <.LBB207>:
		uint16_t __ticks=(uint16_t)__tmp2;
    1600:	6a a5       	ldd	r22, Y+42	; 0x2a
    1602:	7b a5       	ldd	r23, Y+43	; 0x2b
    1604:	8c a5       	ldd	r24, Y+44	; 0x2c
    1606:	9d a5       	ldd	r25, Y+45	; 0x2d
    1608:	0e 94 ba 31 	call	0x6374	; 0x6374 <__fixunssfsi>
    160c:	af 96       	adiw	r28, 0x2f	; 47
    160e:	6c af       	std	Y+60, r22	; 0x3c
    1610:	7d af       	std	Y+61, r23	; 0x3d
    1612:	8e af       	std	Y+62, r24	; 0x3e
    1614:	9f af       	std	Y+63, r25	; 0x3f
    1616:	af 97       	sbiw	r28, 0x2f	; 47
    1618:	ad 96       	adiw	r28, 0x2d	; 45
    161a:	8e ad       	ldd	r24, Y+62	; 0x3e
    161c:	9f ad       	ldd	r25, Y+63	; 0x3f
    161e:	ad 97       	sbiw	r28, 0x2d	; 45
    1620:	9e af       	std	Y+62, r25	; 0x3e
    1622:	8d af       	std	Y+61, r24	; 0x3d
    1624:	2d ad       	ldd	r18, Y+61	; 0x3d
    1626:	3e ad       	ldd	r19, Y+62	; 0x3e
    1628:	ce 01       	movw	r24, r28
    162a:	cf 96       	adiw	r24, 0x3f	; 63
    162c:	dc 01       	movw	r26, r24
    162e:	2d 93       	st	X+, r18
    1630:	3c 93       	st	X, r19

00001632 <.LBB208>:
	__asm__ volatile (
    1632:	ce 01       	movw	r24, r28
    1634:	cf 96       	adiw	r24, 0x3f	; 63
    1636:	fc 01       	movw	r30, r24
    1638:	80 81       	ld	r24, Z
    163a:	91 81       	ldd	r25, Z+1	; 0x01

0000163c <.L1^B20>:
    163c:	01 97       	sbiw	r24, 0x01	; 1
    163e:	f1 f7       	brne	.-4      	; 0x163c <.L1^B20>
    1640:	9e 01       	movw	r18, r28
    1642:	21 5c       	subi	r18, 0xC1	; 193
    1644:	3f 4f       	sbci	r19, 0xFF	; 255
    1646:	d9 01       	movw	r26, r18
    1648:	11 96       	adiw	r26, 0x01	; 1
    164a:	9c 93       	st	X, r25
    164c:	8e 93       	st	-X, r24

0000164e <.Loc.250>:
	...

00001650 <.LBE208>:
		return;
    1650:	24 c0       	rjmp	.+72     	; 0x169a <.L138>

00001652 <.L169>:
		__ticks = (uint8_t)__tmp;
    1652:	6e a1       	ldd	r22, Y+38	; 0x26
    1654:	7f a1       	ldd	r23, Y+39	; 0x27
    1656:	88 a5       	ldd	r24, Y+40	; 0x28
    1658:	99 a5       	ldd	r25, Y+41	; 0x29
    165a:	0e 94 ba 31 	call	0x6374	; 0x6374 <__fixunssfsi>
    165e:	e3 96       	adiw	r28, 0x33	; 51
    1660:	6c af       	std	Y+60, r22	; 0x3c
    1662:	7d af       	std	Y+61, r23	; 0x3d
    1664:	8e af       	std	Y+62, r24	; 0x3e
    1666:	9f af       	std	Y+63, r25	; 0x3f
    1668:	e3 97       	sbiw	r28, 0x33	; 51
    166a:	e0 96       	adiw	r28, 0x30	; 48
    166c:	bf ad       	ldd	r27, Y+63	; 0x3f
    166e:	e0 97       	sbiw	r28, 0x30	; 48
    1670:	be a7       	std	Y+46, r27	; 0x2e

00001672 <.L125>:
    1672:	ce 01       	movw	r24, r28
    1674:	8f 5b       	subi	r24, 0xBF	; 191
    1676:	9f 4f       	sbci	r25, 0xFF	; 255
    1678:	2e a5       	ldd	r18, Y+46	; 0x2e
    167a:	fc 01       	movw	r30, r24
    167c:	20 83       	st	Z, r18

0000167e <.LBB210>:
	__asm__ volatile (
    167e:	ce 01       	movw	r24, r28
    1680:	8f 5b       	subi	r24, 0xBF	; 191
    1682:	9f 4f       	sbci	r25, 0xFF	; 255
    1684:	dc 01       	movw	r26, r24
    1686:	8c 91       	ld	r24, X
    1688:	28 2f       	mov	r18, r24

0000168a <.L1^B21>:
    168a:	2a 95       	dec	r18
    168c:	f1 f7       	brne	.-4      	; 0x168a <.L1^B21>
    168e:	ce 01       	movw	r24, r28
    1690:	8f 5b       	subi	r24, 0xBF	; 191
    1692:	9f 4f       	sbci	r25, 0xFF	; 255
    1694:	fc 01       	movw	r30, r24
    1696:	20 83       	st	Z, r18

00001698 <.Loc.254>:
	...

0000169a <.L138>:
    _delay_us(1);                   // implement 'Data set-up time' (80 nS) and 'Enable pulse width' (230 nS)
    disable_E_Pin;                  // Enable pin low
    169a:	88 e2       	ldi	r24, 0x28	; 40
    169c:	90 e0       	ldi	r25, 0x00	; 0
    169e:	dc 01       	movw	r26, r24
    16a0:	2c 91       	ld	r18, X
    16a2:	88 e2       	ldi	r24, 0x28	; 40
    16a4:	90 e0       	ldi	r25, 0x00	; 0
    16a6:	27 7f       	andi	r18, 0xF7	; 247
    16a8:	fc 01       	movw	r30, r24
    16aa:	20 83       	st	Z, r18
    16ac:	80 e0       	ldi	r24, 0x00	; 0
    16ae:	90 e0       	ldi	r25, 0x00	; 0
    16b0:	a0 e8       	ldi	r26, 0x80	; 128
    16b2:	bf e3       	ldi	r27, 0x3F	; 63
    16b4:	8a 83       	std	Y+2, r24	; 0x02
    16b6:	9b 83       	std	Y+3, r25	; 0x03
    16b8:	ac 83       	std	Y+4, r26	; 0x04
    16ba:	bd 83       	std	Y+5, r27	; 0x05

000016bc <.LBB212>:
	__tmp = ((F_CPU) / 3e6) * __us;
    16bc:	2b ea       	ldi	r18, 0xAB	; 171
    16be:	3a ea       	ldi	r19, 0xAA	; 170
    16c0:	4a ea       	ldi	r20, 0xAA	; 170
    16c2:	50 e4       	ldi	r21, 0x40	; 64
    16c4:	6a 81       	ldd	r22, Y+2	; 0x02
    16c6:	7b 81       	ldd	r23, Y+3	; 0x03
    16c8:	8c 81       	ldd	r24, Y+4	; 0x04
    16ca:	9d 81       	ldd	r25, Y+5	; 0x05
    16cc:	0e 94 a0 32 	call	0x6540	; 0x6540 <__mulsf3>
    16d0:	e7 96       	adiw	r28, 0x37	; 55
    16d2:	6c af       	std	Y+60, r22	; 0x3c
    16d4:	7d af       	std	Y+61, r23	; 0x3d
    16d6:	8e af       	std	Y+62, r24	; 0x3e
    16d8:	9f af       	std	Y+63, r25	; 0x3f
    16da:	e7 97       	sbiw	r28, 0x37	; 55
    16dc:	e7 96       	adiw	r28, 0x37	; 55
    16de:	8c ad       	ldd	r24, Y+60	; 0x3c
    16e0:	9d ad       	ldd	r25, Y+61	; 0x3d
    16e2:	ae ad       	ldd	r26, Y+62	; 0x3e
    16e4:	bf ad       	ldd	r27, Y+63	; 0x3f
    16e6:	e7 97       	sbiw	r28, 0x37	; 55
    16e8:	8e 83       	std	Y+6, r24	; 0x06
    16ea:	9f 83       	std	Y+7, r25	; 0x07
    16ec:	a8 87       	std	Y+8, r26	; 0x08
    16ee:	b9 87       	std	Y+9, r27	; 0x09

000016f0 <.Loc.257>:
	__tmp2 = ((F_CPU) / 4e6) * __us;
    16f0:	20 e0       	ldi	r18, 0x00	; 0
    16f2:	30 e0       	ldi	r19, 0x00	; 0
    16f4:	40 e8       	ldi	r20, 0x80	; 128
    16f6:	50 e4       	ldi	r21, 0x40	; 64
    16f8:	6a 81       	ldd	r22, Y+2	; 0x02
    16fa:	7b 81       	ldd	r23, Y+3	; 0x03
    16fc:	8c 81       	ldd	r24, Y+4	; 0x04
    16fe:	9d 81       	ldd	r25, Y+5	; 0x05
    1700:	0e 94 a0 32 	call	0x6540	; 0x6540 <__mulsf3>
    1704:	eb 96       	adiw	r28, 0x3b	; 59
    1706:	6c af       	std	Y+60, r22	; 0x3c
    1708:	7d af       	std	Y+61, r23	; 0x3d
    170a:	8e af       	std	Y+62, r24	; 0x3e
    170c:	9f af       	std	Y+63, r25	; 0x3f
    170e:	eb 97       	sbiw	r28, 0x3b	; 59
    1710:	eb 96       	adiw	r28, 0x3b	; 59
    1712:	8c ad       	ldd	r24, Y+60	; 0x3c
    1714:	9d ad       	ldd	r25, Y+61	; 0x3d
    1716:	ae ad       	ldd	r26, Y+62	; 0x3e
    1718:	bf ad       	ldd	r27, Y+63	; 0x3f
    171a:	eb 97       	sbiw	r28, 0x3b	; 59
    171c:	8a 87       	std	Y+10, r24	; 0x0a
    171e:	9b 87       	std	Y+11, r25	; 0x0b
    1720:	ac 87       	std	Y+12, r26	; 0x0c
    1722:	bd 87       	std	Y+13, r27	; 0x0d

00001724 <.Loc.258>:
	if (__tmp < 1.0)
    1724:	20 e0       	ldi	r18, 0x00	; 0
    1726:	30 e0       	ldi	r19, 0x00	; 0
    1728:	40 e8       	ldi	r20, 0x80	; 128
    172a:	5f e3       	ldi	r21, 0x3F	; 63
    172c:	6e 81       	ldd	r22, Y+6	; 0x06
    172e:	7f 81       	ldd	r23, Y+7	; 0x07
    1730:	88 85       	ldd	r24, Y+8	; 0x08
    1732:	99 85       	ldd	r25, Y+9	; 0x09
    1734:	0e 94 3c 31 	call	0x6278	; 0x6278 <__cmpsf2>
    1738:	88 23       	and	r24, r24
    173a:	1c f4       	brge	.+6      	; 0x1742 <.L170>

0000173c <.Loc.259>:
		__ticks = 1;
    173c:	81 e0       	ldi	r24, 0x01	; 1
    173e:	8e 87       	std	Y+14, r24	; 0x0e
    1740:	17 c1       	rjmp	.+558    	; 0x1970 <.L141>

00001742 <.L170>:
	else if (__tmp2 > 65535)
    1742:	20 e0       	ldi	r18, 0x00	; 0
    1744:	3f ef       	ldi	r19, 0xFF	; 255
    1746:	4f e7       	ldi	r20, 0x7F	; 127
    1748:	57 e4       	ldi	r21, 0x47	; 71
    174a:	6a 85       	ldd	r22, Y+10	; 0x0a
    174c:	7b 85       	ldd	r23, Y+11	; 0x0b
    174e:	8c 85       	ldd	r24, Y+12	; 0x0c
    1750:	9d 85       	ldd	r25, Y+13	; 0x0d
    1752:	0e 94 9b 32 	call	0x6536	; 0x6536 <__gesf2>
    1756:	88 23       	and	r24, r24
    1758:	09 f0       	breq	.+2      	; 0x175c <L0^A>

0000175a <L0^A>:
    175a:	0c f4       	brge	.+2      	; 0x175e <.Loc.261>

0000175c <L0^A>:
    175c:	c6 c0       	rjmp	.+396    	; 0x18ea <.L171>

0000175e <.Loc.261>:
		_delay_ms(__us / 1000.0);
    175e:	20 e0       	ldi	r18, 0x00	; 0
    1760:	30 e0       	ldi	r19, 0x00	; 0
    1762:	4a e7       	ldi	r20, 0x7A	; 122
    1764:	54 e4       	ldi	r21, 0x44	; 68
    1766:	6a 81       	ldd	r22, Y+2	; 0x02
    1768:	7b 81       	ldd	r23, Y+3	; 0x03
    176a:	8c 81       	ldd	r24, Y+4	; 0x04
    176c:	9d 81       	ldd	r25, Y+5	; 0x05
    176e:	0e 94 41 31 	call	0x6282	; 0x6282 <__divsf3>
    1772:	ef 96       	adiw	r28, 0x3f	; 63
    1774:	6c af       	std	Y+60, r22	; 0x3c
    1776:	7d af       	std	Y+61, r23	; 0x3d
    1778:	8e af       	std	Y+62, r24	; 0x3e
    177a:	9f af       	std	Y+63, r25	; 0x3f
    177c:	ef 97       	sbiw	r28, 0x3f	; 63
    177e:	ef 96       	adiw	r28, 0x3f	; 63
    1780:	8c ad       	ldd	r24, Y+60	; 0x3c
    1782:	9d ad       	ldd	r25, Y+61	; 0x3d
    1784:	ae ad       	ldd	r26, Y+62	; 0x3e
    1786:	bf ad       	ldd	r27, Y+63	; 0x3f
    1788:	ef 97       	sbiw	r28, 0x3f	; 63
    178a:	8f 87       	std	Y+15, r24	; 0x0f
    178c:	98 8b       	std	Y+16, r25	; 0x10
    178e:	a9 8b       	std	Y+17, r26	; 0x11
    1790:	ba 8b       	std	Y+18, r27	; 0x12

00001792 <.LBB214>:
	__tmp = ((F_CPU) / 4e3) * __ms;
    1792:	20 e0       	ldi	r18, 0x00	; 0
    1794:	30 e0       	ldi	r19, 0x00	; 0
    1796:	4a e7       	ldi	r20, 0x7A	; 122
    1798:	55 e4       	ldi	r21, 0x45	; 69
    179a:	6f 85       	ldd	r22, Y+15	; 0x0f
    179c:	78 89       	ldd	r23, Y+16	; 0x10
    179e:	89 89       	ldd	r24, Y+17	; 0x11
    17a0:	9a 89       	ldd	r25, Y+18	; 0x12
    17a2:	0e 94 a0 32 	call	0x6540	; 0x6540 <__mulsf3>
    17a6:	c1 58       	subi	r28, 0x81	; 129
    17a8:	df 4f       	sbci	r29, 0xFF	; 255
    17aa:	68 83       	st	Y, r22
    17ac:	79 83       	std	Y+1, r23	; 0x01
    17ae:	8a 83       	std	Y+2, r24	; 0x02
    17b0:	9b 83       	std	Y+3, r25	; 0x03
    17b2:	cf 57       	subi	r28, 0x7F	; 127
    17b4:	d0 40       	sbci	r29, 0x00	; 0
    17b6:	c1 58       	subi	r28, 0x81	; 129
    17b8:	df 4f       	sbci	r29, 0xFF	; 255
    17ba:	88 81       	ld	r24, Y
    17bc:	99 81       	ldd	r25, Y+1	; 0x01
    17be:	aa 81       	ldd	r26, Y+2	; 0x02
    17c0:	bb 81       	ldd	r27, Y+3	; 0x03
    17c2:	cf 57       	subi	r28, 0x7F	; 127
    17c4:	d0 40       	sbci	r29, 0x00	; 0
    17c6:	8b 8b       	std	Y+19, r24	; 0x13
    17c8:	9c 8b       	std	Y+20, r25	; 0x14
    17ca:	ad 8b       	std	Y+21, r26	; 0x15
    17cc:	be 8b       	std	Y+22, r27	; 0x16

000017ce <.Loc.263>:
	if (__tmp < 1.0)
    17ce:	20 e0       	ldi	r18, 0x00	; 0
    17d0:	30 e0       	ldi	r19, 0x00	; 0
    17d2:	40 e8       	ldi	r20, 0x80	; 128
    17d4:	5f e3       	ldi	r21, 0x3F	; 63
    17d6:	6b 89       	ldd	r22, Y+19	; 0x13
    17d8:	7c 89       	ldd	r23, Y+20	; 0x14
    17da:	8d 89       	ldd	r24, Y+21	; 0x15
    17dc:	9e 89       	ldd	r25, Y+22	; 0x16
    17de:	0e 94 3c 31 	call	0x6278	; 0x6278 <__cmpsf2>
    17e2:	88 23       	and	r24, r24
    17e4:	2c f4       	brge	.+10     	; 0x17f0 <.L172>

000017e6 <.Loc.264>:
		__ticks = 1;
    17e6:	81 e0       	ldi	r24, 0x01	; 1
    17e8:	90 e0       	ldi	r25, 0x00	; 0
    17ea:	98 8f       	std	Y+24, r25	; 0x18
    17ec:	8f 8b       	std	Y+23, r24	; 0x17
    17ee:	72 c0       	rjmp	.+228    	; 0x18d4 <.L146>

000017f0 <.L172>:
	else if (__tmp > 65535)
    17f0:	20 e0       	ldi	r18, 0x00	; 0
    17f2:	3f ef       	ldi	r19, 0xFF	; 255
    17f4:	4f e7       	ldi	r20, 0x7F	; 127
    17f6:	57 e4       	ldi	r21, 0x47	; 71
    17f8:	6b 89       	ldd	r22, Y+19	; 0x13
    17fa:	7c 89       	ldd	r23, Y+20	; 0x14
    17fc:	8d 89       	ldd	r24, Y+21	; 0x15
    17fe:	9e 89       	ldd	r25, Y+22	; 0x16
    1800:	0e 94 9b 32 	call	0x6536	; 0x6536 <__gesf2>
    1804:	88 23       	and	r24, r24
    1806:	09 f0       	breq	.+2      	; 0x180a <L0^A>

00001808 <L0^A>:
    1808:	0c f4       	brge	.+2      	; 0x180c <.Loc.266>

0000180a <L0^A>:
    180a:	4e c0       	rjmp	.+156    	; 0x18a8 <.L173>

0000180c <.Loc.266>:
		__ticks = (uint16_t) (__ms * 10.0);
    180c:	20 e0       	ldi	r18, 0x00	; 0
    180e:	30 e0       	ldi	r19, 0x00	; 0
    1810:	40 e2       	ldi	r20, 0x20	; 32
    1812:	51 e4       	ldi	r21, 0x41	; 65
    1814:	6f 85       	ldd	r22, Y+15	; 0x0f
    1816:	78 89       	ldd	r23, Y+16	; 0x10
    1818:	89 89       	ldd	r24, Y+17	; 0x11
    181a:	9a 89       	ldd	r25, Y+18	; 0x12
    181c:	0e 94 a0 32 	call	0x6540	; 0x6540 <__mulsf3>
    1820:	cd 57       	subi	r28, 0x7D	; 125
    1822:	df 4f       	sbci	r29, 0xFF	; 255
    1824:	68 83       	st	Y, r22
    1826:	79 83       	std	Y+1, r23	; 0x01
    1828:	8a 83       	std	Y+2, r24	; 0x02
    182a:	9b 83       	std	Y+3, r25	; 0x03
    182c:	c3 58       	subi	r28, 0x83	; 131
    182e:	d0 40       	sbci	r29, 0x00	; 0
    1830:	cd 57       	subi	r28, 0x7D	; 125
    1832:	df 4f       	sbci	r29, 0xFF	; 255
    1834:	88 81       	ld	r24, Y
    1836:	99 81       	ldd	r25, Y+1	; 0x01
    1838:	aa 81       	ldd	r26, Y+2	; 0x02
    183a:	bb 81       	ldd	r27, Y+3	; 0x03
    183c:	c3 58       	subi	r28, 0x83	; 131
    183e:	d0 40       	sbci	r29, 0x00	; 0
    1840:	2b 96       	adiw	r28, 0x0b	; 11
    1842:	8c af       	std	Y+60, r24	; 0x3c
    1844:	9d af       	std	Y+61, r25	; 0x3d
    1846:	ae af       	std	Y+62, r26	; 0x3e
    1848:	bf af       	std	Y+63, r27	; 0x3f
    184a:	2b 97       	sbiw	r28, 0x0b	; 11

0000184c <.Loc.267>:
    184c:	2b 96       	adiw	r28, 0x0b	; 11
    184e:	6c ad       	ldd	r22, Y+60	; 0x3c
    1850:	7d ad       	ldd	r23, Y+61	; 0x3d
    1852:	8e ad       	ldd	r24, Y+62	; 0x3e
    1854:	9f ad       	ldd	r25, Y+63	; 0x3f
    1856:	2b 97       	sbiw	r28, 0x0b	; 11
    1858:	0e 94 ba 31 	call	0x6374	; 0x6374 <__fixunssfsi>
    185c:	c9 57       	subi	r28, 0x79	; 121
    185e:	df 4f       	sbci	r29, 0xFF	; 255
    1860:	68 83       	st	Y, r22
    1862:	79 83       	std	Y+1, r23	; 0x01
    1864:	8a 83       	std	Y+2, r24	; 0x02
    1866:	9b 83       	std	Y+3, r25	; 0x03
    1868:	c7 58       	subi	r28, 0x87	; 135
    186a:	d0 40       	sbci	r29, 0x00	; 0
    186c:	c9 57       	subi	r28, 0x79	; 121
    186e:	df 4f       	sbci	r29, 0xFF	; 255
    1870:	a8 81       	ld	r26, Y
    1872:	b9 81       	ldd	r27, Y+1	; 0x01
    1874:	c7 58       	subi	r28, 0x87	; 135
    1876:	d0 40       	sbci	r29, 0x00	; 0
    1878:	b8 8f       	std	Y+24, r27	; 0x18
    187a:	af 8b       	std	Y+23, r26	; 0x17

0000187c <.Loc.268>:
		while(__ticks)
    187c:	10 c0       	rjmp	.+32     	; 0x189e <.L149>

0000187e <.L150>:
    187e:	80 e9       	ldi	r24, 0x90	; 144
    1880:	91 e0       	ldi	r25, 0x01	; 1
    1882:	9a 8f       	std	Y+26, r25	; 0x1a
    1884:	89 8f       	std	Y+25, r24	; 0x19

00001886 <.LBB216>:
	__asm__ volatile (
    1886:	89 8d       	ldd	r24, Y+25	; 0x19
    1888:	9a 8d       	ldd	r25, Y+26	; 0x1a

0000188a <.L1^B22>:
    188a:	01 97       	sbiw	r24, 0x01	; 1
    188c:	f1 f7       	brne	.-4      	; 0x188a <.L1^B22>
    188e:	9a 8f       	std	Y+26, r25	; 0x1a
    1890:	89 8f       	std	Y+25, r24	; 0x19

00001892 <.Loc.270>:
	...

00001894 <.LBE216>:
			__ticks --;
    1894:	8f 89       	ldd	r24, Y+23	; 0x17
    1896:	98 8d       	ldd	r25, Y+24	; 0x18
    1898:	01 97       	sbiw	r24, 0x01	; 1
    189a:	98 8f       	std	Y+24, r25	; 0x18
    189c:	8f 8b       	std	Y+23, r24	; 0x17

0000189e <.L149>:
		while(__ticks)
    189e:	8f 89       	ldd	r24, Y+23	; 0x17
    18a0:	98 8d       	ldd	r25, Y+24	; 0x18
    18a2:	00 97       	sbiw	r24, 0x00	; 0
    18a4:	61 f7       	brne	.-40     	; 0x187e <.L150>

000018a6 <.Loc.273>:
		return;
    18a6:	64 c0       	rjmp	.+200    	; 0x1970 <.L141>

000018a8 <.L173>:
		__ticks = (uint16_t)__tmp;
    18a8:	6b 89       	ldd	r22, Y+19	; 0x13
    18aa:	7c 89       	ldd	r23, Y+20	; 0x14
    18ac:	8d 89       	ldd	r24, Y+21	; 0x15
    18ae:	9e 89       	ldd	r25, Y+22	; 0x16
    18b0:	0e 94 ba 31 	call	0x6374	; 0x6374 <__fixunssfsi>
    18b4:	c5 57       	subi	r28, 0x75	; 117
    18b6:	df 4f       	sbci	r29, 0xFF	; 255
    18b8:	68 83       	st	Y, r22
    18ba:	79 83       	std	Y+1, r23	; 0x01
    18bc:	8a 83       	std	Y+2, r24	; 0x02
    18be:	9b 83       	std	Y+3, r25	; 0x03
    18c0:	cb 58       	subi	r28, 0x8B	; 139
    18c2:	d0 40       	sbci	r29, 0x00	; 0
    18c4:	c5 57       	subi	r28, 0x75	; 117
    18c6:	df 4f       	sbci	r29, 0xFF	; 255
    18c8:	e8 81       	ld	r30, Y
    18ca:	f9 81       	ldd	r31, Y+1	; 0x01
    18cc:	cb 58       	subi	r28, 0x8B	; 139
    18ce:	d0 40       	sbci	r29, 0x00	; 0
    18d0:	f8 8f       	std	Y+24, r31	; 0x18
    18d2:	ef 8b       	std	Y+23, r30	; 0x17

000018d4 <.L146>:
    18d4:	8f 89       	ldd	r24, Y+23	; 0x17
    18d6:	98 8d       	ldd	r25, Y+24	; 0x18
    18d8:	9c 8f       	std	Y+28, r25	; 0x1c
    18da:	8b 8f       	std	Y+27, r24	; 0x1b

000018dc <.LBB218>:
    18dc:	8b 8d       	ldd	r24, Y+27	; 0x1b
    18de:	9c 8d       	ldd	r25, Y+28	; 0x1c

000018e0 <.L1^B23>:
    18e0:	01 97       	sbiw	r24, 0x01	; 1
    18e2:	f1 f7       	brne	.-4      	; 0x18e0 <.L1^B23>
    18e4:	9c 8f       	std	Y+28, r25	; 0x1c
    18e6:	8b 8f       	std	Y+27, r24	; 0x1b

000018e8 <.Loc.276>:
}
    18e8:	43 c0       	rjmp	.+134    	; 0x1970 <.L141>

000018ea <.L171>:
	else if (__tmp > 255)
    18ea:	20 e0       	ldi	r18, 0x00	; 0
    18ec:	30 e0       	ldi	r19, 0x00	; 0
    18ee:	4f e7       	ldi	r20, 0x7F	; 127
    18f0:	53 e4       	ldi	r21, 0x43	; 67
    18f2:	6e 81       	ldd	r22, Y+6	; 0x06
    18f4:	7f 81       	ldd	r23, Y+7	; 0x07
    18f6:	88 85       	ldd	r24, Y+8	; 0x08
    18f8:	99 85       	ldd	r25, Y+9	; 0x09
    18fa:	0e 94 9b 32 	call	0x6536	; 0x6536 <__gesf2>
    18fe:	88 23       	and	r24, r24
    1900:	19 f1       	breq	.+70     	; 0x1948 <.L174>
    1902:	14 f1       	brlt	.+68     	; 0x1948 <.L174>

00001904 <.LBB220>:
		uint16_t __ticks=(uint16_t)__tmp2;
    1904:	6a 85       	ldd	r22, Y+10	; 0x0a
    1906:	7b 85       	ldd	r23, Y+11	; 0x0b
    1908:	8c 85       	ldd	r24, Y+12	; 0x0c
    190a:	9d 85       	ldd	r25, Y+13	; 0x0d
    190c:	0e 94 ba 31 	call	0x6374	; 0x6374 <__fixunssfsi>
    1910:	c1 57       	subi	r28, 0x71	; 113
    1912:	df 4f       	sbci	r29, 0xFF	; 255
    1914:	68 83       	st	Y, r22
    1916:	79 83       	std	Y+1, r23	; 0x01
    1918:	8a 83       	std	Y+2, r24	; 0x02
    191a:	9b 83       	std	Y+3, r25	; 0x03
    191c:	cf 58       	subi	r28, 0x8F	; 143
    191e:	d0 40       	sbci	r29, 0x00	; 0
    1920:	c1 57       	subi	r28, 0x71	; 113
    1922:	df 4f       	sbci	r29, 0xFF	; 255
    1924:	88 81       	ld	r24, Y
    1926:	99 81       	ldd	r25, Y+1	; 0x01
    1928:	cf 58       	subi	r28, 0x8F	; 143
    192a:	d0 40       	sbci	r29, 0x00	; 0
    192c:	9e 8f       	std	Y+30, r25	; 0x1e
    192e:	8d 8f       	std	Y+29, r24	; 0x1d
    1930:	8d 8d       	ldd	r24, Y+29	; 0x1d
    1932:	9e 8d       	ldd	r25, Y+30	; 0x1e
    1934:	98 a3       	std	Y+32, r25	; 0x20
    1936:	8f 8f       	std	Y+31, r24	; 0x1f

00001938 <.LBB221>:
	__asm__ volatile (
    1938:	8f 8d       	ldd	r24, Y+31	; 0x1f
    193a:	98 a1       	ldd	r25, Y+32	; 0x20

0000193c <.L1^B24>:
    193c:	01 97       	sbiw	r24, 0x01	; 1
    193e:	f1 f7       	brne	.-4      	; 0x193c <.L1^B24>
    1940:	98 a3       	std	Y+32, r25	; 0x20
    1942:	8f 8f       	std	Y+31, r24	; 0x1f

00001944 <.Loc.280>:
	...

00001946 <.LBE221>:
		return;
    1946:	1b c0       	rjmp	.+54     	; 0x197e <.L154>

00001948 <.L174>:
		__ticks = (uint8_t)__tmp;
    1948:	6e 81       	ldd	r22, Y+6	; 0x06
    194a:	7f 81       	ldd	r23, Y+7	; 0x07
    194c:	88 85       	ldd	r24, Y+8	; 0x08
    194e:	99 85       	ldd	r25, Y+9	; 0x09
    1950:	0e 94 ba 31 	call	0x6374	; 0x6374 <__fixunssfsi>
    1954:	cd 56       	subi	r28, 0x6D	; 109
    1956:	df 4f       	sbci	r29, 0xFF	; 255
    1958:	68 83       	st	Y, r22
    195a:	79 83       	std	Y+1, r23	; 0x01
    195c:	8a 83       	std	Y+2, r24	; 0x02
    195e:	9b 83       	std	Y+3, r25	; 0x03
    1960:	c3 59       	subi	r28, 0x93	; 147
    1962:	d0 40       	sbci	r29, 0x00	; 0
    1964:	cd 56       	subi	r28, 0x6D	; 109
    1966:	df 4f       	sbci	r29, 0xFF	; 255
    1968:	98 81       	ld	r25, Y
    196a:	c3 59       	subi	r28, 0x93	; 147
    196c:	d0 40       	sbci	r29, 0x00	; 0
    196e:	9e 87       	std	Y+14, r25	; 0x0e

00001970 <.L141>:
    1970:	8e 85       	ldd	r24, Y+14	; 0x0e
    1972:	89 a3       	std	Y+33, r24	; 0x21

00001974 <.LBB223>:
	__asm__ volatile (
    1974:	89 a1       	ldd	r24, Y+33	; 0x21

00001976 <.L1^B25>:
    1976:	8a 95       	dec	r24
    1978:	f1 f7       	brne	.-4      	; 0x1976 <.L1^B25>
    197a:	89 a3       	std	Y+33, r24	; 0x21

0000197c <.Loc.284>:
	...

0000197e <.L154>:
    _delay_us(1);                   // implement 'Data hold time' (10 nS) and 'Enable cycle time' (500 nS)
}
    197e:	00 00       	nop
    1980:	c8 56       	subi	r28, 0x68	; 104
    1982:	df 4f       	sbci	r29, 0xFF	; 255
    1984:	0f b6       	in	r0, 0x3f	; 63
    1986:	f8 94       	cli
    1988:	de bf       	out	0x3e, r29	; 62
    198a:	0f be       	out	0x3f, r0	; 63
    198c:	cd bf       	out	0x3d, r28	; 61
    198e:	df 91       	pop	r29
    1990:	cf 91       	pop	r28
    1992:	08 95       	ret

00001994 <lcd_check_BF_4>:
Description:checks busy flag and wait until LCD is ready
			Desired information is the higher nibble, however both are read
			data is read while 'E' is high
******************************************************************** */
void lcd_check_BF_4(void)
{
    1994:	0f 93       	push	r16
    1996:	1f 93       	push	r17
    1998:	cf 93       	push	r28
    199a:	df 93       	push	r29
    199c:	cd b7       	in	r28, 0x3d	; 61
    199e:	de b7       	in	r29, 0x3e	; 62
    19a0:	c1 52       	subi	r28, 0x21	; 33
    19a2:	d1 40       	sbci	r29, 0x01	; 1
    19a4:	0f b6       	in	r0, 0x3f	; 63
    19a6:	f8 94       	cli
    19a8:	de bf       	out	0x3e, r29	; 62
    19aa:	0f be       	out	0x3f, r0	; 63
    19ac:	cd bf       	out	0x3d, r28	; 61

000019ae <.Loc.287>:

    uint8_t busy_flag_copy;             // busy flag 'mirror'

    set_D7_input;						// set D7 data direction to input
    19ae:	87 e2       	ldi	r24, 0x27	; 39
    19b0:	90 e0       	ldi	r25, 0x00	; 0
    19b2:	dc 01       	movw	r26, r24
    19b4:	2c 91       	ld	r18, X
    19b6:	87 e2       	ldi	r24, 0x27	; 39
    19b8:	90 e0       	ldi	r25, 0x00	; 0
    19ba:	2f 77       	andi	r18, 0x7F	; 127
    19bc:	fc 01       	movw	r30, r24
    19be:	20 83       	st	Z, r18

000019c0 <.Loc.288>:
    set_RS_LOW_Instr;					// select the Instruction Register (RS low)
    19c0:	88 e2       	ldi	r24, 0x28	; 40
    19c2:	90 e0       	ldi	r25, 0x00	; 0
    19c4:	dc 01       	movw	r26, r24
    19c6:	2c 91       	ld	r18, X
    19c8:	88 e2       	ldi	r24, 0x28	; 40
    19ca:	90 e0       	ldi	r25, 0x00	; 0
    19cc:	2d 7f       	andi	r18, 0xFD	; 253
    19ce:	fc 01       	movw	r30, r24
    19d0:	20 83       	st	Z, r18

000019d2 <.Loc.289>:
    set_RW_HIGH_read;					// read from LCD module (RW high)
    19d2:	88 e2       	ldi	r24, 0x28	; 40
    19d4:	90 e0       	ldi	r25, 0x00	; 0
    19d6:	dc 01       	movw	r26, r24
    19d8:	2c 91       	ld	r18, X
    19da:	88 e2       	ldi	r24, 0x28	; 40
    19dc:	90 e0       	ldi	r25, 0x00	; 0
    19de:	24 60       	ori	r18, 0x04	; 4
    19e0:	fc 01       	movw	r30, r24
    19e2:	20 83       	st	Z, r18

000019e4 <.L240>:

    do
    {
        busy_flag_copy = 0;                         // initialize busy flag 'mirror'
    19e4:	19 82       	std	Y+1, r1	; 0x01

000019e6 <.Loc.291>:
        lcd_Ctlr_Port |= (1<<lcd_E_bit);            // Enable pin high
    19e6:	88 e2       	ldi	r24, 0x28	; 40
    19e8:	90 e0       	ldi	r25, 0x00	; 0
    19ea:	dc 01       	movw	r26, r24
    19ec:	2c 91       	ld	r18, X
    19ee:	88 e2       	ldi	r24, 0x28	; 40
    19f0:	90 e0       	ldi	r25, 0x00	; 0

000019f2 <.Loc.292>:
    19f2:	28 60       	ori	r18, 0x08	; 8
    19f4:	fc 01       	movw	r30, r24
    19f6:	20 83       	st	Z, r18
    19f8:	9e 01       	movw	r18, r28
    19fa:	2e 59       	subi	r18, 0x9E	; 158
    19fc:	3f 4f       	sbci	r19, 0xFF	; 255
    19fe:	80 e0       	ldi	r24, 0x00	; 0
    1a00:	90 e0       	ldi	r25, 0x00	; 0
    1a02:	a0 e8       	ldi	r26, 0x80	; 128
    1a04:	bf e3       	ldi	r27, 0x3F	; 63
    1a06:	f9 01       	movw	r30, r18
    1a08:	80 83       	st	Z, r24
    1a0a:	91 83       	std	Z+1, r25	; 0x01
    1a0c:	a2 83       	std	Z+2, r26	; 0x02
    1a0e:	b3 83       	std	Z+3, r27	; 0x03

00001a10 <.LBB225>:
	__tmp = ((F_CPU) / 3e6) * __us;
    1a10:	8e 01       	movw	r16, r28
    1a12:	0a 59       	subi	r16, 0x9A	; 154
    1a14:	1f 4f       	sbci	r17, 0xFF	; 255
    1a16:	ce 01       	movw	r24, r28
    1a18:	8e 59       	subi	r24, 0x9E	; 158
    1a1a:	9f 4f       	sbci	r25, 0xFF	; 255
    1a1c:	2b ea       	ldi	r18, 0xAB	; 171
    1a1e:	3a ea       	ldi	r19, 0xAA	; 170
    1a20:	4a ea       	ldi	r20, 0xAA	; 170
    1a22:	50 e4       	ldi	r21, 0x40	; 64
    1a24:	dc 01       	movw	r26, r24
    1a26:	6d 91       	ld	r22, X+
    1a28:	7d 91       	ld	r23, X+
    1a2a:	8d 91       	ld	r24, X+
    1a2c:	9c 91       	ld	r25, X
    1a2e:	0e 94 a0 32 	call	0x6540	; 0x6540 <__mulsf3>
    1a32:	ce 56       	subi	r28, 0x6E	; 110
    1a34:	df 4f       	sbci	r29, 0xFF	; 255
    1a36:	68 83       	st	Y, r22
    1a38:	79 83       	std	Y+1, r23	; 0x01
    1a3a:	8a 83       	std	Y+2, r24	; 0x02
    1a3c:	9b 83       	std	Y+3, r25	; 0x03
    1a3e:	c2 59       	subi	r28, 0x92	; 146
    1a40:	d0 40       	sbci	r29, 0x00	; 0
    1a42:	ce 56       	subi	r28, 0x6E	; 110
    1a44:	df 4f       	sbci	r29, 0xFF	; 255
    1a46:	88 81       	ld	r24, Y
    1a48:	99 81       	ldd	r25, Y+1	; 0x01
    1a4a:	aa 81       	ldd	r26, Y+2	; 0x02
    1a4c:	bb 81       	ldd	r27, Y+3	; 0x03
    1a4e:	c2 59       	subi	r28, 0x92	; 146
    1a50:	d0 40       	sbci	r29, 0x00	; 0
    1a52:	f8 01       	movw	r30, r16
    1a54:	80 83       	st	Z, r24
    1a56:	91 83       	std	Z+1, r25	; 0x01
    1a58:	a2 83       	std	Z+2, r26	; 0x02
    1a5a:	b3 83       	std	Z+3, r27	; 0x03

00001a5c <.Loc.294>:
	__tmp2 = ((F_CPU) / 4e6) * __us;
    1a5c:	8e 01       	movw	r16, r28
    1a5e:	06 59       	subi	r16, 0x96	; 150
    1a60:	1f 4f       	sbci	r17, 0xFF	; 255
    1a62:	ce 01       	movw	r24, r28
    1a64:	8e 59       	subi	r24, 0x9E	; 158
    1a66:	9f 4f       	sbci	r25, 0xFF	; 255
    1a68:	20 e0       	ldi	r18, 0x00	; 0
    1a6a:	30 e0       	ldi	r19, 0x00	; 0
    1a6c:	40 e8       	ldi	r20, 0x80	; 128
    1a6e:	50 e4       	ldi	r21, 0x40	; 64
    1a70:	dc 01       	movw	r26, r24
    1a72:	6d 91       	ld	r22, X+
    1a74:	7d 91       	ld	r23, X+
    1a76:	8d 91       	ld	r24, X+
    1a78:	9c 91       	ld	r25, X
    1a7a:	0e 94 a0 32 	call	0x6540	; 0x6540 <__mulsf3>
    1a7e:	ca 56       	subi	r28, 0x6A	; 106
    1a80:	df 4f       	sbci	r29, 0xFF	; 255
    1a82:	68 83       	st	Y, r22
    1a84:	79 83       	std	Y+1, r23	; 0x01
    1a86:	8a 83       	std	Y+2, r24	; 0x02
    1a88:	9b 83       	std	Y+3, r25	; 0x03
    1a8a:	c6 59       	subi	r28, 0x96	; 150
    1a8c:	d0 40       	sbci	r29, 0x00	; 0
    1a8e:	ca 56       	subi	r28, 0x6A	; 106
    1a90:	df 4f       	sbci	r29, 0xFF	; 255
    1a92:	88 81       	ld	r24, Y
    1a94:	99 81       	ldd	r25, Y+1	; 0x01
    1a96:	aa 81       	ldd	r26, Y+2	; 0x02
    1a98:	bb 81       	ldd	r27, Y+3	; 0x03
    1a9a:	c6 59       	subi	r28, 0x96	; 150
    1a9c:	d0 40       	sbci	r29, 0x00	; 0
    1a9e:	f8 01       	movw	r30, r16
    1aa0:	80 83       	st	Z, r24
    1aa2:	91 83       	std	Z+1, r25	; 0x01
    1aa4:	a2 83       	std	Z+2, r26	; 0x02
    1aa6:	b3 83       	std	Z+3, r27	; 0x03

00001aa8 <.Loc.295>:
	if (__tmp < 1.0)
    1aa8:	ce 01       	movw	r24, r28
    1aaa:	8a 59       	subi	r24, 0x9A	; 154
    1aac:	9f 4f       	sbci	r25, 0xFF	; 255
    1aae:	20 e0       	ldi	r18, 0x00	; 0
    1ab0:	30 e0       	ldi	r19, 0x00	; 0
    1ab2:	40 e8       	ldi	r20, 0x80	; 128
    1ab4:	5f e3       	ldi	r21, 0x3F	; 63
    1ab6:	dc 01       	movw	r26, r24
    1ab8:	6d 91       	ld	r22, X+
    1aba:	7d 91       	ld	r23, X+
    1abc:	8d 91       	ld	r24, X+
    1abe:	9c 91       	ld	r25, X
    1ac0:	0e 94 3c 31 	call	0x6278	; 0x6278 <__cmpsf2>
    1ac4:	88 23       	and	r24, r24
    1ac6:	3c f4       	brge	.+14     	; 0x1ad6 <.L261>

00001ac8 <.Loc.296>:
		__ticks = 1;
    1ac8:	ce 01       	movw	r24, r28
    1aca:	82 59       	subi	r24, 0x92	; 146
    1acc:	9f 4f       	sbci	r25, 0xFF	; 255
    1ace:	21 e0       	ldi	r18, 0x01	; 1
    1ad0:	fc 01       	movw	r30, r24
    1ad2:	20 83       	st	Z, r18
    1ad4:	a0 c1       	rjmp	.+832    	; 0x1e16 <.L178>

00001ad6 <.L261>:
	else if (__tmp2 > 65535)
    1ad6:	ce 01       	movw	r24, r28
    1ad8:	86 59       	subi	r24, 0x96	; 150
    1ada:	9f 4f       	sbci	r25, 0xFF	; 255
    1adc:	20 e0       	ldi	r18, 0x00	; 0
    1ade:	3f ef       	ldi	r19, 0xFF	; 255
    1ae0:	4f e7       	ldi	r20, 0x7F	; 127
    1ae2:	57 e4       	ldi	r21, 0x47	; 71
    1ae4:	dc 01       	movw	r26, r24
    1ae6:	6d 91       	ld	r22, X+
    1ae8:	7d 91       	ld	r23, X+
    1aea:	8d 91       	ld	r24, X+
    1aec:	9c 91       	ld	r25, X
    1aee:	0e 94 9b 32 	call	0x6536	; 0x6536 <__gesf2>
    1af2:	88 23       	and	r24, r24
    1af4:	09 f0       	breq	.+2      	; 0x1af8 <L0^A>

00001af6 <L0^A>:
    1af6:	0c f4       	brge	.+2      	; 0x1afa <.Loc.298>

00001af8 <L0^A>:
    1af8:	26 c1       	rjmp	.+588    	; 0x1d46 <.L262>

00001afa <.Loc.298>:
		_delay_ms(__us / 1000.0);
    1afa:	ce 01       	movw	r24, r28
    1afc:	8e 59       	subi	r24, 0x9E	; 158
    1afe:	9f 4f       	sbci	r25, 0xFF	; 255
    1b00:	20 e0       	ldi	r18, 0x00	; 0
    1b02:	30 e0       	ldi	r19, 0x00	; 0
    1b04:	4a e7       	ldi	r20, 0x7A	; 122
    1b06:	54 e4       	ldi	r21, 0x44	; 68
    1b08:	fc 01       	movw	r30, r24
    1b0a:	60 81       	ld	r22, Z
    1b0c:	71 81       	ldd	r23, Z+1	; 0x01
    1b0e:	82 81       	ldd	r24, Z+2	; 0x02
    1b10:	93 81       	ldd	r25, Z+3	; 0x03
    1b12:	0e 94 41 31 	call	0x6282	; 0x6282 <__divsf3>
    1b16:	c6 56       	subi	r28, 0x66	; 102
    1b18:	df 4f       	sbci	r29, 0xFF	; 255
    1b1a:	68 83       	st	Y, r22
    1b1c:	79 83       	std	Y+1, r23	; 0x01
    1b1e:	8a 83       	std	Y+2, r24	; 0x02
    1b20:	9b 83       	std	Y+3, r25	; 0x03
    1b22:	ca 59       	subi	r28, 0x9A	; 154
    1b24:	d0 40       	sbci	r29, 0x00	; 0
    1b26:	c6 56       	subi	r28, 0x66	; 102
    1b28:	df 4f       	sbci	r29, 0xFF	; 255
    1b2a:	88 81       	ld	r24, Y
    1b2c:	99 81       	ldd	r25, Y+1	; 0x01
    1b2e:	aa 81       	ldd	r26, Y+2	; 0x02
    1b30:	bb 81       	ldd	r27, Y+3	; 0x03
    1b32:	ca 59       	subi	r28, 0x9A	; 154
    1b34:	d0 40       	sbci	r29, 0x00	; 0
    1b36:	9e 01       	movw	r18, r28
    1b38:	21 59       	subi	r18, 0x91	; 145
    1b3a:	3f 4f       	sbci	r19, 0xFF	; 255
    1b3c:	f9 01       	movw	r30, r18
    1b3e:	80 83       	st	Z, r24
    1b40:	91 83       	std	Z+1, r25	; 0x01
    1b42:	a2 83       	std	Z+2, r26	; 0x02
    1b44:	b3 83       	std	Z+3, r27	; 0x03

00001b46 <.LBB227>:
	__tmp = ((F_CPU) / 4e3) * __ms;
    1b46:	8e 01       	movw	r16, r28
    1b48:	0d 58       	subi	r16, 0x8D	; 141
    1b4a:	1f 4f       	sbci	r17, 0xFF	; 255
    1b4c:	ce 01       	movw	r24, r28
    1b4e:	81 59       	subi	r24, 0x91	; 145
    1b50:	9f 4f       	sbci	r25, 0xFF	; 255
    1b52:	20 e0       	ldi	r18, 0x00	; 0
    1b54:	30 e0       	ldi	r19, 0x00	; 0
    1b56:	4a e7       	ldi	r20, 0x7A	; 122
    1b58:	55 e4       	ldi	r21, 0x45	; 69
    1b5a:	dc 01       	movw	r26, r24
    1b5c:	6d 91       	ld	r22, X+
    1b5e:	7d 91       	ld	r23, X+
    1b60:	8d 91       	ld	r24, X+
    1b62:	9c 91       	ld	r25, X
    1b64:	0e 94 a0 32 	call	0x6540	; 0x6540 <__mulsf3>
    1b68:	c2 56       	subi	r28, 0x62	; 98
    1b6a:	df 4f       	sbci	r29, 0xFF	; 255
    1b6c:	68 83       	st	Y, r22
    1b6e:	79 83       	std	Y+1, r23	; 0x01
    1b70:	8a 83       	std	Y+2, r24	; 0x02
    1b72:	9b 83       	std	Y+3, r25	; 0x03
    1b74:	ce 59       	subi	r28, 0x9E	; 158
    1b76:	d0 40       	sbci	r29, 0x00	; 0
    1b78:	c2 56       	subi	r28, 0x62	; 98
    1b7a:	df 4f       	sbci	r29, 0xFF	; 255
    1b7c:	88 81       	ld	r24, Y
    1b7e:	99 81       	ldd	r25, Y+1	; 0x01
    1b80:	aa 81       	ldd	r26, Y+2	; 0x02
    1b82:	bb 81       	ldd	r27, Y+3	; 0x03
    1b84:	ce 59       	subi	r28, 0x9E	; 158
    1b86:	d0 40       	sbci	r29, 0x00	; 0
    1b88:	f8 01       	movw	r30, r16
    1b8a:	80 83       	st	Z, r24
    1b8c:	91 83       	std	Z+1, r25	; 0x01
    1b8e:	a2 83       	std	Z+2, r26	; 0x02
    1b90:	b3 83       	std	Z+3, r27	; 0x03

00001b92 <.Loc.300>:
	if (__tmp < 1.0)
    1b92:	ce 01       	movw	r24, r28
    1b94:	8d 58       	subi	r24, 0x8D	; 141
    1b96:	9f 4f       	sbci	r25, 0xFF	; 255
    1b98:	20 e0       	ldi	r18, 0x00	; 0
    1b9a:	30 e0       	ldi	r19, 0x00	; 0
    1b9c:	40 e8       	ldi	r20, 0x80	; 128
    1b9e:	5f e3       	ldi	r21, 0x3F	; 63
    1ba0:	dc 01       	movw	r26, r24
    1ba2:	6d 91       	ld	r22, X+
    1ba4:	7d 91       	ld	r23, X+
    1ba6:	8d 91       	ld	r24, X+
    1ba8:	9c 91       	ld	r25, X
    1baa:	0e 94 3c 31 	call	0x6278	; 0x6278 <__cmpsf2>
    1bae:	88 23       	and	r24, r24
    1bb0:	4c f4       	brge	.+18     	; 0x1bc4 <.L263>

00001bb2 <.Loc.301>:
		__ticks = 1;
    1bb2:	ce 01       	movw	r24, r28
    1bb4:	89 58       	subi	r24, 0x89	; 137
    1bb6:	9f 4f       	sbci	r25, 0xFF	; 255
    1bb8:	21 e0       	ldi	r18, 0x01	; 1
    1bba:	30 e0       	ldi	r19, 0x00	; 0
    1bbc:	fc 01       	movw	r30, r24
    1bbe:	31 83       	std	Z+1, r19	; 0x01
    1bc0:	20 83       	st	Z, r18
    1bc2:	a5 c0       	rjmp	.+330    	; 0x1d0e <.L183>

00001bc4 <.L263>:
	else if (__tmp > 65535)
    1bc4:	ce 01       	movw	r24, r28
    1bc6:	8d 58       	subi	r24, 0x8D	; 141
    1bc8:	9f 4f       	sbci	r25, 0xFF	; 255
    1bca:	20 e0       	ldi	r18, 0x00	; 0
    1bcc:	3f ef       	ldi	r19, 0xFF	; 255
    1bce:	4f e7       	ldi	r20, 0x7F	; 127
    1bd0:	57 e4       	ldi	r21, 0x47	; 71
    1bd2:	dc 01       	movw	r26, r24
    1bd4:	6d 91       	ld	r22, X+
    1bd6:	7d 91       	ld	r23, X+
    1bd8:	8d 91       	ld	r24, X+
    1bda:	9c 91       	ld	r25, X
    1bdc:	0e 94 9b 32 	call	0x6536	; 0x6536 <__gesf2>
    1be0:	88 23       	and	r24, r24
    1be2:	09 f0       	breq	.+2      	; 0x1be6 <L0^A>

00001be4 <L0^A>:
    1be4:	0c f4       	brge	.+2      	; 0x1be8 <.Loc.303>

00001be6 <L0^A>:
    1be6:	75 c0       	rjmp	.+234    	; 0x1cd2 <.L264>

00001be8 <.Loc.303>:
		__ticks = (uint16_t) (__ms * 10.0);
    1be8:	ce 01       	movw	r24, r28
    1bea:	81 59       	subi	r24, 0x91	; 145
    1bec:	9f 4f       	sbci	r25, 0xFF	; 255
    1bee:	20 e0       	ldi	r18, 0x00	; 0
    1bf0:	30 e0       	ldi	r19, 0x00	; 0
    1bf2:	40 e2       	ldi	r20, 0x20	; 32
    1bf4:	51 e4       	ldi	r21, 0x41	; 65
    1bf6:	fc 01       	movw	r30, r24
    1bf8:	60 81       	ld	r22, Z
    1bfa:	71 81       	ldd	r23, Z+1	; 0x01
    1bfc:	82 81       	ldd	r24, Z+2	; 0x02
    1bfe:	93 81       	ldd	r25, Z+3	; 0x03
    1c00:	0e 94 a0 32 	call	0x6540	; 0x6540 <__mulsf3>
    1c04:	ce 55       	subi	r28, 0x5E	; 94
    1c06:	df 4f       	sbci	r29, 0xFF	; 255
    1c08:	68 83       	st	Y, r22
    1c0a:	79 83       	std	Y+1, r23	; 0x01
    1c0c:	8a 83       	std	Y+2, r24	; 0x02
    1c0e:	9b 83       	std	Y+3, r25	; 0x03
    1c10:	c2 5a       	subi	r28, 0xA2	; 162
    1c12:	d0 40       	sbci	r29, 0x00	; 0
    1c14:	ce 55       	subi	r28, 0x5E	; 94
    1c16:	df 4f       	sbci	r29, 0xFF	; 255
    1c18:	88 81       	ld	r24, Y
    1c1a:	99 81       	ldd	r25, Y+1	; 0x01
    1c1c:	aa 81       	ldd	r26, Y+2	; 0x02
    1c1e:	bb 81       	ldd	r27, Y+3	; 0x03
    1c20:	c2 5a       	subi	r28, 0xA2	; 162
    1c22:	d0 40       	sbci	r29, 0x00	; 0
    1c24:	c2 57       	subi	r28, 0x72	; 114
    1c26:	df 4f       	sbci	r29, 0xFF	; 255
    1c28:	88 83       	st	Y, r24
    1c2a:	99 83       	std	Y+1, r25	; 0x01
    1c2c:	aa 83       	std	Y+2, r26	; 0x02
    1c2e:	bb 83       	std	Y+3, r27	; 0x03
    1c30:	ce 58       	subi	r28, 0x8E	; 142
    1c32:	d0 40       	sbci	r29, 0x00	; 0

00001c34 <.Loc.304>:
    1c34:	8e 01       	movw	r16, r28
    1c36:	09 58       	subi	r16, 0x89	; 137
    1c38:	1f 4f       	sbci	r17, 0xFF	; 255
    1c3a:	c2 57       	subi	r28, 0x72	; 114
    1c3c:	df 4f       	sbci	r29, 0xFF	; 255
    1c3e:	68 81       	ld	r22, Y
    1c40:	79 81       	ldd	r23, Y+1	; 0x01
    1c42:	8a 81       	ldd	r24, Y+2	; 0x02
    1c44:	9b 81       	ldd	r25, Y+3	; 0x03
    1c46:	ce 58       	subi	r28, 0x8E	; 142
    1c48:	d0 40       	sbci	r29, 0x00	; 0
    1c4a:	0e 94 ba 31 	call	0x6374	; 0x6374 <__fixunssfsi>
    1c4e:	ca 55       	subi	r28, 0x5A	; 90
    1c50:	df 4f       	sbci	r29, 0xFF	; 255
    1c52:	68 83       	st	Y, r22
    1c54:	79 83       	std	Y+1, r23	; 0x01
    1c56:	8a 83       	std	Y+2, r24	; 0x02
    1c58:	9b 83       	std	Y+3, r25	; 0x03
    1c5a:	c6 5a       	subi	r28, 0xA6	; 166
    1c5c:	d0 40       	sbci	r29, 0x00	; 0
    1c5e:	ca 55       	subi	r28, 0x5A	; 90
    1c60:	df 4f       	sbci	r29, 0xFF	; 255
    1c62:	e8 81       	ld	r30, Y
    1c64:	f9 81       	ldd	r31, Y+1	; 0x01
    1c66:	c6 5a       	subi	r28, 0xA6	; 166
    1c68:	d0 40       	sbci	r29, 0x00	; 0
    1c6a:	d8 01       	movw	r26, r16
    1c6c:	11 96       	adiw	r26, 0x01	; 1
    1c6e:	fc 93       	st	X, r31
    1c70:	ee 93       	st	-X, r30

00001c72 <.Loc.305>:
		while(__ticks)
    1c72:	26 c0       	rjmp	.+76     	; 0x1cc0 <.L186>

00001c74 <.L187>:
    1c74:	ce 01       	movw	r24, r28
    1c76:	87 58       	subi	r24, 0x87	; 135
    1c78:	9f 4f       	sbci	r25, 0xFF	; 255
    1c7a:	20 e9       	ldi	r18, 0x90	; 144
    1c7c:	31 e0       	ldi	r19, 0x01	; 1
    1c7e:	dc 01       	movw	r26, r24
    1c80:	2d 93       	st	X+, r18
    1c82:	3c 93       	st	X, r19

00001c84 <.LBB229>:
	__asm__ volatile (
    1c84:	ce 01       	movw	r24, r28
    1c86:	87 58       	subi	r24, 0x87	; 135
    1c88:	9f 4f       	sbci	r25, 0xFF	; 255
    1c8a:	fc 01       	movw	r30, r24
    1c8c:	80 81       	ld	r24, Z
    1c8e:	91 81       	ldd	r25, Z+1	; 0x01

00001c90 <.L1^B26>:
    1c90:	01 97       	sbiw	r24, 0x01	; 1
    1c92:	f1 f7       	brne	.-4      	; 0x1c90 <.L1^B26>
    1c94:	9e 01       	movw	r18, r28
    1c96:	27 58       	subi	r18, 0x87	; 135
    1c98:	3f 4f       	sbci	r19, 0xFF	; 255
    1c9a:	d9 01       	movw	r26, r18
    1c9c:	8d 93       	st	X+, r24
    1c9e:	9c 93       	st	X, r25

00001ca0 <.Loc.307>:
	...

00001ca2 <.LBE229>:
			__ticks --;
    1ca2:	ce 01       	movw	r24, r28
    1ca4:	89 58       	subi	r24, 0x89	; 137
    1ca6:	9f 4f       	sbci	r25, 0xFF	; 255
    1ca8:	9e 01       	movw	r18, r28
    1caa:	29 58       	subi	r18, 0x89	; 137
    1cac:	3f 4f       	sbci	r19, 0xFF	; 255
    1cae:	f9 01       	movw	r30, r18
    1cb0:	20 81       	ld	r18, Z
    1cb2:	31 81       	ldd	r19, Z+1	; 0x01
    1cb4:	21 50       	subi	r18, 0x01	; 1
    1cb6:	31 09       	sbc	r19, r1
    1cb8:	dc 01       	movw	r26, r24
    1cba:	11 96       	adiw	r26, 0x01	; 1
    1cbc:	3c 93       	st	X, r19
    1cbe:	2e 93       	st	-X, r18

00001cc0 <.L186>:
		while(__ticks)
    1cc0:	ce 01       	movw	r24, r28
    1cc2:	89 58       	subi	r24, 0x89	; 137
    1cc4:	9f 4f       	sbci	r25, 0xFF	; 255
    1cc6:	fc 01       	movw	r30, r24
    1cc8:	80 81       	ld	r24, Z
    1cca:	91 81       	ldd	r25, Z+1	; 0x01
    1ccc:	00 97       	sbiw	r24, 0x00	; 0
    1cce:	91 f6       	brne	.-92     	; 0x1c74 <.L187>

00001cd0 <.Loc.310>:
		return;
    1cd0:	a2 c0       	rjmp	.+324    	; 0x1e16 <.L178>

00001cd2 <.L264>:
		__ticks = (uint16_t)__tmp;
    1cd2:	8e 01       	movw	r16, r28
    1cd4:	09 58       	subi	r16, 0x89	; 137
    1cd6:	1f 4f       	sbci	r17, 0xFF	; 255
    1cd8:	ce 01       	movw	r24, r28
    1cda:	8d 58       	subi	r24, 0x8D	; 141
    1cdc:	9f 4f       	sbci	r25, 0xFF	; 255
    1cde:	dc 01       	movw	r26, r24
    1ce0:	6d 91       	ld	r22, X+
    1ce2:	7d 91       	ld	r23, X+
    1ce4:	8d 91       	ld	r24, X+
    1ce6:	9c 91       	ld	r25, X
    1ce8:	0e 94 ba 31 	call	0x6374	; 0x6374 <__fixunssfsi>
    1cec:	c6 55       	subi	r28, 0x56	; 86
    1cee:	df 4f       	sbci	r29, 0xFF	; 255
    1cf0:	68 83       	st	Y, r22
    1cf2:	79 83       	std	Y+1, r23	; 0x01
    1cf4:	8a 83       	std	Y+2, r24	; 0x02
    1cf6:	9b 83       	std	Y+3, r25	; 0x03
    1cf8:	ca 5a       	subi	r28, 0xAA	; 170
    1cfa:	d0 40       	sbci	r29, 0x00	; 0
    1cfc:	c6 55       	subi	r28, 0x56	; 86
    1cfe:	df 4f       	sbci	r29, 0xFF	; 255
    1d00:	88 81       	ld	r24, Y
    1d02:	99 81       	ldd	r25, Y+1	; 0x01
    1d04:	ca 5a       	subi	r28, 0xAA	; 170
    1d06:	d0 40       	sbci	r29, 0x00	; 0
    1d08:	f8 01       	movw	r30, r16
    1d0a:	91 83       	std	Z+1, r25	; 0x01
    1d0c:	80 83       	st	Z, r24

00001d0e <.L183>:
    1d0e:	ce 01       	movw	r24, r28
    1d10:	85 58       	subi	r24, 0x85	; 133
    1d12:	9f 4f       	sbci	r25, 0xFF	; 255
    1d14:	9e 01       	movw	r18, r28
    1d16:	29 58       	subi	r18, 0x89	; 137
    1d18:	3f 4f       	sbci	r19, 0xFF	; 255
    1d1a:	d9 01       	movw	r26, r18
    1d1c:	2d 91       	ld	r18, X+
    1d1e:	3c 91       	ld	r19, X
    1d20:	fc 01       	movw	r30, r24
    1d22:	31 83       	std	Z+1, r19	; 0x01
    1d24:	20 83       	st	Z, r18

00001d26 <.LBB231>:
    1d26:	ce 01       	movw	r24, r28
    1d28:	85 58       	subi	r24, 0x85	; 133
    1d2a:	9f 4f       	sbci	r25, 0xFF	; 255
    1d2c:	dc 01       	movw	r26, r24
    1d2e:	8d 91       	ld	r24, X+
    1d30:	9c 91       	ld	r25, X
    1d32:	11 97       	sbiw	r26, 0x01	; 1

00001d34 <.L1^B27>:
    1d34:	01 97       	sbiw	r24, 0x01	; 1
    1d36:	f1 f7       	brne	.-4      	; 0x1d34 <.L1^B27>
    1d38:	9e 01       	movw	r18, r28
    1d3a:	25 58       	subi	r18, 0x85	; 133
    1d3c:	3f 4f       	sbci	r19, 0xFF	; 255
    1d3e:	f9 01       	movw	r30, r18
    1d40:	91 83       	std	Z+1, r25	; 0x01
    1d42:	80 83       	st	Z, r24

00001d44 <.Loc.313>:
}
    1d44:	68 c0       	rjmp	.+208    	; 0x1e16 <.L178>

00001d46 <.L262>:
	else if (__tmp > 255)
    1d46:	ce 01       	movw	r24, r28
    1d48:	8a 59       	subi	r24, 0x9A	; 154
    1d4a:	9f 4f       	sbci	r25, 0xFF	; 255
    1d4c:	20 e0       	ldi	r18, 0x00	; 0
    1d4e:	30 e0       	ldi	r19, 0x00	; 0
    1d50:	4f e7       	ldi	r20, 0x7F	; 127
    1d52:	53 e4       	ldi	r21, 0x43	; 67
    1d54:	dc 01       	movw	r26, r24
    1d56:	6d 91       	ld	r22, X+
    1d58:	7d 91       	ld	r23, X+
    1d5a:	8d 91       	ld	r24, X+
    1d5c:	9c 91       	ld	r25, X
    1d5e:	0e 94 9b 32 	call	0x6536	; 0x6536 <__gesf2>
    1d62:	88 23       	and	r24, r24
    1d64:	e1 f1       	breq	.+120    	; 0x1dde <.L265>
    1d66:	dc f1       	brlt	.+118    	; 0x1dde <.L265>

00001d68 <.LBB233>:
		uint16_t __ticks=(uint16_t)__tmp2;
    1d68:	8e 01       	movw	r16, r28
    1d6a:	03 58       	subi	r16, 0x83	; 131
    1d6c:	1f 4f       	sbci	r17, 0xFF	; 255
    1d6e:	ce 01       	movw	r24, r28
    1d70:	86 59       	subi	r24, 0x96	; 150
    1d72:	9f 4f       	sbci	r25, 0xFF	; 255
    1d74:	fc 01       	movw	r30, r24
    1d76:	60 81       	ld	r22, Z
    1d78:	71 81       	ldd	r23, Z+1	; 0x01
    1d7a:	82 81       	ldd	r24, Z+2	; 0x02
    1d7c:	93 81       	ldd	r25, Z+3	; 0x03
    1d7e:	0e 94 ba 31 	call	0x6374	; 0x6374 <__fixunssfsi>
    1d82:	c2 55       	subi	r28, 0x52	; 82
    1d84:	df 4f       	sbci	r29, 0xFF	; 255
    1d86:	68 83       	st	Y, r22
    1d88:	79 83       	std	Y+1, r23	; 0x01
    1d8a:	8a 83       	std	Y+2, r24	; 0x02
    1d8c:	9b 83       	std	Y+3, r25	; 0x03
    1d8e:	ce 5a       	subi	r28, 0xAE	; 174
    1d90:	d0 40       	sbci	r29, 0x00	; 0
    1d92:	c2 55       	subi	r28, 0x52	; 82
    1d94:	df 4f       	sbci	r29, 0xFF	; 255
    1d96:	e8 81       	ld	r30, Y
    1d98:	f9 81       	ldd	r31, Y+1	; 0x01
    1d9a:	ce 5a       	subi	r28, 0xAE	; 174
    1d9c:	d0 40       	sbci	r29, 0x00	; 0
    1d9e:	d8 01       	movw	r26, r16
    1da0:	ed 93       	st	X+, r30
    1da2:	fc 93       	st	X, r31
    1da4:	ce 01       	movw	r24, r28
    1da6:	81 58       	subi	r24, 0x81	; 129
    1da8:	9f 4f       	sbci	r25, 0xFF	; 255
    1daa:	9e 01       	movw	r18, r28
    1dac:	23 58       	subi	r18, 0x83	; 131
    1dae:	3f 4f       	sbci	r19, 0xFF	; 255
    1db0:	d9 01       	movw	r26, r18
    1db2:	2d 91       	ld	r18, X+
    1db4:	3c 91       	ld	r19, X
    1db6:	fc 01       	movw	r30, r24
    1db8:	31 83       	std	Z+1, r19	; 0x01
    1dba:	20 83       	st	Z, r18

00001dbc <.LBB234>:
	__asm__ volatile (
    1dbc:	ce 01       	movw	r24, r28
    1dbe:	81 58       	subi	r24, 0x81	; 129
    1dc0:	9f 4f       	sbci	r25, 0xFF	; 255
    1dc2:	dc 01       	movw	r26, r24
    1dc4:	8d 91       	ld	r24, X+
    1dc6:	9c 91       	ld	r25, X
    1dc8:	11 97       	sbiw	r26, 0x01	; 1

00001dca <.L1^B28>:
    1dca:	01 97       	sbiw	r24, 0x01	; 1
    1dcc:	f1 f7       	brne	.-4      	; 0x1dca <.L1^B28>
    1dce:	9e 01       	movw	r18, r28
    1dd0:	21 58       	subi	r18, 0x81	; 129
    1dd2:	3f 4f       	sbci	r19, 0xFF	; 255
    1dd4:	f9 01       	movw	r30, r18
    1dd6:	91 83       	std	Z+1, r25	; 0x01
    1dd8:	80 83       	st	Z, r24

00001dda <.Loc.317>:
	...

00001ddc <.LBE234>:
		return;
    1ddc:	34 c0       	rjmp	.+104    	; 0x1e46 <.L191>

00001dde <.L265>:
		__ticks = (uint8_t)__tmp;
    1dde:	8e 01       	movw	r16, r28
    1de0:	02 59       	subi	r16, 0x92	; 146
    1de2:	1f 4f       	sbci	r17, 0xFF	; 255
    1de4:	ce 01       	movw	r24, r28
    1de6:	8a 59       	subi	r24, 0x9A	; 154
    1de8:	9f 4f       	sbci	r25, 0xFF	; 255
    1dea:	dc 01       	movw	r26, r24
    1dec:	6d 91       	ld	r22, X+
    1dee:	7d 91       	ld	r23, X+
    1df0:	8d 91       	ld	r24, X+
    1df2:	9c 91       	ld	r25, X
    1df4:	0e 94 ba 31 	call	0x6374	; 0x6374 <__fixunssfsi>
    1df8:	ce 54       	subi	r28, 0x4E	; 78
    1dfa:	df 4f       	sbci	r29, 0xFF	; 255
    1dfc:	68 83       	st	Y, r22
    1dfe:	79 83       	std	Y+1, r23	; 0x01
    1e00:	8a 83       	std	Y+2, r24	; 0x02
    1e02:	9b 83       	std	Y+3, r25	; 0x03
    1e04:	c2 5b       	subi	r28, 0xB2	; 178
    1e06:	d0 40       	sbci	r29, 0x00	; 0
    1e08:	ce 54       	subi	r28, 0x4E	; 78
    1e0a:	df 4f       	sbci	r29, 0xFF	; 255
    1e0c:	88 81       	ld	r24, Y
    1e0e:	c2 5b       	subi	r28, 0xB2	; 178
    1e10:	d0 40       	sbci	r29, 0x00	; 0
    1e12:	f8 01       	movw	r30, r16
    1e14:	80 83       	st	Z, r24

00001e16 <.L178>:
    1e16:	ce 01       	movw	r24, r28
    1e18:	8f 57       	subi	r24, 0x7F	; 127
    1e1a:	9f 4f       	sbci	r25, 0xFF	; 255
    1e1c:	9e 01       	movw	r18, r28
    1e1e:	22 59       	subi	r18, 0x92	; 146
    1e20:	3f 4f       	sbci	r19, 0xFF	; 255
    1e22:	d9 01       	movw	r26, r18
    1e24:	2c 91       	ld	r18, X
    1e26:	fc 01       	movw	r30, r24
    1e28:	20 83       	st	Z, r18

00001e2a <.LBB236>:
	__asm__ volatile (
    1e2a:	ce 01       	movw	r24, r28
    1e2c:	8f 57       	subi	r24, 0x7F	; 127
    1e2e:	9f 4f       	sbci	r25, 0xFF	; 255
    1e30:	dc 01       	movw	r26, r24
    1e32:	8c 91       	ld	r24, X
    1e34:	28 2f       	mov	r18, r24

00001e36 <.L1^B29>:
    1e36:	2a 95       	dec	r18
    1e38:	f1 f7       	brne	.-4      	; 0x1e36 <.L1^B29>
    1e3a:	ce 01       	movw	r24, r28
    1e3c:	8f 57       	subi	r24, 0x7F	; 127
    1e3e:	9f 4f       	sbci	r25, 0xFF	; 255
    1e40:	fc 01       	movw	r30, r24
    1e42:	20 83       	st	Z, r18

00001e44 <.Loc.321>:
	...

00001e46 <.L191>:
        _delay_us(1);                               // implement 'Delay data time' (160 nS) and 'Enable pulse width' (230 nS)

        busy_flag_copy |= (lcd_D7_pin & (1<<lcd_D7_bit));  // get actual busy flag status
    1e46:	86 e2       	ldi	r24, 0x26	; 38
    1e48:	90 e0       	ldi	r25, 0x00	; 0
    1e4a:	dc 01       	movw	r26, r24
    1e4c:	8c 91       	ld	r24, X

00001e4e <.Loc.323>:
    1e4e:	88 2f       	mov	r24, r24
    1e50:	90 e0       	ldi	r25, 0x00	; 0
    1e52:	80 78       	andi	r24, 0x80	; 128
    1e54:	99 27       	eor	r25, r25

00001e56 <.Loc.324>:
    1e56:	98 2f       	mov	r25, r24
    1e58:	89 81       	ldd	r24, Y+1	; 0x01
    1e5a:	89 2b       	or	r24, r25
    1e5c:	89 83       	std	Y+1, r24	; 0x01

00001e5e <.Loc.325>:

        lcd_Ctlr_Port &= ~(1<<lcd_E_bit);           // Enable pin low
    1e5e:	88 e2       	ldi	r24, 0x28	; 40
    1e60:	90 e0       	ldi	r25, 0x00	; 0
    1e62:	fc 01       	movw	r30, r24
    1e64:	20 81       	ld	r18, Z

00001e66 <.Loc.326>:
    1e66:	88 e2       	ldi	r24, 0x28	; 40
    1e68:	90 e0       	ldi	r25, 0x00	; 0

00001e6a <.Loc.327>:
    1e6a:	27 7f       	andi	r18, 0xF7	; 247
    1e6c:	dc 01       	movw	r26, r24
    1e6e:	2c 93       	st	X, r18
    1e70:	9e 01       	movw	r18, r28
    1e72:	2e 5b       	subi	r18, 0xBE	; 190
    1e74:	3f 4f       	sbci	r19, 0xFF	; 255
    1e76:	80 e0       	ldi	r24, 0x00	; 0
    1e78:	90 e0       	ldi	r25, 0x00	; 0
    1e7a:	a0 e8       	ldi	r26, 0x80	; 128
    1e7c:	bf e3       	ldi	r27, 0x3F	; 63
    1e7e:	f9 01       	movw	r30, r18
    1e80:	80 83       	st	Z, r24
    1e82:	91 83       	std	Z+1, r25	; 0x01
    1e84:	a2 83       	std	Z+2, r26	; 0x02
    1e86:	b3 83       	std	Z+3, r27	; 0x03

00001e88 <.LBB238>:
	__tmp = ((F_CPU) / 3e6) * __us;
    1e88:	8e 01       	movw	r16, r28
    1e8a:	0a 5b       	subi	r16, 0xBA	; 186
    1e8c:	1f 4f       	sbci	r17, 0xFF	; 255
    1e8e:	ce 01       	movw	r24, r28
    1e90:	8e 5b       	subi	r24, 0xBE	; 190
    1e92:	9f 4f       	sbci	r25, 0xFF	; 255
    1e94:	2b ea       	ldi	r18, 0xAB	; 171
    1e96:	3a ea       	ldi	r19, 0xAA	; 170
    1e98:	4a ea       	ldi	r20, 0xAA	; 170
    1e9a:	50 e4       	ldi	r21, 0x40	; 64
    1e9c:	dc 01       	movw	r26, r24
    1e9e:	6d 91       	ld	r22, X+
    1ea0:	7d 91       	ld	r23, X+
    1ea2:	8d 91       	ld	r24, X+
    1ea4:	9c 91       	ld	r25, X
    1ea6:	0e 94 a0 32 	call	0x6540	; 0x6540 <__mulsf3>
    1eaa:	ca 54       	subi	r28, 0x4A	; 74
    1eac:	df 4f       	sbci	r29, 0xFF	; 255
    1eae:	68 83       	st	Y, r22
    1eb0:	79 83       	std	Y+1, r23	; 0x01
    1eb2:	8a 83       	std	Y+2, r24	; 0x02
    1eb4:	9b 83       	std	Y+3, r25	; 0x03
    1eb6:	c6 5b       	subi	r28, 0xB6	; 182
    1eb8:	d0 40       	sbci	r29, 0x00	; 0
    1eba:	ca 54       	subi	r28, 0x4A	; 74
    1ebc:	df 4f       	sbci	r29, 0xFF	; 255
    1ebe:	88 81       	ld	r24, Y
    1ec0:	99 81       	ldd	r25, Y+1	; 0x01
    1ec2:	aa 81       	ldd	r26, Y+2	; 0x02
    1ec4:	bb 81       	ldd	r27, Y+3	; 0x03
    1ec6:	c6 5b       	subi	r28, 0xB6	; 182
    1ec8:	d0 40       	sbci	r29, 0x00	; 0
    1eca:	f8 01       	movw	r30, r16
    1ecc:	80 83       	st	Z, r24
    1ece:	91 83       	std	Z+1, r25	; 0x01
    1ed0:	a2 83       	std	Z+2, r26	; 0x02
    1ed2:	b3 83       	std	Z+3, r27	; 0x03

00001ed4 <.Loc.329>:
	__tmp2 = ((F_CPU) / 4e6) * __us;
    1ed4:	8e 01       	movw	r16, r28
    1ed6:	06 5b       	subi	r16, 0xB6	; 182
    1ed8:	1f 4f       	sbci	r17, 0xFF	; 255
    1eda:	ce 01       	movw	r24, r28
    1edc:	8e 5b       	subi	r24, 0xBE	; 190
    1ede:	9f 4f       	sbci	r25, 0xFF	; 255
    1ee0:	20 e0       	ldi	r18, 0x00	; 0
    1ee2:	30 e0       	ldi	r19, 0x00	; 0
    1ee4:	40 e8       	ldi	r20, 0x80	; 128
    1ee6:	50 e4       	ldi	r21, 0x40	; 64
    1ee8:	dc 01       	movw	r26, r24
    1eea:	6d 91       	ld	r22, X+
    1eec:	7d 91       	ld	r23, X+
    1eee:	8d 91       	ld	r24, X+
    1ef0:	9c 91       	ld	r25, X
    1ef2:	0e 94 a0 32 	call	0x6540	; 0x6540 <__mulsf3>
    1ef6:	c6 54       	subi	r28, 0x46	; 70
    1ef8:	df 4f       	sbci	r29, 0xFF	; 255
    1efa:	68 83       	st	Y, r22
    1efc:	79 83       	std	Y+1, r23	; 0x01
    1efe:	8a 83       	std	Y+2, r24	; 0x02
    1f00:	9b 83       	std	Y+3, r25	; 0x03
    1f02:	ca 5b       	subi	r28, 0xBA	; 186
    1f04:	d0 40       	sbci	r29, 0x00	; 0
    1f06:	c6 54       	subi	r28, 0x46	; 70
    1f08:	df 4f       	sbci	r29, 0xFF	; 255
    1f0a:	88 81       	ld	r24, Y
    1f0c:	99 81       	ldd	r25, Y+1	; 0x01
    1f0e:	aa 81       	ldd	r26, Y+2	; 0x02
    1f10:	bb 81       	ldd	r27, Y+3	; 0x03
    1f12:	ca 5b       	subi	r28, 0xBA	; 186
    1f14:	d0 40       	sbci	r29, 0x00	; 0
    1f16:	f8 01       	movw	r30, r16
    1f18:	80 83       	st	Z, r24
    1f1a:	91 83       	std	Z+1, r25	; 0x01
    1f1c:	a2 83       	std	Z+2, r26	; 0x02
    1f1e:	b3 83       	std	Z+3, r27	; 0x03

00001f20 <.Loc.330>:
	if (__tmp < 1.0)
    1f20:	ce 01       	movw	r24, r28
    1f22:	8a 5b       	subi	r24, 0xBA	; 186
    1f24:	9f 4f       	sbci	r25, 0xFF	; 255
    1f26:	20 e0       	ldi	r18, 0x00	; 0
    1f28:	30 e0       	ldi	r19, 0x00	; 0
    1f2a:	40 e8       	ldi	r20, 0x80	; 128
    1f2c:	5f e3       	ldi	r21, 0x3F	; 63
    1f2e:	dc 01       	movw	r26, r24
    1f30:	6d 91       	ld	r22, X+
    1f32:	7d 91       	ld	r23, X+
    1f34:	8d 91       	ld	r24, X+
    1f36:	9c 91       	ld	r25, X
    1f38:	0e 94 3c 31 	call	0x6278	; 0x6278 <__cmpsf2>
    1f3c:	88 23       	and	r24, r24
    1f3e:	3c f4       	brge	.+14     	; 0x1f4e <.L266>

00001f40 <.Loc.331>:
		__ticks = 1;
    1f40:	ce 01       	movw	r24, r28
    1f42:	82 5b       	subi	r24, 0xB2	; 178
    1f44:	9f 4f       	sbci	r25, 0xFF	; 255
    1f46:	21 e0       	ldi	r18, 0x01	; 1
    1f48:	fc 01       	movw	r30, r24
    1f4a:	20 83       	st	Z, r18
    1f4c:	a0 c1       	rjmp	.+832    	; 0x228e <.L194>

00001f4e <.L266>:
	else if (__tmp2 > 65535)
    1f4e:	ce 01       	movw	r24, r28
    1f50:	86 5b       	subi	r24, 0xB6	; 182
    1f52:	9f 4f       	sbci	r25, 0xFF	; 255
    1f54:	20 e0       	ldi	r18, 0x00	; 0
    1f56:	3f ef       	ldi	r19, 0xFF	; 255
    1f58:	4f e7       	ldi	r20, 0x7F	; 127
    1f5a:	57 e4       	ldi	r21, 0x47	; 71
    1f5c:	dc 01       	movw	r26, r24
    1f5e:	6d 91       	ld	r22, X+
    1f60:	7d 91       	ld	r23, X+
    1f62:	8d 91       	ld	r24, X+
    1f64:	9c 91       	ld	r25, X
    1f66:	0e 94 9b 32 	call	0x6536	; 0x6536 <__gesf2>
    1f6a:	88 23       	and	r24, r24
    1f6c:	09 f0       	breq	.+2      	; 0x1f70 <L0^A>

00001f6e <L0^A>:
    1f6e:	0c f4       	brge	.+2      	; 0x1f72 <.Loc.333>

00001f70 <L0^A>:
    1f70:	26 c1       	rjmp	.+588    	; 0x21be <.L267>

00001f72 <.Loc.333>:
		_delay_ms(__us / 1000.0);
    1f72:	ce 01       	movw	r24, r28
    1f74:	8e 5b       	subi	r24, 0xBE	; 190
    1f76:	9f 4f       	sbci	r25, 0xFF	; 255
    1f78:	20 e0       	ldi	r18, 0x00	; 0
    1f7a:	30 e0       	ldi	r19, 0x00	; 0
    1f7c:	4a e7       	ldi	r20, 0x7A	; 122
    1f7e:	54 e4       	ldi	r21, 0x44	; 68
    1f80:	fc 01       	movw	r30, r24
    1f82:	60 81       	ld	r22, Z
    1f84:	71 81       	ldd	r23, Z+1	; 0x01
    1f86:	82 81       	ldd	r24, Z+2	; 0x02
    1f88:	93 81       	ldd	r25, Z+3	; 0x03
    1f8a:	0e 94 41 31 	call	0x6282	; 0x6282 <__divsf3>
    1f8e:	c2 54       	subi	r28, 0x42	; 66
    1f90:	df 4f       	sbci	r29, 0xFF	; 255
    1f92:	68 83       	st	Y, r22
    1f94:	79 83       	std	Y+1, r23	; 0x01
    1f96:	8a 83       	std	Y+2, r24	; 0x02
    1f98:	9b 83       	std	Y+3, r25	; 0x03
    1f9a:	ce 5b       	subi	r28, 0xBE	; 190
    1f9c:	d0 40       	sbci	r29, 0x00	; 0
    1f9e:	c2 54       	subi	r28, 0x42	; 66
    1fa0:	df 4f       	sbci	r29, 0xFF	; 255
    1fa2:	88 81       	ld	r24, Y
    1fa4:	99 81       	ldd	r25, Y+1	; 0x01
    1fa6:	aa 81       	ldd	r26, Y+2	; 0x02
    1fa8:	bb 81       	ldd	r27, Y+3	; 0x03
    1faa:	ce 5b       	subi	r28, 0xBE	; 190
    1fac:	d0 40       	sbci	r29, 0x00	; 0
    1fae:	9e 01       	movw	r18, r28
    1fb0:	21 5b       	subi	r18, 0xB1	; 177
    1fb2:	3f 4f       	sbci	r19, 0xFF	; 255
    1fb4:	f9 01       	movw	r30, r18
    1fb6:	80 83       	st	Z, r24
    1fb8:	91 83       	std	Z+1, r25	; 0x01
    1fba:	a2 83       	std	Z+2, r26	; 0x02
    1fbc:	b3 83       	std	Z+3, r27	; 0x03

00001fbe <.LBB240>:
	__tmp = ((F_CPU) / 4e3) * __ms;
    1fbe:	8e 01       	movw	r16, r28
    1fc0:	0d 5a       	subi	r16, 0xAD	; 173
    1fc2:	1f 4f       	sbci	r17, 0xFF	; 255
    1fc4:	ce 01       	movw	r24, r28
    1fc6:	81 5b       	subi	r24, 0xB1	; 177
    1fc8:	9f 4f       	sbci	r25, 0xFF	; 255
    1fca:	20 e0       	ldi	r18, 0x00	; 0
    1fcc:	30 e0       	ldi	r19, 0x00	; 0
    1fce:	4a e7       	ldi	r20, 0x7A	; 122
    1fd0:	55 e4       	ldi	r21, 0x45	; 69
    1fd2:	dc 01       	movw	r26, r24
    1fd4:	6d 91       	ld	r22, X+
    1fd6:	7d 91       	ld	r23, X+
    1fd8:	8d 91       	ld	r24, X+
    1fda:	9c 91       	ld	r25, X
    1fdc:	0e 94 a0 32 	call	0x6540	; 0x6540 <__mulsf3>
    1fe0:	ce 53       	subi	r28, 0x3E	; 62
    1fe2:	df 4f       	sbci	r29, 0xFF	; 255
    1fe4:	68 83       	st	Y, r22
    1fe6:	79 83       	std	Y+1, r23	; 0x01
    1fe8:	8a 83       	std	Y+2, r24	; 0x02
    1fea:	9b 83       	std	Y+3, r25	; 0x03
    1fec:	c2 5c       	subi	r28, 0xC2	; 194
    1fee:	d0 40       	sbci	r29, 0x00	; 0
    1ff0:	ce 53       	subi	r28, 0x3E	; 62
    1ff2:	df 4f       	sbci	r29, 0xFF	; 255
    1ff4:	88 81       	ld	r24, Y
    1ff6:	99 81       	ldd	r25, Y+1	; 0x01
    1ff8:	aa 81       	ldd	r26, Y+2	; 0x02
    1ffa:	bb 81       	ldd	r27, Y+3	; 0x03
    1ffc:	c2 5c       	subi	r28, 0xC2	; 194
    1ffe:	d0 40       	sbci	r29, 0x00	; 0
    2000:	f8 01       	movw	r30, r16
    2002:	80 83       	st	Z, r24
    2004:	91 83       	std	Z+1, r25	; 0x01
    2006:	a2 83       	std	Z+2, r26	; 0x02
    2008:	b3 83       	std	Z+3, r27	; 0x03

0000200a <.Loc.335>:
	if (__tmp < 1.0)
    200a:	ce 01       	movw	r24, r28
    200c:	8d 5a       	subi	r24, 0xAD	; 173
    200e:	9f 4f       	sbci	r25, 0xFF	; 255
    2010:	20 e0       	ldi	r18, 0x00	; 0
    2012:	30 e0       	ldi	r19, 0x00	; 0
    2014:	40 e8       	ldi	r20, 0x80	; 128
    2016:	5f e3       	ldi	r21, 0x3F	; 63
    2018:	dc 01       	movw	r26, r24
    201a:	6d 91       	ld	r22, X+
    201c:	7d 91       	ld	r23, X+
    201e:	8d 91       	ld	r24, X+
    2020:	9c 91       	ld	r25, X
    2022:	0e 94 3c 31 	call	0x6278	; 0x6278 <__cmpsf2>
    2026:	88 23       	and	r24, r24
    2028:	4c f4       	brge	.+18     	; 0x203c <.L268>

0000202a <.Loc.336>:
		__ticks = 1;
    202a:	ce 01       	movw	r24, r28
    202c:	89 5a       	subi	r24, 0xA9	; 169
    202e:	9f 4f       	sbci	r25, 0xFF	; 255
    2030:	21 e0       	ldi	r18, 0x01	; 1
    2032:	30 e0       	ldi	r19, 0x00	; 0
    2034:	fc 01       	movw	r30, r24
    2036:	31 83       	std	Z+1, r19	; 0x01
    2038:	20 83       	st	Z, r18
    203a:	a5 c0       	rjmp	.+330    	; 0x2186 <.L199>

0000203c <.L268>:
	else if (__tmp > 65535)
    203c:	ce 01       	movw	r24, r28
    203e:	8d 5a       	subi	r24, 0xAD	; 173
    2040:	9f 4f       	sbci	r25, 0xFF	; 255
    2042:	20 e0       	ldi	r18, 0x00	; 0
    2044:	3f ef       	ldi	r19, 0xFF	; 255
    2046:	4f e7       	ldi	r20, 0x7F	; 127
    2048:	57 e4       	ldi	r21, 0x47	; 71
    204a:	dc 01       	movw	r26, r24
    204c:	6d 91       	ld	r22, X+
    204e:	7d 91       	ld	r23, X+
    2050:	8d 91       	ld	r24, X+
    2052:	9c 91       	ld	r25, X
    2054:	0e 94 9b 32 	call	0x6536	; 0x6536 <__gesf2>
    2058:	88 23       	and	r24, r24
    205a:	09 f0       	breq	.+2      	; 0x205e <L0^A>

0000205c <L0^A>:
    205c:	0c f4       	brge	.+2      	; 0x2060 <.Loc.338>

0000205e <L0^A>:
    205e:	75 c0       	rjmp	.+234    	; 0x214a <.L269>

00002060 <.Loc.338>:
		__ticks = (uint16_t) (__ms * 10.0);
    2060:	ce 01       	movw	r24, r28
    2062:	81 5b       	subi	r24, 0xB1	; 177
    2064:	9f 4f       	sbci	r25, 0xFF	; 255
    2066:	20 e0       	ldi	r18, 0x00	; 0
    2068:	30 e0       	ldi	r19, 0x00	; 0
    206a:	40 e2       	ldi	r20, 0x20	; 32
    206c:	51 e4       	ldi	r21, 0x41	; 65
    206e:	fc 01       	movw	r30, r24
    2070:	60 81       	ld	r22, Z
    2072:	71 81       	ldd	r23, Z+1	; 0x01
    2074:	82 81       	ldd	r24, Z+2	; 0x02
    2076:	93 81       	ldd	r25, Z+3	; 0x03
    2078:	0e 94 a0 32 	call	0x6540	; 0x6540 <__mulsf3>
    207c:	ca 53       	subi	r28, 0x3A	; 58
    207e:	df 4f       	sbci	r29, 0xFF	; 255
    2080:	68 83       	st	Y, r22
    2082:	79 83       	std	Y+1, r23	; 0x01
    2084:	8a 83       	std	Y+2, r24	; 0x02
    2086:	9b 83       	std	Y+3, r25	; 0x03
    2088:	c6 5c       	subi	r28, 0xC6	; 198
    208a:	d0 40       	sbci	r29, 0x00	; 0
    208c:	ca 53       	subi	r28, 0x3A	; 58
    208e:	df 4f       	sbci	r29, 0xFF	; 255
    2090:	88 81       	ld	r24, Y
    2092:	99 81       	ldd	r25, Y+1	; 0x01
    2094:	aa 81       	ldd	r26, Y+2	; 0x02
    2096:	bb 81       	ldd	r27, Y+3	; 0x03
    2098:	c6 5c       	subi	r28, 0xC6	; 198
    209a:	d0 40       	sbci	r29, 0x00	; 0
    209c:	c6 57       	subi	r28, 0x76	; 118
    209e:	df 4f       	sbci	r29, 0xFF	; 255
    20a0:	88 83       	st	Y, r24
    20a2:	99 83       	std	Y+1, r25	; 0x01
    20a4:	aa 83       	std	Y+2, r26	; 0x02
    20a6:	bb 83       	std	Y+3, r27	; 0x03
    20a8:	ca 58       	subi	r28, 0x8A	; 138
    20aa:	d0 40       	sbci	r29, 0x00	; 0

000020ac <.Loc.339>:
    20ac:	8e 01       	movw	r16, r28
    20ae:	09 5a       	subi	r16, 0xA9	; 169
    20b0:	1f 4f       	sbci	r17, 0xFF	; 255
    20b2:	c6 57       	subi	r28, 0x76	; 118
    20b4:	df 4f       	sbci	r29, 0xFF	; 255
    20b6:	68 81       	ld	r22, Y
    20b8:	79 81       	ldd	r23, Y+1	; 0x01
    20ba:	8a 81       	ldd	r24, Y+2	; 0x02
    20bc:	9b 81       	ldd	r25, Y+3	; 0x03
    20be:	ca 58       	subi	r28, 0x8A	; 138
    20c0:	d0 40       	sbci	r29, 0x00	; 0
    20c2:	0e 94 ba 31 	call	0x6374	; 0x6374 <__fixunssfsi>
    20c6:	c6 53       	subi	r28, 0x36	; 54
    20c8:	df 4f       	sbci	r29, 0xFF	; 255
    20ca:	68 83       	st	Y, r22
    20cc:	79 83       	std	Y+1, r23	; 0x01
    20ce:	8a 83       	std	Y+2, r24	; 0x02
    20d0:	9b 83       	std	Y+3, r25	; 0x03
    20d2:	ca 5c       	subi	r28, 0xCA	; 202
    20d4:	d0 40       	sbci	r29, 0x00	; 0
    20d6:	c6 53       	subi	r28, 0x36	; 54
    20d8:	df 4f       	sbci	r29, 0xFF	; 255
    20da:	e8 81       	ld	r30, Y
    20dc:	f9 81       	ldd	r31, Y+1	; 0x01
    20de:	ca 5c       	subi	r28, 0xCA	; 202
    20e0:	d0 40       	sbci	r29, 0x00	; 0
    20e2:	d8 01       	movw	r26, r16
    20e4:	11 96       	adiw	r26, 0x01	; 1
    20e6:	fc 93       	st	X, r31
    20e8:	ee 93       	st	-X, r30

000020ea <.Loc.340>:
		while(__ticks)
    20ea:	26 c0       	rjmp	.+76     	; 0x2138 <.L202>

000020ec <.L203>:
    20ec:	ce 01       	movw	r24, r28
    20ee:	87 5a       	subi	r24, 0xA7	; 167
    20f0:	9f 4f       	sbci	r25, 0xFF	; 255
    20f2:	20 e9       	ldi	r18, 0x90	; 144
    20f4:	31 e0       	ldi	r19, 0x01	; 1
    20f6:	dc 01       	movw	r26, r24
    20f8:	2d 93       	st	X+, r18
    20fa:	3c 93       	st	X, r19

000020fc <.LBB242>:
	__asm__ volatile (
    20fc:	ce 01       	movw	r24, r28
    20fe:	87 5a       	subi	r24, 0xA7	; 167
    2100:	9f 4f       	sbci	r25, 0xFF	; 255
    2102:	fc 01       	movw	r30, r24
    2104:	80 81       	ld	r24, Z
    2106:	91 81       	ldd	r25, Z+1	; 0x01

00002108 <.L1^B30>:
    2108:	01 97       	sbiw	r24, 0x01	; 1
    210a:	f1 f7       	brne	.-4      	; 0x2108 <.L1^B30>
    210c:	9e 01       	movw	r18, r28
    210e:	27 5a       	subi	r18, 0xA7	; 167
    2110:	3f 4f       	sbci	r19, 0xFF	; 255
    2112:	d9 01       	movw	r26, r18
    2114:	8d 93       	st	X+, r24
    2116:	9c 93       	st	X, r25

00002118 <.Loc.342>:
	...

0000211a <.LBE242>:
			__ticks --;
    211a:	ce 01       	movw	r24, r28
    211c:	89 5a       	subi	r24, 0xA9	; 169
    211e:	9f 4f       	sbci	r25, 0xFF	; 255
    2120:	9e 01       	movw	r18, r28
    2122:	29 5a       	subi	r18, 0xA9	; 169
    2124:	3f 4f       	sbci	r19, 0xFF	; 255
    2126:	f9 01       	movw	r30, r18
    2128:	20 81       	ld	r18, Z
    212a:	31 81       	ldd	r19, Z+1	; 0x01
    212c:	21 50       	subi	r18, 0x01	; 1
    212e:	31 09       	sbc	r19, r1
    2130:	dc 01       	movw	r26, r24
    2132:	11 96       	adiw	r26, 0x01	; 1
    2134:	3c 93       	st	X, r19
    2136:	2e 93       	st	-X, r18

00002138 <.L202>:
		while(__ticks)
    2138:	ce 01       	movw	r24, r28
    213a:	89 5a       	subi	r24, 0xA9	; 169
    213c:	9f 4f       	sbci	r25, 0xFF	; 255
    213e:	fc 01       	movw	r30, r24
    2140:	80 81       	ld	r24, Z
    2142:	91 81       	ldd	r25, Z+1	; 0x01
    2144:	00 97       	sbiw	r24, 0x00	; 0
    2146:	91 f6       	brne	.-92     	; 0x20ec <.L203>

00002148 <.Loc.345>:
		return;
    2148:	a2 c0       	rjmp	.+324    	; 0x228e <.L194>

0000214a <.L269>:
		__ticks = (uint16_t)__tmp;
    214a:	8e 01       	movw	r16, r28
    214c:	09 5a       	subi	r16, 0xA9	; 169
    214e:	1f 4f       	sbci	r17, 0xFF	; 255
    2150:	ce 01       	movw	r24, r28
    2152:	8d 5a       	subi	r24, 0xAD	; 173
    2154:	9f 4f       	sbci	r25, 0xFF	; 255
    2156:	dc 01       	movw	r26, r24
    2158:	6d 91       	ld	r22, X+
    215a:	7d 91       	ld	r23, X+
    215c:	8d 91       	ld	r24, X+
    215e:	9c 91       	ld	r25, X
    2160:	0e 94 ba 31 	call	0x6374	; 0x6374 <__fixunssfsi>
    2164:	c2 53       	subi	r28, 0x32	; 50
    2166:	df 4f       	sbci	r29, 0xFF	; 255
    2168:	68 83       	st	Y, r22
    216a:	79 83       	std	Y+1, r23	; 0x01
    216c:	8a 83       	std	Y+2, r24	; 0x02
    216e:	9b 83       	std	Y+3, r25	; 0x03
    2170:	ce 5c       	subi	r28, 0xCE	; 206
    2172:	d0 40       	sbci	r29, 0x00	; 0
    2174:	c2 53       	subi	r28, 0x32	; 50
    2176:	df 4f       	sbci	r29, 0xFF	; 255
    2178:	88 81       	ld	r24, Y
    217a:	99 81       	ldd	r25, Y+1	; 0x01
    217c:	ce 5c       	subi	r28, 0xCE	; 206
    217e:	d0 40       	sbci	r29, 0x00	; 0
    2180:	f8 01       	movw	r30, r16
    2182:	91 83       	std	Z+1, r25	; 0x01
    2184:	80 83       	st	Z, r24

00002186 <.L199>:
    2186:	ce 01       	movw	r24, r28
    2188:	85 5a       	subi	r24, 0xA5	; 165
    218a:	9f 4f       	sbci	r25, 0xFF	; 255
    218c:	9e 01       	movw	r18, r28
    218e:	29 5a       	subi	r18, 0xA9	; 169
    2190:	3f 4f       	sbci	r19, 0xFF	; 255
    2192:	d9 01       	movw	r26, r18
    2194:	2d 91       	ld	r18, X+
    2196:	3c 91       	ld	r19, X
    2198:	fc 01       	movw	r30, r24
    219a:	31 83       	std	Z+1, r19	; 0x01
    219c:	20 83       	st	Z, r18

0000219e <.LBB244>:
    219e:	ce 01       	movw	r24, r28
    21a0:	85 5a       	subi	r24, 0xA5	; 165
    21a2:	9f 4f       	sbci	r25, 0xFF	; 255
    21a4:	dc 01       	movw	r26, r24
    21a6:	8d 91       	ld	r24, X+
    21a8:	9c 91       	ld	r25, X
    21aa:	11 97       	sbiw	r26, 0x01	; 1

000021ac <.L1^B31>:
    21ac:	01 97       	sbiw	r24, 0x01	; 1
    21ae:	f1 f7       	brne	.-4      	; 0x21ac <.L1^B31>
    21b0:	9e 01       	movw	r18, r28
    21b2:	25 5a       	subi	r18, 0xA5	; 165
    21b4:	3f 4f       	sbci	r19, 0xFF	; 255
    21b6:	f9 01       	movw	r30, r18
    21b8:	91 83       	std	Z+1, r25	; 0x01
    21ba:	80 83       	st	Z, r24

000021bc <.Loc.348>:
}
    21bc:	68 c0       	rjmp	.+208    	; 0x228e <.L194>

000021be <.L267>:
	else if (__tmp > 255)
    21be:	ce 01       	movw	r24, r28
    21c0:	8a 5b       	subi	r24, 0xBA	; 186
    21c2:	9f 4f       	sbci	r25, 0xFF	; 255
    21c4:	20 e0       	ldi	r18, 0x00	; 0
    21c6:	30 e0       	ldi	r19, 0x00	; 0
    21c8:	4f e7       	ldi	r20, 0x7F	; 127
    21ca:	53 e4       	ldi	r21, 0x43	; 67
    21cc:	dc 01       	movw	r26, r24
    21ce:	6d 91       	ld	r22, X+
    21d0:	7d 91       	ld	r23, X+
    21d2:	8d 91       	ld	r24, X+
    21d4:	9c 91       	ld	r25, X
    21d6:	0e 94 9b 32 	call	0x6536	; 0x6536 <__gesf2>
    21da:	88 23       	and	r24, r24
    21dc:	e1 f1       	breq	.+120    	; 0x2256 <.L270>
    21de:	dc f1       	brlt	.+118    	; 0x2256 <.L270>

000021e0 <.LBB246>:
		uint16_t __ticks=(uint16_t)__tmp2;
    21e0:	8e 01       	movw	r16, r28
    21e2:	03 5a       	subi	r16, 0xA3	; 163
    21e4:	1f 4f       	sbci	r17, 0xFF	; 255
    21e6:	ce 01       	movw	r24, r28
    21e8:	86 5b       	subi	r24, 0xB6	; 182
    21ea:	9f 4f       	sbci	r25, 0xFF	; 255
    21ec:	fc 01       	movw	r30, r24
    21ee:	60 81       	ld	r22, Z
    21f0:	71 81       	ldd	r23, Z+1	; 0x01
    21f2:	82 81       	ldd	r24, Z+2	; 0x02
    21f4:	93 81       	ldd	r25, Z+3	; 0x03
    21f6:	0e 94 ba 31 	call	0x6374	; 0x6374 <__fixunssfsi>
    21fa:	ce 52       	subi	r28, 0x2E	; 46
    21fc:	df 4f       	sbci	r29, 0xFF	; 255
    21fe:	68 83       	st	Y, r22
    2200:	79 83       	std	Y+1, r23	; 0x01
    2202:	8a 83       	std	Y+2, r24	; 0x02
    2204:	9b 83       	std	Y+3, r25	; 0x03
    2206:	c2 5d       	subi	r28, 0xD2	; 210
    2208:	d0 40       	sbci	r29, 0x00	; 0
    220a:	ce 52       	subi	r28, 0x2E	; 46
    220c:	df 4f       	sbci	r29, 0xFF	; 255
    220e:	e8 81       	ld	r30, Y
    2210:	f9 81       	ldd	r31, Y+1	; 0x01
    2212:	c2 5d       	subi	r28, 0xD2	; 210
    2214:	d0 40       	sbci	r29, 0x00	; 0
    2216:	d8 01       	movw	r26, r16
    2218:	ed 93       	st	X+, r30
    221a:	fc 93       	st	X, r31
    221c:	ce 01       	movw	r24, r28
    221e:	81 5a       	subi	r24, 0xA1	; 161
    2220:	9f 4f       	sbci	r25, 0xFF	; 255
    2222:	9e 01       	movw	r18, r28
    2224:	23 5a       	subi	r18, 0xA3	; 163
    2226:	3f 4f       	sbci	r19, 0xFF	; 255
    2228:	d9 01       	movw	r26, r18
    222a:	2d 91       	ld	r18, X+
    222c:	3c 91       	ld	r19, X
    222e:	fc 01       	movw	r30, r24
    2230:	31 83       	std	Z+1, r19	; 0x01
    2232:	20 83       	st	Z, r18

00002234 <.LBB247>:
	__asm__ volatile (
    2234:	ce 01       	movw	r24, r28
    2236:	81 5a       	subi	r24, 0xA1	; 161
    2238:	9f 4f       	sbci	r25, 0xFF	; 255
    223a:	dc 01       	movw	r26, r24
    223c:	8d 91       	ld	r24, X+
    223e:	9c 91       	ld	r25, X
    2240:	11 97       	sbiw	r26, 0x01	; 1

00002242 <.L1^B32>:
    2242:	01 97       	sbiw	r24, 0x01	; 1
    2244:	f1 f7       	brne	.-4      	; 0x2242 <.L1^B32>
    2246:	9e 01       	movw	r18, r28
    2248:	21 5a       	subi	r18, 0xA1	; 161
    224a:	3f 4f       	sbci	r19, 0xFF	; 255
    224c:	f9 01       	movw	r30, r18
    224e:	91 83       	std	Z+1, r25	; 0x01
    2250:	80 83       	st	Z, r24

00002252 <.Loc.352>:
	...

00002254 <.LBE247>:
		return;
    2254:	34 c0       	rjmp	.+104    	; 0x22be <.L207>

00002256 <.L270>:
		__ticks = (uint8_t)__tmp;
    2256:	8e 01       	movw	r16, r28
    2258:	02 5b       	subi	r16, 0xB2	; 178
    225a:	1f 4f       	sbci	r17, 0xFF	; 255
    225c:	ce 01       	movw	r24, r28
    225e:	8a 5b       	subi	r24, 0xBA	; 186
    2260:	9f 4f       	sbci	r25, 0xFF	; 255
    2262:	dc 01       	movw	r26, r24
    2264:	6d 91       	ld	r22, X+
    2266:	7d 91       	ld	r23, X+
    2268:	8d 91       	ld	r24, X+
    226a:	9c 91       	ld	r25, X
    226c:	0e 94 ba 31 	call	0x6374	; 0x6374 <__fixunssfsi>
    2270:	ca 52       	subi	r28, 0x2A	; 42
    2272:	df 4f       	sbci	r29, 0xFF	; 255
    2274:	68 83       	st	Y, r22
    2276:	79 83       	std	Y+1, r23	; 0x01
    2278:	8a 83       	std	Y+2, r24	; 0x02
    227a:	9b 83       	std	Y+3, r25	; 0x03
    227c:	c6 5d       	subi	r28, 0xD6	; 214
    227e:	d0 40       	sbci	r29, 0x00	; 0
    2280:	ca 52       	subi	r28, 0x2A	; 42
    2282:	df 4f       	sbci	r29, 0xFF	; 255
    2284:	88 81       	ld	r24, Y
    2286:	c6 5d       	subi	r28, 0xD6	; 214
    2288:	d0 40       	sbci	r29, 0x00	; 0
    228a:	f8 01       	movw	r30, r16
    228c:	80 83       	st	Z, r24

0000228e <.L194>:
    228e:	ce 01       	movw	r24, r28
    2290:	8f 59       	subi	r24, 0x9F	; 159
    2292:	9f 4f       	sbci	r25, 0xFF	; 255
    2294:	9e 01       	movw	r18, r28
    2296:	22 5b       	subi	r18, 0xB2	; 178
    2298:	3f 4f       	sbci	r19, 0xFF	; 255
    229a:	d9 01       	movw	r26, r18
    229c:	2c 91       	ld	r18, X
    229e:	fc 01       	movw	r30, r24
    22a0:	20 83       	st	Z, r18

000022a2 <.LBB249>:
	__asm__ volatile (
    22a2:	ce 01       	movw	r24, r28
    22a4:	8f 59       	subi	r24, 0x9F	; 159
    22a6:	9f 4f       	sbci	r25, 0xFF	; 255
    22a8:	dc 01       	movw	r26, r24
    22aa:	8c 91       	ld	r24, X
    22ac:	28 2f       	mov	r18, r24

000022ae <.L1^B33>:
    22ae:	2a 95       	dec	r18
    22b0:	f1 f7       	brne	.-4      	; 0x22ae <.L1^B33>
    22b2:	ce 01       	movw	r24, r28
    22b4:	8f 59       	subi	r24, 0x9F	; 159
    22b6:	9f 4f       	sbci	r25, 0xFF	; 255
    22b8:	fc 01       	movw	r30, r24
    22ba:	20 83       	st	Z, r18

000022bc <.Loc.356>:
	...

000022be <.L207>:
        _delay_us(1);                               // implement 'Address hold time' (10 nS), 'Data hold time' (10 nS), and 'Enable cycle time' (500 nS )

// read and discard alternate nibbles (D3 information)
        lcd_Ctlr_Port |= (1<<lcd_E_bit);            // Enable pin high
    22be:	88 e2       	ldi	r24, 0x28	; 40
    22c0:	90 e0       	ldi	r25, 0x00	; 0
    22c2:	dc 01       	movw	r26, r24
    22c4:	2c 91       	ld	r18, X
    22c6:	88 e2       	ldi	r24, 0x28	; 40
    22c8:	90 e0       	ldi	r25, 0x00	; 0

000022ca <.Loc.358>:
    22ca:	28 60       	ori	r18, 0x08	; 8
    22cc:	fc 01       	movw	r30, r24
    22ce:	20 83       	st	Z, r18
    22d0:	80 e0       	ldi	r24, 0x00	; 0
    22d2:	90 e0       	ldi	r25, 0x00	; 0
    22d4:	a0 e8       	ldi	r26, 0x80	; 128
    22d6:	bf e3       	ldi	r27, 0x3F	; 63
    22d8:	8a a3       	std	Y+34, r24	; 0x22
    22da:	9b a3       	std	Y+35, r25	; 0x23
    22dc:	ac a3       	std	Y+36, r26	; 0x24
    22de:	bd a3       	std	Y+37, r27	; 0x25

000022e0 <.LBB251>:
	__tmp = ((F_CPU) / 3e6) * __us;
    22e0:	2b ea       	ldi	r18, 0xAB	; 171
    22e2:	3a ea       	ldi	r19, 0xAA	; 170
    22e4:	4a ea       	ldi	r20, 0xAA	; 170
    22e6:	50 e4       	ldi	r21, 0x40	; 64
    22e8:	6a a1       	ldd	r22, Y+34	; 0x22
    22ea:	7b a1       	ldd	r23, Y+35	; 0x23
    22ec:	8c a1       	ldd	r24, Y+36	; 0x24
    22ee:	9d a1       	ldd	r25, Y+37	; 0x25
    22f0:	0e 94 a0 32 	call	0x6540	; 0x6540 <__mulsf3>
    22f4:	c6 52       	subi	r28, 0x26	; 38
    22f6:	df 4f       	sbci	r29, 0xFF	; 255
    22f8:	68 83       	st	Y, r22
    22fa:	79 83       	std	Y+1, r23	; 0x01
    22fc:	8a 83       	std	Y+2, r24	; 0x02
    22fe:	9b 83       	std	Y+3, r25	; 0x03
    2300:	ca 5d       	subi	r28, 0xDA	; 218
    2302:	d0 40       	sbci	r29, 0x00	; 0
    2304:	c6 52       	subi	r28, 0x26	; 38
    2306:	df 4f       	sbci	r29, 0xFF	; 255
    2308:	88 81       	ld	r24, Y
    230a:	99 81       	ldd	r25, Y+1	; 0x01
    230c:	aa 81       	ldd	r26, Y+2	; 0x02
    230e:	bb 81       	ldd	r27, Y+3	; 0x03
    2310:	ca 5d       	subi	r28, 0xDA	; 218
    2312:	d0 40       	sbci	r29, 0x00	; 0
    2314:	8e a3       	std	Y+38, r24	; 0x26
    2316:	9f a3       	std	Y+39, r25	; 0x27
    2318:	a8 a7       	std	Y+40, r26	; 0x28
    231a:	b9 a7       	std	Y+41, r27	; 0x29

0000231c <.Loc.360>:
	__tmp2 = ((F_CPU) / 4e6) * __us;
    231c:	20 e0       	ldi	r18, 0x00	; 0
    231e:	30 e0       	ldi	r19, 0x00	; 0
    2320:	40 e8       	ldi	r20, 0x80	; 128
    2322:	50 e4       	ldi	r21, 0x40	; 64
    2324:	6a a1       	ldd	r22, Y+34	; 0x22
    2326:	7b a1       	ldd	r23, Y+35	; 0x23
    2328:	8c a1       	ldd	r24, Y+36	; 0x24
    232a:	9d a1       	ldd	r25, Y+37	; 0x25
    232c:	0e 94 a0 32 	call	0x6540	; 0x6540 <__mulsf3>
    2330:	c2 52       	subi	r28, 0x22	; 34
    2332:	df 4f       	sbci	r29, 0xFF	; 255
    2334:	68 83       	st	Y, r22
    2336:	79 83       	std	Y+1, r23	; 0x01
    2338:	8a 83       	std	Y+2, r24	; 0x02
    233a:	9b 83       	std	Y+3, r25	; 0x03
    233c:	ce 5d       	subi	r28, 0xDE	; 222
    233e:	d0 40       	sbci	r29, 0x00	; 0
    2340:	c2 52       	subi	r28, 0x22	; 34
    2342:	df 4f       	sbci	r29, 0xFF	; 255
    2344:	88 81       	ld	r24, Y
    2346:	99 81       	ldd	r25, Y+1	; 0x01
    2348:	aa 81       	ldd	r26, Y+2	; 0x02
    234a:	bb 81       	ldd	r27, Y+3	; 0x03
    234c:	ce 5d       	subi	r28, 0xDE	; 222
    234e:	d0 40       	sbci	r29, 0x00	; 0
    2350:	8a a7       	std	Y+42, r24	; 0x2a
    2352:	9b a7       	std	Y+43, r25	; 0x2b
    2354:	ac a7       	std	Y+44, r26	; 0x2c
    2356:	bd a7       	std	Y+45, r27	; 0x2d

00002358 <.Loc.361>:
	if (__tmp < 1.0)
    2358:	20 e0       	ldi	r18, 0x00	; 0
    235a:	30 e0       	ldi	r19, 0x00	; 0
    235c:	40 e8       	ldi	r20, 0x80	; 128
    235e:	5f e3       	ldi	r21, 0x3F	; 63
    2360:	6e a1       	ldd	r22, Y+38	; 0x26
    2362:	7f a1       	ldd	r23, Y+39	; 0x27
    2364:	88 a5       	ldd	r24, Y+40	; 0x28
    2366:	99 a5       	ldd	r25, Y+41	; 0x29
    2368:	0e 94 3c 31 	call	0x6278	; 0x6278 <__cmpsf2>
    236c:	88 23       	and	r24, r24
    236e:	1c f4       	brge	.+6      	; 0x2376 <.L271>

00002370 <.Loc.362>:
		__ticks = 1;
    2370:	81 e0       	ldi	r24, 0x01	; 1
    2372:	8e a7       	std	Y+46, r24	; 0x2e
    2374:	2a c1       	rjmp	.+596    	; 0x25ca <.L210>

00002376 <.L271>:
	else if (__tmp2 > 65535)
    2376:	20 e0       	ldi	r18, 0x00	; 0
    2378:	3f ef       	ldi	r19, 0xFF	; 255
    237a:	4f e7       	ldi	r20, 0x7F	; 127
    237c:	57 e4       	ldi	r21, 0x47	; 71
    237e:	6a a5       	ldd	r22, Y+42	; 0x2a
    2380:	7b a5       	ldd	r23, Y+43	; 0x2b
    2382:	8c a5       	ldd	r24, Y+44	; 0x2c
    2384:	9d a5       	ldd	r25, Y+45	; 0x2d
    2386:	0e 94 9b 32 	call	0x6536	; 0x6536 <__gesf2>
    238a:	88 23       	and	r24, r24
    238c:	09 f0       	breq	.+2      	; 0x2390 <L0^A>

0000238e <L0^A>:
    238e:	0c f4       	brge	.+2      	; 0x2392 <.Loc.364>

00002390 <L0^A>:
    2390:	ce c0       	rjmp	.+412    	; 0x252e <.L272>

00002392 <.Loc.364>:
		_delay_ms(__us / 1000.0);
    2392:	20 e0       	ldi	r18, 0x00	; 0
    2394:	30 e0       	ldi	r19, 0x00	; 0
    2396:	4a e7       	ldi	r20, 0x7A	; 122
    2398:	54 e4       	ldi	r21, 0x44	; 68
    239a:	6a a1       	ldd	r22, Y+34	; 0x22
    239c:	7b a1       	ldd	r23, Y+35	; 0x23
    239e:	8c a1       	ldd	r24, Y+36	; 0x24
    23a0:	9d a1       	ldd	r25, Y+37	; 0x25
    23a2:	0e 94 41 31 	call	0x6282	; 0x6282 <__divsf3>
    23a6:	ce 51       	subi	r28, 0x1E	; 30
    23a8:	df 4f       	sbci	r29, 0xFF	; 255
    23aa:	68 83       	st	Y, r22
    23ac:	79 83       	std	Y+1, r23	; 0x01
    23ae:	8a 83       	std	Y+2, r24	; 0x02
    23b0:	9b 83       	std	Y+3, r25	; 0x03
    23b2:	c2 5e       	subi	r28, 0xE2	; 226
    23b4:	d0 40       	sbci	r29, 0x00	; 0
    23b6:	ce 51       	subi	r28, 0x1E	; 30
    23b8:	df 4f       	sbci	r29, 0xFF	; 255
    23ba:	88 81       	ld	r24, Y
    23bc:	99 81       	ldd	r25, Y+1	; 0x01
    23be:	aa 81       	ldd	r26, Y+2	; 0x02
    23c0:	bb 81       	ldd	r27, Y+3	; 0x03
    23c2:	c2 5e       	subi	r28, 0xE2	; 226
    23c4:	d0 40       	sbci	r29, 0x00	; 0
    23c6:	8f a7       	std	Y+47, r24	; 0x2f
    23c8:	98 ab       	std	Y+48, r25	; 0x30
    23ca:	a9 ab       	std	Y+49, r26	; 0x31
    23cc:	ba ab       	std	Y+50, r27	; 0x32

000023ce <.LBB253>:
	__tmp = ((F_CPU) / 4e3) * __ms;
    23ce:	20 e0       	ldi	r18, 0x00	; 0
    23d0:	30 e0       	ldi	r19, 0x00	; 0
    23d2:	4a e7       	ldi	r20, 0x7A	; 122
    23d4:	55 e4       	ldi	r21, 0x45	; 69
    23d6:	6f a5       	ldd	r22, Y+47	; 0x2f
    23d8:	78 a9       	ldd	r23, Y+48	; 0x30
    23da:	89 a9       	ldd	r24, Y+49	; 0x31
    23dc:	9a a9       	ldd	r25, Y+50	; 0x32
    23de:	0e 94 a0 32 	call	0x6540	; 0x6540 <__mulsf3>
    23e2:	ca 51       	subi	r28, 0x1A	; 26
    23e4:	df 4f       	sbci	r29, 0xFF	; 255
    23e6:	68 83       	st	Y, r22
    23e8:	79 83       	std	Y+1, r23	; 0x01
    23ea:	8a 83       	std	Y+2, r24	; 0x02
    23ec:	9b 83       	std	Y+3, r25	; 0x03
    23ee:	c6 5e       	subi	r28, 0xE6	; 230
    23f0:	d0 40       	sbci	r29, 0x00	; 0
    23f2:	ca 51       	subi	r28, 0x1A	; 26
    23f4:	df 4f       	sbci	r29, 0xFF	; 255
    23f6:	88 81       	ld	r24, Y
    23f8:	99 81       	ldd	r25, Y+1	; 0x01
    23fa:	aa 81       	ldd	r26, Y+2	; 0x02
    23fc:	bb 81       	ldd	r27, Y+3	; 0x03
    23fe:	c6 5e       	subi	r28, 0xE6	; 230
    2400:	d0 40       	sbci	r29, 0x00	; 0
    2402:	8b ab       	std	Y+51, r24	; 0x33
    2404:	9c ab       	std	Y+52, r25	; 0x34
    2406:	ad ab       	std	Y+53, r26	; 0x35
    2408:	be ab       	std	Y+54, r27	; 0x36

0000240a <.Loc.366>:
	if (__tmp < 1.0)
    240a:	20 e0       	ldi	r18, 0x00	; 0
    240c:	30 e0       	ldi	r19, 0x00	; 0
    240e:	40 e8       	ldi	r20, 0x80	; 128
    2410:	5f e3       	ldi	r21, 0x3F	; 63
    2412:	6b a9       	ldd	r22, Y+51	; 0x33
    2414:	7c a9       	ldd	r23, Y+52	; 0x34
    2416:	8d a9       	ldd	r24, Y+53	; 0x35
    2418:	9e a9       	ldd	r25, Y+54	; 0x36
    241a:	0e 94 3c 31 	call	0x6278	; 0x6278 <__cmpsf2>
    241e:	88 23       	and	r24, r24
    2420:	2c f4       	brge	.+10     	; 0x242c <.L273>

00002422 <.Loc.367>:
		__ticks = 1;
    2422:	81 e0       	ldi	r24, 0x01	; 1
    2424:	90 e0       	ldi	r25, 0x00	; 0
    2426:	98 af       	std	Y+56, r25	; 0x38
    2428:	8f ab       	std	Y+55, r24	; 0x37
    242a:	76 c0       	rjmp	.+236    	; 0x2518 <.L215>

0000242c <.L273>:
	else if (__tmp > 65535)
    242c:	20 e0       	ldi	r18, 0x00	; 0
    242e:	3f ef       	ldi	r19, 0xFF	; 255
    2430:	4f e7       	ldi	r20, 0x7F	; 127
    2432:	57 e4       	ldi	r21, 0x47	; 71
    2434:	6b a9       	ldd	r22, Y+51	; 0x33
    2436:	7c a9       	ldd	r23, Y+52	; 0x34
    2438:	8d a9       	ldd	r24, Y+53	; 0x35
    243a:	9e a9       	ldd	r25, Y+54	; 0x36
    243c:	0e 94 9b 32 	call	0x6536	; 0x6536 <__gesf2>
    2440:	88 23       	and	r24, r24
    2442:	09 f0       	breq	.+2      	; 0x2446 <L0^A>

00002444 <L0^A>:
    2444:	0c f4       	brge	.+2      	; 0x2448 <.Loc.369>

00002446 <L0^A>:
    2446:	52 c0       	rjmp	.+164    	; 0x24ec <.L274>

00002448 <.Loc.369>:
		__ticks = (uint16_t) (__ms * 10.0);
    2448:	20 e0       	ldi	r18, 0x00	; 0
    244a:	30 e0       	ldi	r19, 0x00	; 0
    244c:	40 e2       	ldi	r20, 0x20	; 32
    244e:	51 e4       	ldi	r21, 0x41	; 65
    2450:	6f a5       	ldd	r22, Y+47	; 0x2f
    2452:	78 a9       	ldd	r23, Y+48	; 0x30
    2454:	89 a9       	ldd	r24, Y+49	; 0x31
    2456:	9a a9       	ldd	r25, Y+50	; 0x32
    2458:	0e 94 a0 32 	call	0x6540	; 0x6540 <__mulsf3>
    245c:	c6 51       	subi	r28, 0x16	; 22
    245e:	df 4f       	sbci	r29, 0xFF	; 255
    2460:	68 83       	st	Y, r22
    2462:	79 83       	std	Y+1, r23	; 0x01
    2464:	8a 83       	std	Y+2, r24	; 0x02
    2466:	9b 83       	std	Y+3, r25	; 0x03
    2468:	ca 5e       	subi	r28, 0xEA	; 234
    246a:	d0 40       	sbci	r29, 0x00	; 0
    246c:	c6 51       	subi	r28, 0x16	; 22
    246e:	df 4f       	sbci	r29, 0xFF	; 255
    2470:	88 81       	ld	r24, Y
    2472:	99 81       	ldd	r25, Y+1	; 0x01
    2474:	aa 81       	ldd	r26, Y+2	; 0x02
    2476:	bb 81       	ldd	r27, Y+3	; 0x03
    2478:	ca 5e       	subi	r28, 0xEA	; 234
    247a:	d0 40       	sbci	r29, 0x00	; 0
    247c:	ca 57       	subi	r28, 0x7A	; 122
    247e:	df 4f       	sbci	r29, 0xFF	; 255
    2480:	88 83       	st	Y, r24
    2482:	99 83       	std	Y+1, r25	; 0x01
    2484:	aa 83       	std	Y+2, r26	; 0x02
    2486:	bb 83       	std	Y+3, r27	; 0x03
    2488:	c6 58       	subi	r28, 0x86	; 134
    248a:	d0 40       	sbci	r29, 0x00	; 0

0000248c <.Loc.370>:
    248c:	ca 57       	subi	r28, 0x7A	; 122
    248e:	df 4f       	sbci	r29, 0xFF	; 255
    2490:	68 81       	ld	r22, Y
    2492:	79 81       	ldd	r23, Y+1	; 0x01
    2494:	8a 81       	ldd	r24, Y+2	; 0x02
    2496:	9b 81       	ldd	r25, Y+3	; 0x03
    2498:	c6 58       	subi	r28, 0x86	; 134
    249a:	d0 40       	sbci	r29, 0x00	; 0
    249c:	0e 94 ba 31 	call	0x6374	; 0x6374 <__fixunssfsi>
    24a0:	c2 51       	subi	r28, 0x12	; 18
    24a2:	df 4f       	sbci	r29, 0xFF	; 255
    24a4:	68 83       	st	Y, r22
    24a6:	79 83       	std	Y+1, r23	; 0x01
    24a8:	8a 83       	std	Y+2, r24	; 0x02
    24aa:	9b 83       	std	Y+3, r25	; 0x03
    24ac:	ce 5e       	subi	r28, 0xEE	; 238
    24ae:	d0 40       	sbci	r29, 0x00	; 0
    24b0:	c2 51       	subi	r28, 0x12	; 18
    24b2:	df 4f       	sbci	r29, 0xFF	; 255
    24b4:	a8 81       	ld	r26, Y
    24b6:	b9 81       	ldd	r27, Y+1	; 0x01
    24b8:	ce 5e       	subi	r28, 0xEE	; 238
    24ba:	d0 40       	sbci	r29, 0x00	; 0
    24bc:	b8 af       	std	Y+56, r27	; 0x38
    24be:	af ab       	std	Y+55, r26	; 0x37

000024c0 <.Loc.371>:
		while(__ticks)
    24c0:	10 c0       	rjmp	.+32     	; 0x24e2 <.L218>

000024c2 <.L219>:
    24c2:	80 e9       	ldi	r24, 0x90	; 144
    24c4:	91 e0       	ldi	r25, 0x01	; 1
    24c6:	9a af       	std	Y+58, r25	; 0x3a
    24c8:	89 af       	std	Y+57, r24	; 0x39

000024ca <.LBB255>:
	__asm__ volatile (
    24ca:	89 ad       	ldd	r24, Y+57	; 0x39
    24cc:	9a ad       	ldd	r25, Y+58	; 0x3a

000024ce <.L1^B34>:
    24ce:	01 97       	sbiw	r24, 0x01	; 1
    24d0:	f1 f7       	brne	.-4      	; 0x24ce <.L1^B34>
    24d2:	9a af       	std	Y+58, r25	; 0x3a
    24d4:	89 af       	std	Y+57, r24	; 0x39

000024d6 <.Loc.373>:
	...

000024d8 <.LBE255>:
			__ticks --;
    24d8:	8f a9       	ldd	r24, Y+55	; 0x37
    24da:	98 ad       	ldd	r25, Y+56	; 0x38
    24dc:	01 97       	sbiw	r24, 0x01	; 1
    24de:	98 af       	std	Y+56, r25	; 0x38
    24e0:	8f ab       	std	Y+55, r24	; 0x37

000024e2 <.L218>:
		while(__ticks)
    24e2:	8f a9       	ldd	r24, Y+55	; 0x37
    24e4:	98 ad       	ldd	r25, Y+56	; 0x38
    24e6:	00 97       	sbiw	r24, 0x00	; 0
    24e8:	61 f7       	brne	.-40     	; 0x24c2 <.L219>

000024ea <.Loc.376>:
		return;
    24ea:	6f c0       	rjmp	.+222    	; 0x25ca <.L210>

000024ec <.L274>:
		__ticks = (uint16_t)__tmp;
    24ec:	6b a9       	ldd	r22, Y+51	; 0x33
    24ee:	7c a9       	ldd	r23, Y+52	; 0x34
    24f0:	8d a9       	ldd	r24, Y+53	; 0x35
    24f2:	9e a9       	ldd	r25, Y+54	; 0x36
    24f4:	0e 94 ba 31 	call	0x6374	; 0x6374 <__fixunssfsi>
    24f8:	ce 50       	subi	r28, 0x0E	; 14
    24fa:	df 4f       	sbci	r29, 0xFF	; 255
    24fc:	68 83       	st	Y, r22
    24fe:	79 83       	std	Y+1, r23	; 0x01
    2500:	8a 83       	std	Y+2, r24	; 0x02
    2502:	9b 83       	std	Y+3, r25	; 0x03
    2504:	c2 5f       	subi	r28, 0xF2	; 242
    2506:	d0 40       	sbci	r29, 0x00	; 0
    2508:	ce 50       	subi	r28, 0x0E	; 14
    250a:	df 4f       	sbci	r29, 0xFF	; 255
    250c:	e8 81       	ld	r30, Y
    250e:	f9 81       	ldd	r31, Y+1	; 0x01
    2510:	c2 5f       	subi	r28, 0xF2	; 242
    2512:	d0 40       	sbci	r29, 0x00	; 0
    2514:	f8 af       	std	Y+56, r31	; 0x38
    2516:	ef ab       	std	Y+55, r30	; 0x37

00002518 <.L215>:
    2518:	8f a9       	ldd	r24, Y+55	; 0x37
    251a:	98 ad       	ldd	r25, Y+56	; 0x38
    251c:	9c af       	std	Y+60, r25	; 0x3c
    251e:	8b af       	std	Y+59, r24	; 0x3b

00002520 <.LBB257>:
    2520:	8b ad       	ldd	r24, Y+59	; 0x3b
    2522:	9c ad       	ldd	r25, Y+60	; 0x3c

00002524 <.L1^B35>:
    2524:	01 97       	sbiw	r24, 0x01	; 1
    2526:	f1 f7       	brne	.-4      	; 0x2524 <.L1^B35>
    2528:	9c af       	std	Y+60, r25	; 0x3c
    252a:	8b af       	std	Y+59, r24	; 0x3b

0000252c <.Loc.379>:
}
    252c:	4e c0       	rjmp	.+156    	; 0x25ca <.L210>

0000252e <.L272>:
	else if (__tmp > 255)
    252e:	20 e0       	ldi	r18, 0x00	; 0
    2530:	30 e0       	ldi	r19, 0x00	; 0
    2532:	4f e7       	ldi	r20, 0x7F	; 127
    2534:	53 e4       	ldi	r21, 0x43	; 67
    2536:	6e a1       	ldd	r22, Y+38	; 0x26
    2538:	7f a1       	ldd	r23, Y+39	; 0x27
    253a:	88 a5       	ldd	r24, Y+40	; 0x28
    253c:	99 a5       	ldd	r25, Y+41	; 0x29
    253e:	0e 94 9b 32 	call	0x6536	; 0x6536 <__gesf2>
    2542:	88 23       	and	r24, r24
    2544:	71 f1       	breq	.+92     	; 0x25a2 <.L275>
    2546:	6c f1       	brlt	.+90     	; 0x25a2 <.L275>

00002548 <.LBB259>:
		uint16_t __ticks=(uint16_t)__tmp2;
    2548:	6a a5       	ldd	r22, Y+42	; 0x2a
    254a:	7b a5       	ldd	r23, Y+43	; 0x2b
    254c:	8c a5       	ldd	r24, Y+44	; 0x2c
    254e:	9d a5       	ldd	r25, Y+45	; 0x2d
    2550:	0e 94 ba 31 	call	0x6374	; 0x6374 <__fixunssfsi>
    2554:	ca 50       	subi	r28, 0x0A	; 10
    2556:	df 4f       	sbci	r29, 0xFF	; 255
    2558:	68 83       	st	Y, r22
    255a:	79 83       	std	Y+1, r23	; 0x01
    255c:	8a 83       	std	Y+2, r24	; 0x02
    255e:	9b 83       	std	Y+3, r25	; 0x03
    2560:	c6 5f       	subi	r28, 0xF6	; 246
    2562:	d0 40       	sbci	r29, 0x00	; 0
    2564:	ca 50       	subi	r28, 0x0A	; 10
    2566:	df 4f       	sbci	r29, 0xFF	; 255
    2568:	88 81       	ld	r24, Y
    256a:	99 81       	ldd	r25, Y+1	; 0x01
    256c:	c6 5f       	subi	r28, 0xF6	; 246
    256e:	d0 40       	sbci	r29, 0x00	; 0
    2570:	9e af       	std	Y+62, r25	; 0x3e
    2572:	8d af       	std	Y+61, r24	; 0x3d
    2574:	2d ad       	ldd	r18, Y+61	; 0x3d
    2576:	3e ad       	ldd	r19, Y+62	; 0x3e
    2578:	ce 01       	movw	r24, r28
    257a:	cf 96       	adiw	r24, 0x3f	; 63
    257c:	dc 01       	movw	r26, r24
    257e:	2d 93       	st	X+, r18
    2580:	3c 93       	st	X, r19

00002582 <.LBB260>:
	__asm__ volatile (
    2582:	ce 01       	movw	r24, r28
    2584:	cf 96       	adiw	r24, 0x3f	; 63
    2586:	fc 01       	movw	r30, r24
    2588:	80 81       	ld	r24, Z
    258a:	91 81       	ldd	r25, Z+1	; 0x01

0000258c <.L1^B36>:
    258c:	01 97       	sbiw	r24, 0x01	; 1
    258e:	f1 f7       	brne	.-4      	; 0x258c <.L1^B36>
    2590:	9e 01       	movw	r18, r28
    2592:	21 5c       	subi	r18, 0xC1	; 193
    2594:	3f 4f       	sbci	r19, 0xFF	; 255
    2596:	d9 01       	movw	r26, r18
    2598:	11 96       	adiw	r26, 0x01	; 1
    259a:	9c 93       	st	X, r25
    259c:	8e 93       	st	-X, r24

0000259e <.Loc.383>:
	...

000025a0 <.LBE260>:
		return;
    25a0:	28 c0       	rjmp	.+80     	; 0x25f2 <.L223>

000025a2 <.L275>:
		__ticks = (uint8_t)__tmp;
    25a2:	6e a1       	ldd	r22, Y+38	; 0x26
    25a4:	7f a1       	ldd	r23, Y+39	; 0x27
    25a6:	88 a5       	ldd	r24, Y+40	; 0x28
    25a8:	99 a5       	ldd	r25, Y+41	; 0x29
    25aa:	0e 94 ba 31 	call	0x6374	; 0x6374 <__fixunssfsi>
    25ae:	c6 50       	subi	r28, 0x06	; 6
    25b0:	df 4f       	sbci	r29, 0xFF	; 255
    25b2:	68 83       	st	Y, r22
    25b4:	79 83       	std	Y+1, r23	; 0x01
    25b6:	8a 83       	std	Y+2, r24	; 0x02
    25b8:	9b 83       	std	Y+3, r25	; 0x03
    25ba:	ca 5f       	subi	r28, 0xFA	; 250
    25bc:	d0 40       	sbci	r29, 0x00	; 0
    25be:	c6 50       	subi	r28, 0x06	; 6
    25c0:	df 4f       	sbci	r29, 0xFF	; 255
    25c2:	b8 81       	ld	r27, Y
    25c4:	ca 5f       	subi	r28, 0xFA	; 250
    25c6:	d0 40       	sbci	r29, 0x00	; 0
    25c8:	be a7       	std	Y+46, r27	; 0x2e

000025ca <.L210>:
    25ca:	ce 01       	movw	r24, r28
    25cc:	8f 5b       	subi	r24, 0xBF	; 191
    25ce:	9f 4f       	sbci	r25, 0xFF	; 255
    25d0:	2e a5       	ldd	r18, Y+46	; 0x2e
    25d2:	fc 01       	movw	r30, r24
    25d4:	20 83       	st	Z, r18

000025d6 <.LBB262>:
	__asm__ volatile (
    25d6:	ce 01       	movw	r24, r28
    25d8:	8f 5b       	subi	r24, 0xBF	; 191
    25da:	9f 4f       	sbci	r25, 0xFF	; 255
    25dc:	dc 01       	movw	r26, r24
    25de:	8c 91       	ld	r24, X
    25e0:	28 2f       	mov	r18, r24

000025e2 <.L1^B37>:
    25e2:	2a 95       	dec	r18
    25e4:	f1 f7       	brne	.-4      	; 0x25e2 <.L1^B37>
    25e6:	ce 01       	movw	r24, r28
    25e8:	8f 5b       	subi	r24, 0xBF	; 191
    25ea:	9f 4f       	sbci	r25, 0xFF	; 255
    25ec:	fc 01       	movw	r30, r24
    25ee:	20 83       	st	Z, r18

000025f0 <.Loc.387>:
	...

000025f2 <.L223>:
        _delay_us(1);                               // implement 'Delay data time' (160 nS) and 'Enable pulse width' (230 nS)
        lcd_Ctlr_Port &= ~(1<<lcd_E_bit);           // Enable pin low
    25f2:	88 e2       	ldi	r24, 0x28	; 40
    25f4:	90 e0       	ldi	r25, 0x00	; 0
    25f6:	dc 01       	movw	r26, r24
    25f8:	2c 91       	ld	r18, X

000025fa <.Loc.389>:
    25fa:	88 e2       	ldi	r24, 0x28	; 40
    25fc:	90 e0       	ldi	r25, 0x00	; 0

000025fe <.Loc.390>:
    25fe:	27 7f       	andi	r18, 0xF7	; 247
    2600:	fc 01       	movw	r30, r24
    2602:	20 83       	st	Z, r18
    2604:	80 e0       	ldi	r24, 0x00	; 0
    2606:	90 e0       	ldi	r25, 0x00	; 0
    2608:	a0 e8       	ldi	r26, 0x80	; 128
    260a:	bf e3       	ldi	r27, 0x3F	; 63
    260c:	8a 83       	std	Y+2, r24	; 0x02
    260e:	9b 83       	std	Y+3, r25	; 0x03
    2610:	ac 83       	std	Y+4, r26	; 0x04
    2612:	bd 83       	std	Y+5, r27	; 0x05

00002614 <.LBB264>:
	__tmp = ((F_CPU) / 3e6) * __us;
    2614:	2b ea       	ldi	r18, 0xAB	; 171
    2616:	3a ea       	ldi	r19, 0xAA	; 170
    2618:	4a ea       	ldi	r20, 0xAA	; 170
    261a:	50 e4       	ldi	r21, 0x40	; 64
    261c:	6a 81       	ldd	r22, Y+2	; 0x02
    261e:	7b 81       	ldd	r23, Y+3	; 0x03
    2620:	8c 81       	ldd	r24, Y+4	; 0x04
    2622:	9d 81       	ldd	r25, Y+5	; 0x05
    2624:	0e 94 a0 32 	call	0x6540	; 0x6540 <__mulsf3>
    2628:	c2 50       	subi	r28, 0x02	; 2
    262a:	df 4f       	sbci	r29, 0xFF	; 255
    262c:	68 83       	st	Y, r22
    262e:	79 83       	std	Y+1, r23	; 0x01
    2630:	8a 83       	std	Y+2, r24	; 0x02
    2632:	9b 83       	std	Y+3, r25	; 0x03
    2634:	ce 5f       	subi	r28, 0xFE	; 254
    2636:	d0 40       	sbci	r29, 0x00	; 0
    2638:	c2 50       	subi	r28, 0x02	; 2
    263a:	df 4f       	sbci	r29, 0xFF	; 255
    263c:	88 81       	ld	r24, Y
    263e:	99 81       	ldd	r25, Y+1	; 0x01
    2640:	aa 81       	ldd	r26, Y+2	; 0x02
    2642:	bb 81       	ldd	r27, Y+3	; 0x03
    2644:	ce 5f       	subi	r28, 0xFE	; 254
    2646:	d0 40       	sbci	r29, 0x00	; 0
    2648:	8e 83       	std	Y+6, r24	; 0x06
    264a:	9f 83       	std	Y+7, r25	; 0x07
    264c:	a8 87       	std	Y+8, r26	; 0x08
    264e:	b9 87       	std	Y+9, r27	; 0x09

00002650 <.Loc.392>:
	__tmp2 = ((F_CPU) / 4e6) * __us;
    2650:	20 e0       	ldi	r18, 0x00	; 0
    2652:	30 e0       	ldi	r19, 0x00	; 0
    2654:	40 e8       	ldi	r20, 0x80	; 128
    2656:	50 e4       	ldi	r21, 0x40	; 64
    2658:	6a 81       	ldd	r22, Y+2	; 0x02
    265a:	7b 81       	ldd	r23, Y+3	; 0x03
    265c:	8c 81       	ldd	r24, Y+4	; 0x04
    265e:	9d 81       	ldd	r25, Y+5	; 0x05
    2660:	0e 94 a0 32 	call	0x6540	; 0x6540 <__mulsf3>
    2664:	ce 5f       	subi	r28, 0xFE	; 254
    2666:	de 4f       	sbci	r29, 0xFE	; 254
    2668:	68 83       	st	Y, r22
    266a:	79 83       	std	Y+1, r23	; 0x01
    266c:	8a 83       	std	Y+2, r24	; 0x02
    266e:	9b 83       	std	Y+3, r25	; 0x03
    2670:	c2 50       	subi	r28, 0x02	; 2
    2672:	d1 40       	sbci	r29, 0x01	; 1
    2674:	ce 5f       	subi	r28, 0xFE	; 254
    2676:	de 4f       	sbci	r29, 0xFE	; 254
    2678:	88 81       	ld	r24, Y
    267a:	99 81       	ldd	r25, Y+1	; 0x01
    267c:	aa 81       	ldd	r26, Y+2	; 0x02
    267e:	bb 81       	ldd	r27, Y+3	; 0x03
    2680:	c2 50       	subi	r28, 0x02	; 2
    2682:	d1 40       	sbci	r29, 0x01	; 1
    2684:	8a 87       	std	Y+10, r24	; 0x0a
    2686:	9b 87       	std	Y+11, r25	; 0x0b
    2688:	ac 87       	std	Y+12, r26	; 0x0c
    268a:	bd 87       	std	Y+13, r27	; 0x0d

0000268c <.Loc.393>:
	if (__tmp < 1.0)
    268c:	20 e0       	ldi	r18, 0x00	; 0
    268e:	30 e0       	ldi	r19, 0x00	; 0
    2690:	40 e8       	ldi	r20, 0x80	; 128
    2692:	5f e3       	ldi	r21, 0x3F	; 63
    2694:	6e 81       	ldd	r22, Y+6	; 0x06
    2696:	7f 81       	ldd	r23, Y+7	; 0x07
    2698:	88 85       	ldd	r24, Y+8	; 0x08
    269a:	99 85       	ldd	r25, Y+9	; 0x09
    269c:	0e 94 3c 31 	call	0x6278	; 0x6278 <__cmpsf2>
    26a0:	88 23       	and	r24, r24
    26a2:	1c f4       	brge	.+6      	; 0x26aa <.L276>

000026a4 <.Loc.394>:
		__ticks = 1;
    26a4:	81 e0       	ldi	r24, 0x01	; 1
    26a6:	8e 87       	std	Y+14, r24	; 0x0e
    26a8:	1f c1       	rjmp	.+574    	; 0x28e8 <.L226>

000026aa <.L276>:
	else if (__tmp2 > 65535)
    26aa:	20 e0       	ldi	r18, 0x00	; 0
    26ac:	3f ef       	ldi	r19, 0xFF	; 255
    26ae:	4f e7       	ldi	r20, 0x7F	; 127
    26b0:	57 e4       	ldi	r21, 0x47	; 71
    26b2:	6a 85       	ldd	r22, Y+10	; 0x0a
    26b4:	7b 85       	ldd	r23, Y+11	; 0x0b
    26b6:	8c 85       	ldd	r24, Y+12	; 0x0c
    26b8:	9d 85       	ldd	r25, Y+13	; 0x0d
    26ba:	0e 94 9b 32 	call	0x6536	; 0x6536 <__gesf2>
    26be:	88 23       	and	r24, r24
    26c0:	09 f0       	breq	.+2      	; 0x26c4 <L0^A>

000026c2 <L0^A>:
    26c2:	0c f4       	brge	.+2      	; 0x26c6 <.Loc.396>

000026c4 <L0^A>:
    26c4:	ce c0       	rjmp	.+412    	; 0x2862 <.L277>

000026c6 <.Loc.396>:
		_delay_ms(__us / 1000.0);
    26c6:	20 e0       	ldi	r18, 0x00	; 0
    26c8:	30 e0       	ldi	r19, 0x00	; 0
    26ca:	4a e7       	ldi	r20, 0x7A	; 122
    26cc:	54 e4       	ldi	r21, 0x44	; 68
    26ce:	6a 81       	ldd	r22, Y+2	; 0x02
    26d0:	7b 81       	ldd	r23, Y+3	; 0x03
    26d2:	8c 81       	ldd	r24, Y+4	; 0x04
    26d4:	9d 81       	ldd	r25, Y+5	; 0x05
    26d6:	0e 94 41 31 	call	0x6282	; 0x6282 <__divsf3>
    26da:	ca 5f       	subi	r28, 0xFA	; 250
    26dc:	de 4f       	sbci	r29, 0xFE	; 254
    26de:	68 83       	st	Y, r22
    26e0:	79 83       	std	Y+1, r23	; 0x01
    26e2:	8a 83       	std	Y+2, r24	; 0x02
    26e4:	9b 83       	std	Y+3, r25	; 0x03
    26e6:	c6 50       	subi	r28, 0x06	; 6
    26e8:	d1 40       	sbci	r29, 0x01	; 1
    26ea:	ca 5f       	subi	r28, 0xFA	; 250
    26ec:	de 4f       	sbci	r29, 0xFE	; 254
    26ee:	88 81       	ld	r24, Y
    26f0:	99 81       	ldd	r25, Y+1	; 0x01
    26f2:	aa 81       	ldd	r26, Y+2	; 0x02
    26f4:	bb 81       	ldd	r27, Y+3	; 0x03
    26f6:	c6 50       	subi	r28, 0x06	; 6
    26f8:	d1 40       	sbci	r29, 0x01	; 1
    26fa:	8f 87       	std	Y+15, r24	; 0x0f
    26fc:	98 8b       	std	Y+16, r25	; 0x10
    26fe:	a9 8b       	std	Y+17, r26	; 0x11
    2700:	ba 8b       	std	Y+18, r27	; 0x12

00002702 <.LBB266>:
	__tmp = ((F_CPU) / 4e3) * __ms;
    2702:	20 e0       	ldi	r18, 0x00	; 0
    2704:	30 e0       	ldi	r19, 0x00	; 0
    2706:	4a e7       	ldi	r20, 0x7A	; 122
    2708:	55 e4       	ldi	r21, 0x45	; 69
    270a:	6f 85       	ldd	r22, Y+15	; 0x0f
    270c:	78 89       	ldd	r23, Y+16	; 0x10
    270e:	89 89       	ldd	r24, Y+17	; 0x11
    2710:	9a 89       	ldd	r25, Y+18	; 0x12
    2712:	0e 94 a0 32 	call	0x6540	; 0x6540 <__mulsf3>
    2716:	c6 5f       	subi	r28, 0xF6	; 246
    2718:	de 4f       	sbci	r29, 0xFE	; 254
    271a:	68 83       	st	Y, r22
    271c:	79 83       	std	Y+1, r23	; 0x01
    271e:	8a 83       	std	Y+2, r24	; 0x02
    2720:	9b 83       	std	Y+3, r25	; 0x03
    2722:	ca 50       	subi	r28, 0x0A	; 10
    2724:	d1 40       	sbci	r29, 0x01	; 1
    2726:	c6 5f       	subi	r28, 0xF6	; 246
    2728:	de 4f       	sbci	r29, 0xFE	; 254
    272a:	88 81       	ld	r24, Y
    272c:	99 81       	ldd	r25, Y+1	; 0x01
    272e:	aa 81       	ldd	r26, Y+2	; 0x02
    2730:	bb 81       	ldd	r27, Y+3	; 0x03
    2732:	ca 50       	subi	r28, 0x0A	; 10
    2734:	d1 40       	sbci	r29, 0x01	; 1
    2736:	8b 8b       	std	Y+19, r24	; 0x13
    2738:	9c 8b       	std	Y+20, r25	; 0x14
    273a:	ad 8b       	std	Y+21, r26	; 0x15
    273c:	be 8b       	std	Y+22, r27	; 0x16

0000273e <.Loc.398>:
	if (__tmp < 1.0)
    273e:	20 e0       	ldi	r18, 0x00	; 0
    2740:	30 e0       	ldi	r19, 0x00	; 0
    2742:	40 e8       	ldi	r20, 0x80	; 128
    2744:	5f e3       	ldi	r21, 0x3F	; 63
    2746:	6b 89       	ldd	r22, Y+19	; 0x13
    2748:	7c 89       	ldd	r23, Y+20	; 0x14
    274a:	8d 89       	ldd	r24, Y+21	; 0x15
    274c:	9e 89       	ldd	r25, Y+22	; 0x16
    274e:	0e 94 3c 31 	call	0x6278	; 0x6278 <__cmpsf2>
    2752:	88 23       	and	r24, r24
    2754:	2c f4       	brge	.+10     	; 0x2760 <.L278>

00002756 <.Loc.399>:
		__ticks = 1;
    2756:	81 e0       	ldi	r24, 0x01	; 1
    2758:	90 e0       	ldi	r25, 0x00	; 0
    275a:	98 8f       	std	Y+24, r25	; 0x18
    275c:	8f 8b       	std	Y+23, r24	; 0x17
    275e:	76 c0       	rjmp	.+236    	; 0x284c <.L231>

00002760 <.L278>:
	else if (__tmp > 65535)
    2760:	20 e0       	ldi	r18, 0x00	; 0
    2762:	3f ef       	ldi	r19, 0xFF	; 255
    2764:	4f e7       	ldi	r20, 0x7F	; 127
    2766:	57 e4       	ldi	r21, 0x47	; 71
    2768:	6b 89       	ldd	r22, Y+19	; 0x13
    276a:	7c 89       	ldd	r23, Y+20	; 0x14
    276c:	8d 89       	ldd	r24, Y+21	; 0x15
    276e:	9e 89       	ldd	r25, Y+22	; 0x16
    2770:	0e 94 9b 32 	call	0x6536	; 0x6536 <__gesf2>
    2774:	88 23       	and	r24, r24
    2776:	09 f0       	breq	.+2      	; 0x277a <L0^A>

00002778 <L0^A>:
    2778:	0c f4       	brge	.+2      	; 0x277c <.Loc.401>

0000277a <L0^A>:
    277a:	52 c0       	rjmp	.+164    	; 0x2820 <.L279>

0000277c <.Loc.401>:
		__ticks = (uint16_t) (__ms * 10.0);
    277c:	20 e0       	ldi	r18, 0x00	; 0
    277e:	30 e0       	ldi	r19, 0x00	; 0
    2780:	40 e2       	ldi	r20, 0x20	; 32
    2782:	51 e4       	ldi	r21, 0x41	; 65
    2784:	6f 85       	ldd	r22, Y+15	; 0x0f
    2786:	78 89       	ldd	r23, Y+16	; 0x10
    2788:	89 89       	ldd	r24, Y+17	; 0x11
    278a:	9a 89       	ldd	r25, Y+18	; 0x12
    278c:	0e 94 a0 32 	call	0x6540	; 0x6540 <__mulsf3>
    2790:	c2 5f       	subi	r28, 0xF2	; 242
    2792:	de 4f       	sbci	r29, 0xFE	; 254
    2794:	68 83       	st	Y, r22
    2796:	79 83       	std	Y+1, r23	; 0x01
    2798:	8a 83       	std	Y+2, r24	; 0x02
    279a:	9b 83       	std	Y+3, r25	; 0x03
    279c:	ce 50       	subi	r28, 0x0E	; 14
    279e:	d1 40       	sbci	r29, 0x01	; 1
    27a0:	c2 5f       	subi	r28, 0xF2	; 242
    27a2:	de 4f       	sbci	r29, 0xFE	; 254
    27a4:	88 81       	ld	r24, Y
    27a6:	99 81       	ldd	r25, Y+1	; 0x01
    27a8:	aa 81       	ldd	r26, Y+2	; 0x02
    27aa:	bb 81       	ldd	r27, Y+3	; 0x03
    27ac:	ce 50       	subi	r28, 0x0E	; 14
    27ae:	d1 40       	sbci	r29, 0x01	; 1
    27b0:	ce 57       	subi	r28, 0x7E	; 126
    27b2:	df 4f       	sbci	r29, 0xFF	; 255
    27b4:	88 83       	st	Y, r24
    27b6:	99 83       	std	Y+1, r25	; 0x01
    27b8:	aa 83       	std	Y+2, r26	; 0x02
    27ba:	bb 83       	std	Y+3, r27	; 0x03
    27bc:	c2 58       	subi	r28, 0x82	; 130
    27be:	d0 40       	sbci	r29, 0x00	; 0

000027c0 <.Loc.402>:
    27c0:	ce 57       	subi	r28, 0x7E	; 126
    27c2:	df 4f       	sbci	r29, 0xFF	; 255
    27c4:	68 81       	ld	r22, Y
    27c6:	79 81       	ldd	r23, Y+1	; 0x01
    27c8:	8a 81       	ldd	r24, Y+2	; 0x02
    27ca:	9b 81       	ldd	r25, Y+3	; 0x03
    27cc:	c2 58       	subi	r28, 0x82	; 130
    27ce:	d0 40       	sbci	r29, 0x00	; 0
    27d0:	0e 94 ba 31 	call	0x6374	; 0x6374 <__fixunssfsi>
    27d4:	ce 5e       	subi	r28, 0xEE	; 238
    27d6:	de 4f       	sbci	r29, 0xFE	; 254
    27d8:	68 83       	st	Y, r22
    27da:	79 83       	std	Y+1, r23	; 0x01
    27dc:	8a 83       	std	Y+2, r24	; 0x02
    27de:	9b 83       	std	Y+3, r25	; 0x03
    27e0:	c2 51       	subi	r28, 0x12	; 18
    27e2:	d1 40       	sbci	r29, 0x01	; 1
    27e4:	ce 5e       	subi	r28, 0xEE	; 238
    27e6:	de 4f       	sbci	r29, 0xFE	; 254
    27e8:	a8 81       	ld	r26, Y
    27ea:	b9 81       	ldd	r27, Y+1	; 0x01
    27ec:	c2 51       	subi	r28, 0x12	; 18
    27ee:	d1 40       	sbci	r29, 0x01	; 1
    27f0:	b8 8f       	std	Y+24, r27	; 0x18
    27f2:	af 8b       	std	Y+23, r26	; 0x17

000027f4 <.Loc.403>:
		while(__ticks)
    27f4:	10 c0       	rjmp	.+32     	; 0x2816 <.L234>

000027f6 <.L235>:
    27f6:	80 e9       	ldi	r24, 0x90	; 144
    27f8:	91 e0       	ldi	r25, 0x01	; 1
    27fa:	9a 8f       	std	Y+26, r25	; 0x1a
    27fc:	89 8f       	std	Y+25, r24	; 0x19

000027fe <.LBB268>:
	__asm__ volatile (
    27fe:	89 8d       	ldd	r24, Y+25	; 0x19
    2800:	9a 8d       	ldd	r25, Y+26	; 0x1a

00002802 <.L1^B38>:
    2802:	01 97       	sbiw	r24, 0x01	; 1
    2804:	f1 f7       	brne	.-4      	; 0x2802 <.L1^B38>
    2806:	9a 8f       	std	Y+26, r25	; 0x1a
    2808:	89 8f       	std	Y+25, r24	; 0x19

0000280a <.Loc.405>:
	...

0000280c <.LBE268>:
			__ticks --;
    280c:	8f 89       	ldd	r24, Y+23	; 0x17
    280e:	98 8d       	ldd	r25, Y+24	; 0x18
    2810:	01 97       	sbiw	r24, 0x01	; 1
    2812:	98 8f       	std	Y+24, r25	; 0x18
    2814:	8f 8b       	std	Y+23, r24	; 0x17

00002816 <.L234>:
		while(__ticks)
    2816:	8f 89       	ldd	r24, Y+23	; 0x17
    2818:	98 8d       	ldd	r25, Y+24	; 0x18
    281a:	00 97       	sbiw	r24, 0x00	; 0
    281c:	61 f7       	brne	.-40     	; 0x27f6 <.L235>

0000281e <.Loc.408>:
		return;
    281e:	64 c0       	rjmp	.+200    	; 0x28e8 <.L226>

00002820 <.L279>:
		__ticks = (uint16_t)__tmp;
    2820:	6b 89       	ldd	r22, Y+19	; 0x13
    2822:	7c 89       	ldd	r23, Y+20	; 0x14
    2824:	8d 89       	ldd	r24, Y+21	; 0x15
    2826:	9e 89       	ldd	r25, Y+22	; 0x16
    2828:	0e 94 ba 31 	call	0x6374	; 0x6374 <__fixunssfsi>
    282c:	ca 5e       	subi	r28, 0xEA	; 234
    282e:	de 4f       	sbci	r29, 0xFE	; 254
    2830:	68 83       	st	Y, r22
    2832:	79 83       	std	Y+1, r23	; 0x01
    2834:	8a 83       	std	Y+2, r24	; 0x02
    2836:	9b 83       	std	Y+3, r25	; 0x03
    2838:	c6 51       	subi	r28, 0x16	; 22
    283a:	d1 40       	sbci	r29, 0x01	; 1
    283c:	ca 5e       	subi	r28, 0xEA	; 234
    283e:	de 4f       	sbci	r29, 0xFE	; 254
    2840:	e8 81       	ld	r30, Y
    2842:	f9 81       	ldd	r31, Y+1	; 0x01
    2844:	c6 51       	subi	r28, 0x16	; 22
    2846:	d1 40       	sbci	r29, 0x01	; 1
    2848:	f8 8f       	std	Y+24, r31	; 0x18
    284a:	ef 8b       	std	Y+23, r30	; 0x17

0000284c <.L231>:
    284c:	8f 89       	ldd	r24, Y+23	; 0x17
    284e:	98 8d       	ldd	r25, Y+24	; 0x18
    2850:	9c 8f       	std	Y+28, r25	; 0x1c
    2852:	8b 8f       	std	Y+27, r24	; 0x1b

00002854 <.LBB270>:
    2854:	8b 8d       	ldd	r24, Y+27	; 0x1b
    2856:	9c 8d       	ldd	r25, Y+28	; 0x1c

00002858 <.L1^B39>:
    2858:	01 97       	sbiw	r24, 0x01	; 1
    285a:	f1 f7       	brne	.-4      	; 0x2858 <.L1^B39>
    285c:	9c 8f       	std	Y+28, r25	; 0x1c
    285e:	8b 8f       	std	Y+27, r24	; 0x1b

00002860 <.Loc.411>:
}
    2860:	43 c0       	rjmp	.+134    	; 0x28e8 <.L226>

00002862 <.L277>:
	else if (__tmp > 255)
    2862:	20 e0       	ldi	r18, 0x00	; 0
    2864:	30 e0       	ldi	r19, 0x00	; 0
    2866:	4f e7       	ldi	r20, 0x7F	; 127
    2868:	53 e4       	ldi	r21, 0x43	; 67
    286a:	6e 81       	ldd	r22, Y+6	; 0x06
    286c:	7f 81       	ldd	r23, Y+7	; 0x07
    286e:	88 85       	ldd	r24, Y+8	; 0x08
    2870:	99 85       	ldd	r25, Y+9	; 0x09
    2872:	0e 94 9b 32 	call	0x6536	; 0x6536 <__gesf2>
    2876:	88 23       	and	r24, r24
    2878:	19 f1       	breq	.+70     	; 0x28c0 <.L280>
    287a:	14 f1       	brlt	.+68     	; 0x28c0 <.L280>

0000287c <.LBB272>:
		uint16_t __ticks=(uint16_t)__tmp2;
    287c:	6a 85       	ldd	r22, Y+10	; 0x0a
    287e:	7b 85       	ldd	r23, Y+11	; 0x0b
    2880:	8c 85       	ldd	r24, Y+12	; 0x0c
    2882:	9d 85       	ldd	r25, Y+13	; 0x0d
    2884:	0e 94 ba 31 	call	0x6374	; 0x6374 <__fixunssfsi>
    2888:	c6 5e       	subi	r28, 0xE6	; 230
    288a:	de 4f       	sbci	r29, 0xFE	; 254
    288c:	68 83       	st	Y, r22
    288e:	79 83       	std	Y+1, r23	; 0x01
    2890:	8a 83       	std	Y+2, r24	; 0x02
    2892:	9b 83       	std	Y+3, r25	; 0x03
    2894:	ca 51       	subi	r28, 0x1A	; 26
    2896:	d1 40       	sbci	r29, 0x01	; 1
    2898:	c6 5e       	subi	r28, 0xE6	; 230
    289a:	de 4f       	sbci	r29, 0xFE	; 254
    289c:	88 81       	ld	r24, Y
    289e:	99 81       	ldd	r25, Y+1	; 0x01
    28a0:	ca 51       	subi	r28, 0x1A	; 26
    28a2:	d1 40       	sbci	r29, 0x01	; 1
    28a4:	9e 8f       	std	Y+30, r25	; 0x1e
    28a6:	8d 8f       	std	Y+29, r24	; 0x1d
    28a8:	8d 8d       	ldd	r24, Y+29	; 0x1d
    28aa:	9e 8d       	ldd	r25, Y+30	; 0x1e
    28ac:	98 a3       	std	Y+32, r25	; 0x20
    28ae:	8f 8f       	std	Y+31, r24	; 0x1f

000028b0 <.LBB273>:
	__asm__ volatile (
    28b0:	8f 8d       	ldd	r24, Y+31	; 0x1f
    28b2:	98 a1       	ldd	r25, Y+32	; 0x20

000028b4 <.L1^B40>:
    28b4:	01 97       	sbiw	r24, 0x01	; 1
    28b6:	f1 f7       	brne	.-4      	; 0x28b4 <.L1^B40>
    28b8:	98 a3       	std	Y+32, r25	; 0x20
    28ba:	8f 8f       	std	Y+31, r24	; 0x1f

000028bc <.Loc.415>:
	...

000028be <.LBE273>:
		return;
    28be:	1b c0       	rjmp	.+54     	; 0x28f6 <.L239>

000028c0 <.L280>:
		__ticks = (uint8_t)__tmp;
    28c0:	6e 81       	ldd	r22, Y+6	; 0x06
    28c2:	7f 81       	ldd	r23, Y+7	; 0x07
    28c4:	88 85       	ldd	r24, Y+8	; 0x08
    28c6:	99 85       	ldd	r25, Y+9	; 0x09
    28c8:	0e 94 ba 31 	call	0x6374	; 0x6374 <__fixunssfsi>
    28cc:	c2 5e       	subi	r28, 0xE2	; 226
    28ce:	de 4f       	sbci	r29, 0xFE	; 254
    28d0:	68 83       	st	Y, r22
    28d2:	79 83       	std	Y+1, r23	; 0x01
    28d4:	8a 83       	std	Y+2, r24	; 0x02
    28d6:	9b 83       	std	Y+3, r25	; 0x03
    28d8:	ce 51       	subi	r28, 0x1E	; 30
    28da:	d1 40       	sbci	r29, 0x01	; 1
    28dc:	c2 5e       	subi	r28, 0xE2	; 226
    28de:	de 4f       	sbci	r29, 0xFE	; 254
    28e0:	98 81       	ld	r25, Y
    28e2:	ce 51       	subi	r28, 0x1E	; 30
    28e4:	d1 40       	sbci	r29, 0x01	; 1
    28e6:	9e 87       	std	Y+14, r25	; 0x0e

000028e8 <.L226>:
    28e8:	8e 85       	ldd	r24, Y+14	; 0x0e
    28ea:	89 a3       	std	Y+33, r24	; 0x21

000028ec <.LBB275>:
	__asm__ volatile (
    28ec:	89 a1       	ldd	r24, Y+33	; 0x21

000028ee <.L1^B41>:
    28ee:	8a 95       	dec	r24
    28f0:	f1 f7       	brne	.-4      	; 0x28ee <.L1^B41>
    28f2:	89 a3       	std	Y+33, r24	; 0x21

000028f4 <.Loc.419>:
	...

000028f6 <.L239>:
        _delay_us(1);                               // implement 'Address hold time (10 nS), 'Data hold time' (10 nS), and 'Enable cycle time' (500 nS )

    } while (busy_flag_copy);                       // check again if busy flag was high
    28f6:	89 81       	ldd	r24, Y+1	; 0x01
    28f8:	88 23       	and	r24, r24
    28fa:	09 f0       	breq	.+2      	; 0x28fe <.Loc.421>

000028fc <L0^A>:
    28fc:	73 c8       	rjmp	.-3866   	; 0x19e4 <.L240>

000028fe <.Loc.421>:

// arrive here if busy flag is clear -  clean up and return
    set_RW_LOW_write;               // write to LCD module (RW low)
    28fe:	88 e2       	ldi	r24, 0x28	; 40
    2900:	90 e0       	ldi	r25, 0x00	; 0
    2902:	dc 01       	movw	r26, r24
    2904:	2c 91       	ld	r18, X
    2906:	88 e2       	ldi	r24, 0x28	; 40
    2908:	90 e0       	ldi	r25, 0x00	; 0
    290a:	2b 7f       	andi	r18, 0xFB	; 251
    290c:	fc 01       	movw	r30, r24
    290e:	20 83       	st	Z, r18

00002910 <.Loc.422>:
    set_D7_output;                  // reset D7 data direction to output
    2910:	87 e2       	ldi	r24, 0x27	; 39
    2912:	90 e0       	ldi	r25, 0x00	; 0
    2914:	dc 01       	movw	r26, r24
    2916:	2c 91       	ld	r18, X
    2918:	87 e2       	ldi	r24, 0x27	; 39
    291a:	90 e0       	ldi	r25, 0x00	; 0
    291c:	20 68       	ori	r18, 0x80	; 128
    291e:	fc 01       	movw	r30, r24
    2920:	20 83       	st	Z, r18

00002922 <.Loc.423>:
}
    2922:	00 00       	nop
    2924:	cf 5d       	subi	r28, 0xDF	; 223
    2926:	de 4f       	sbci	r29, 0xFE	; 254
    2928:	0f b6       	in	r0, 0x3f	; 63
    292a:	f8 94       	cli
    292c:	de bf       	out	0x3e, r29	; 62
    292e:	0f be       	out	0x3f, r0	; 63
    2930:	cd bf       	out	0x3d, r28	; 61
    2932:	df 91       	pop	r29
    2934:	cf 91       	pop	r28
    2936:	1f 91       	pop	r17
    2938:	0f 91       	pop	r16
    293a:	08 95       	ret

0000293c <lcd_mywrite>:
Name:		lcd_mywrite(0
Inputs:		row, stringdata
Outputs:	none
Description:prints a string on the desired row
******************************************************************** */
void lcd_mywrite(uint8_t row, char * s1){
    293c:	cf 93       	push	r28
    293e:	df 93       	push	r29
    2940:	00 d0       	rcall	.+0      	; 0x2942 <L0^A>

00002942 <L0^A>:
    2942:	cd b7       	in	r28, 0x3d	; 61
    2944:	de b7       	in	r29, 0x3e	; 62
    2946:	89 83       	std	Y+1, r24	; 0x01
    2948:	7b 83       	std	Y+3, r23	; 0x03
    294a:	6a 83       	std	Y+2, r22	; 0x02

0000294c <.Loc.425>:
                   switch(row) {
    294c:	89 81       	ldd	r24, Y+1	; 0x01
    294e:	88 2f       	mov	r24, r24
    2950:	90 e0       	ldi	r25, 0x00	; 0
    2952:	81 30       	cpi	r24, 0x01	; 1
    2954:	91 05       	cpc	r25, r1
    2956:	21 f0       	breq	.+8      	; 0x2960 <.L282>
    2958:	82 30       	cpi	r24, 0x02	; 2
    295a:	91 05       	cpc	r25, r1
    295c:	29 f0       	breq	.+10     	; 0x2968 <.L283>

0000295e <.Loc.426>:
			lcd_write_instruction_4f(lcd_SetCursor | lcd_LineTwo);
			break;
	}
	//lcd_write_string_4f((unsigned char*) charRow);

}
    295e:	08 c0       	rjmp	.+16     	; 0x2970 <.L284>

00002960 <.L282>:
			lcd_write_instruction_4f(lcd_SetCursor | lcd_LineOne);
    2960:	80 e8       	ldi	r24, 0x80	; 128
    2962:	0e 94 04 09 	call	0x1208	; 0x1208 <lcd_write_instruction_4f>

00002966 <.Loc.428>:
			break;
    2966:	04 c0       	rjmp	.+8      	; 0x2970 <.L284>

00002968 <.L283>:
			lcd_write_instruction_4f(lcd_SetCursor | lcd_LineTwo);
    2968:	80 ec       	ldi	r24, 0xC0	; 192
    296a:	0e 94 04 09 	call	0x1208	; 0x1208 <lcd_write_instruction_4f>

0000296e <.Loc.430>:
	...

00002970 <.L284>:
}
    2970:	00 00       	nop
    2972:	0f 90       	pop	r0
    2974:	0f 90       	pop	r0
    2976:	0f 90       	pop	r0
    2978:	df 91       	pop	r29
    297a:	cf 91       	pop	r28
    297c:	08 95       	ret

0000297e <init>:
volatile int re = 0;



// Init Functies:
void init(void){
    297e:	cf 93       	push	r28
    2980:	df 93       	push	r29
    2982:	cd b7       	in	r28, 0x3d	; 61
    2984:	de b7       	in	r29, 0x3e	; 62

00002986 <.Loc.1>:
    initleds();
    2986:	0e 94 d3 14 	call	0x29a6	; 0x29a6 <initleds>

0000298a <.Loc.2>:
    initbuzzer();
    298a:	0e 94 e4 14 	call	0x29c8	; 0x29c8 <initbuzzer>

0000298e <.Loc.3>:
    initknoppen();
    298e:	0e 94 f5 14 	call	0x29ea	; 0x29ea <initknoppen>

00002992 <.Loc.4>:
    initmotoren();
    2992:	0e 94 1f 15 	call	0x2a3e	; 0x2a3e <initmotoren>

00002996 <.Loc.5>:
    initsensoren();
    2996:	0e 94 06 15 	call	0x2a0c	; 0x2a0c <initsensoren>

0000299a <.Loc.6>:

    //initLCD();
    initsonars();
    299a:	0e 94 81 15 	call	0x2b02	; 0x2b02 <initsonars>

0000299e <.Loc.7>:
    /*updateLCDScreen(1, "clicks:", clicks, "");
    updateLCDScreen(2, "afstand:", afstand, "mm" ); */
}
    299e:	00 00       	nop
    29a0:	df 91       	pop	r29
    29a2:	cf 91       	pop	r28
    29a4:	08 95       	ret

000029a6 <initleds>:

void initleds(void){
    29a6:	cf 93       	push	r28
    29a8:	df 93       	push	r29
    29aa:	cd b7       	in	r28, 0x3d	; 61
    29ac:	de b7       	in	r29, 0x3e	; 62

000029ae <.Loc.9>:
    DDRA |= (1<<PA3)| (1<<PA4) | (1<<PA5)| (1<<PA6)| (1<<PA7);
    29ae:	81 e2       	ldi	r24, 0x21	; 33
    29b0:	90 e0       	ldi	r25, 0x00	; 0
    29b2:	fc 01       	movw	r30, r24
    29b4:	20 81       	ld	r18, Z
    29b6:	81 e2       	ldi	r24, 0x21	; 33
    29b8:	90 e0       	ldi	r25, 0x00	; 0

000029ba <.Loc.10>:
    29ba:	28 6f       	ori	r18, 0xF8	; 248
    29bc:	fc 01       	movw	r30, r24
    29be:	20 83       	st	Z, r18

000029c0 <.Loc.11>:
    // BoomRechts; BoomLinks; Follow; AanLed; NoodstopAan
}
    29c0:	00 00       	nop
    29c2:	df 91       	pop	r29
    29c4:	cf 91       	pop	r28
    29c6:	08 95       	ret

000029c8 <initbuzzer>:

void initbuzzer(void){
    29c8:	cf 93       	push	r28
    29ca:	df 93       	push	r29
    29cc:	cd b7       	in	r28, 0x3d	; 61
    29ce:	de b7       	in	r29, 0x3e	; 62

000029d0 <.Loc.13>:
    DDRL |= (1<<PL2); //pin 37
    29d0:	8a e0       	ldi	r24, 0x0A	; 10
    29d2:	91 e0       	ldi	r25, 0x01	; 1
    29d4:	fc 01       	movw	r30, r24
    29d6:	20 81       	ld	r18, Z
    29d8:	8a e0       	ldi	r24, 0x0A	; 10
    29da:	91 e0       	ldi	r25, 0x01	; 1

000029dc <.Loc.14>:
    29dc:	24 60       	ori	r18, 0x04	; 4
    29de:	fc 01       	movw	r30, r24
    29e0:	20 83       	st	Z, r18

000029e2 <.Loc.15>:
}
    29e2:	00 00       	nop
    29e4:	df 91       	pop	r29
    29e6:	cf 91       	pop	r28
    29e8:	08 95       	ret

000029ea <initknoppen>:

void initknoppen(void){
    29ea:	cf 93       	push	r28
    29ec:	df 93       	push	r29
    29ee:	cd b7       	in	r28, 0x3d	; 61
    29f0:	de b7       	in	r29, 0x3e	; 62

000029f2 <.Loc.17>:
    DDRA &= ~(1<<PA0) & ~(1<<PA1) & ~(1<<PA2);
    29f2:	81 e2       	ldi	r24, 0x21	; 33
    29f4:	90 e0       	ldi	r25, 0x00	; 0
    29f6:	fc 01       	movw	r30, r24
    29f8:	20 81       	ld	r18, Z

000029fa <.Loc.18>:
    29fa:	81 e2       	ldi	r24, 0x21	; 33
    29fc:	90 e0       	ldi	r25, 0x00	; 0

000029fe <.Loc.19>:
    29fe:	28 7f       	andi	r18, 0xF8	; 248
    2a00:	fc 01       	movw	r30, r24
    2a02:	20 83       	st	Z, r18

00002a04 <.Loc.20>:
    // Follow; Aan/Uit; Noodstop 1 en 2 + Bumper
}
    2a04:	00 00       	nop
    2a06:	df 91       	pop	r29
    2a08:	cf 91       	pop	r28
    2a0a:	08 95       	ret

00002a0c <initsensoren>:

void initsensoren(void){
    2a0c:	cf 93       	push	r28
    2a0e:	df 93       	push	r29
    2a10:	cd b7       	in	r28, 0x3d	; 61
    2a12:	de b7       	in	r29, 0x3e	; 62

00002a14 <.Loc.22>:
    DDRE &= (1<<PE3) & (1<<PE4) & (1<<PE5);
    2a14:	8d e2       	ldi	r24, 0x2D	; 45
    2a16:	90 e0       	ldi	r25, 0x00	; 0
    2a18:	fc 01       	movw	r30, r24
    2a1a:	80 81       	ld	r24, Z
    2a1c:	8d e2       	ldi	r24, 0x2D	; 45
    2a1e:	90 e0       	ldi	r25, 0x00	; 0

00002a20 <.Loc.23>:
    2a20:	fc 01       	movw	r30, r24
    2a22:	10 82       	st	Z, r1

00002a24 <.Loc.24>:
    DDRG &= (1<<PG5);
    2a24:	83 e3       	ldi	r24, 0x33	; 51
    2a26:	90 e0       	ldi	r25, 0x00	; 0
    2a28:	fc 01       	movw	r30, r24
    2a2a:	20 81       	ld	r18, Z

00002a2c <.Loc.25>:
    2a2c:	83 e3       	ldi	r24, 0x33	; 51
    2a2e:	90 e0       	ldi	r25, 0x00	; 0

00002a30 <.Loc.26>:
    2a30:	20 72       	andi	r18, 0x20	; 32
    2a32:	fc 01       	movw	r30, r24
    2a34:	20 83       	st	Z, r18

00002a36 <.Loc.27>:
}
    2a36:	00 00       	nop
    2a38:	df 91       	pop	r29
    2a3a:	cf 91       	pop	r28
    2a3c:	08 95       	ret

00002a3e <initmotoren>:

void initmotoren(void){
    2a3e:	cf 93       	push	r28
    2a40:	df 93       	push	r29
    2a42:	cd b7       	in	r28, 0x3d	; 61
    2a44:	de b7       	in	r29, 0x3e	; 62

00002a46 <.Loc.29>:
    //timer 1 is de L richting:
    DDRB |= (1<<PB5) | (1<<PB6);
    2a46:	84 e2       	ldi	r24, 0x24	; 36
    2a48:	90 e0       	ldi	r25, 0x00	; 0
    2a4a:	fc 01       	movw	r30, r24
    2a4c:	20 81       	ld	r18, Z
    2a4e:	84 e2       	ldi	r24, 0x24	; 36
    2a50:	90 e0       	ldi	r25, 0x00	; 0

00002a52 <.Loc.30>:
    2a52:	20 66       	ori	r18, 0x60	; 96
    2a54:	fc 01       	movw	r30, r24
    2a56:	20 83       	st	Z, r18

00002a58 <.Loc.31>:
    TCCR1B |= (1<<CS12)|(1<<CS10); //CLOCK / 1024
    2a58:	81 e8       	ldi	r24, 0x81	; 129
    2a5a:	90 e0       	ldi	r25, 0x00	; 0
    2a5c:	fc 01       	movw	r30, r24
    2a5e:	20 81       	ld	r18, Z
    2a60:	81 e8       	ldi	r24, 0x81	; 129
    2a62:	90 e0       	ldi	r25, 0x00	; 0

00002a64 <.Loc.32>:
    2a64:	25 60       	ori	r18, 0x05	; 5
    2a66:	fc 01       	movw	r30, r24
    2a68:	20 83       	st	Z, r18

00002a6a <.Loc.33>:
    TCCR1A |= (1<<WGM12) |(1<<WGM10); //8 BIT FAST PWM MODE
    2a6a:	80 e8       	ldi	r24, 0x80	; 128
    2a6c:	90 e0       	ldi	r25, 0x00	; 0
    2a6e:	fc 01       	movw	r30, r24
    2a70:	20 81       	ld	r18, Z
    2a72:	80 e8       	ldi	r24, 0x80	; 128
    2a74:	90 e0       	ldi	r25, 0x00	; 0

00002a76 <.Loc.34>:
    2a76:	29 60       	ori	r18, 0x09	; 9
    2a78:	fc 01       	movw	r30, r24
    2a7a:	20 83       	st	Z, r18

00002a7c <.Loc.35>:
    OCR1A = 127; //pin 11
    2a7c:	88 e8       	ldi	r24, 0x88	; 136
    2a7e:	90 e0       	ldi	r25, 0x00	; 0

00002a80 <.Loc.36>:
    2a80:	2f e7       	ldi	r18, 0x7F	; 127
    2a82:	30 e0       	ldi	r19, 0x00	; 0
    2a84:	fc 01       	movw	r30, r24
    2a86:	31 83       	std	Z+1, r19	; 0x01
    2a88:	20 83       	st	Z, r18

00002a8a <.Loc.37>:
    OCR1B = 127; //pin 12
    2a8a:	8a e8       	ldi	r24, 0x8A	; 138
    2a8c:	90 e0       	ldi	r25, 0x00	; 0

00002a8e <.Loc.38>:
    2a8e:	2f e7       	ldi	r18, 0x7F	; 127
    2a90:	30 e0       	ldi	r19, 0x00	; 0
    2a92:	fc 01       	movw	r30, r24
    2a94:	31 83       	std	Z+1, r19	; 0x01
    2a96:	20 83       	st	Z, r18

00002a98 <.Loc.39>:

    //timer 4 is de R richting:
    DDRH |= (1<<PH3) | (1<<PH4);
    2a98:	81 e0       	ldi	r24, 0x01	; 1
    2a9a:	91 e0       	ldi	r25, 0x01	; 1
    2a9c:	fc 01       	movw	r30, r24
    2a9e:	20 81       	ld	r18, Z
    2aa0:	81 e0       	ldi	r24, 0x01	; 1
    2aa2:	91 e0       	ldi	r25, 0x01	; 1

00002aa4 <.Loc.40>:
    2aa4:	28 61       	ori	r18, 0x18	; 24
    2aa6:	fc 01       	movw	r30, r24
    2aa8:	20 83       	st	Z, r18

00002aaa <.Loc.41>:
    TCCR4B |= (1<<CS42)|(1<<CS40); //CLOCK / 1024
    2aaa:	81 ea       	ldi	r24, 0xA1	; 161
    2aac:	90 e0       	ldi	r25, 0x00	; 0
    2aae:	fc 01       	movw	r30, r24
    2ab0:	20 81       	ld	r18, Z
    2ab2:	81 ea       	ldi	r24, 0xA1	; 161
    2ab4:	90 e0       	ldi	r25, 0x00	; 0

00002ab6 <.Loc.42>:
    2ab6:	25 60       	ori	r18, 0x05	; 5
    2ab8:	fc 01       	movw	r30, r24
    2aba:	20 83       	st	Z, r18

00002abc <.Loc.43>:
    TCCR4A |= (1<<WGM42) |(1<<WGM40); //8 BIT FAST PWM MODE
    2abc:	80 ea       	ldi	r24, 0xA0	; 160
    2abe:	90 e0       	ldi	r25, 0x00	; 0
    2ac0:	fc 01       	movw	r30, r24
    2ac2:	20 81       	ld	r18, Z
    2ac4:	80 ea       	ldi	r24, 0xA0	; 160
    2ac6:	90 e0       	ldi	r25, 0x00	; 0

00002ac8 <.Loc.44>:
    2ac8:	29 60       	ori	r18, 0x09	; 9
    2aca:	fc 01       	movw	r30, r24
    2acc:	20 83       	st	Z, r18

00002ace <.Loc.45>:
    OCR4A = 127; //pin6
    2ace:	88 ea       	ldi	r24, 0xA8	; 168
    2ad0:	90 e0       	ldi	r25, 0x00	; 0

00002ad2 <.Loc.46>:
    2ad2:	2f e7       	ldi	r18, 0x7F	; 127
    2ad4:	30 e0       	ldi	r19, 0x00	; 0
    2ad6:	fc 01       	movw	r30, r24
    2ad8:	31 83       	std	Z+1, r19	; 0x01
    2ada:	20 83       	st	Z, r18

00002adc <.Loc.47>:
    OCR4B = 127; //pin 7
    2adc:	8a ea       	ldi	r24, 0xAA	; 170
    2ade:	90 e0       	ldi	r25, 0x00	; 0

00002ae0 <.Loc.48>:
    2ae0:	2f e7       	ldi	r18, 0x7F	; 127
    2ae2:	30 e0       	ldi	r19, 0x00	; 0
    2ae4:	fc 01       	movw	r30, r24
    2ae6:	31 83       	std	Z+1, r19	; 0x01
    2ae8:	20 83       	st	Z, r18

00002aea <.Loc.49>:

    rrichting(0);
    2aea:	80 e0       	ldi	r24, 0x00	; 0
    2aec:	90 e0       	ldi	r25, 0x00	; 0
    2aee:	0e 94 5c 1a 	call	0x34b8	; 0x34b8 <rrichting>

00002af2 <.Loc.50>:
    lrichting(0);
    2af2:	80 e0       	ldi	r24, 0x00	; 0
    2af4:	90 e0       	ldi	r25, 0x00	; 0
    2af6:	0e 94 93 1a 	call	0x3526	; 0x3526 <lrichting>

00002afa <.Loc.51>:


}
    2afa:	00 00       	nop
    2afc:	df 91       	pop	r29
    2afe:	cf 91       	pop	r28
    2b00:	08 95       	ret

00002b02 <initsonars>:

void initsonars(void){
    2b02:	cf 93       	push	r28
    2b04:	df 93       	push	r29
    2b06:	cd b7       	in	r28, 0x3d	; 61
    2b08:	de b7       	in	r29, 0x3e	; 62

00002b0a <.Loc.53>:
       MULTIPLEXER B PB1, PIN52 -> pin 2 op de chip
    */



    DDRL &= ~(1<<PL0); //ICP4 als input
    2b0a:	8a e0       	ldi	r24, 0x0A	; 10
    2b0c:	91 e0       	ldi	r25, 0x01	; 1
    2b0e:	fc 01       	movw	r30, r24
    2b10:	20 81       	ld	r18, Z

00002b12 <.Loc.54>:
    2b12:	8a e0       	ldi	r24, 0x0A	; 10
    2b14:	91 e0       	ldi	r25, 0x01	; 1

00002b16 <.Loc.55>:
    2b16:	2e 7f       	andi	r18, 0xFE	; 254
    2b18:	fc 01       	movw	r30, r24
    2b1a:	20 83       	st	Z, r18

00002b1c <.Loc.56>:
    DDRB |= (1<<PB1); //MUXA als output
    2b1c:	84 e2       	ldi	r24, 0x24	; 36
    2b1e:	90 e0       	ldi	r25, 0x00	; 0
    2b20:	fc 01       	movw	r30, r24
    2b22:	20 81       	ld	r18, Z
    2b24:	84 e2       	ldi	r24, 0x24	; 36
    2b26:	90 e0       	ldi	r25, 0x00	; 0

00002b28 <.Loc.57>:
    2b28:	22 60       	ori	r18, 0x02	; 2
    2b2a:	fc 01       	movw	r30, r24
    2b2c:	20 83       	st	Z, r18

00002b2e <.Loc.58>:
    DDRB |= (1<<PB0); //MUXB als output
    2b2e:	84 e2       	ldi	r24, 0x24	; 36
    2b30:	90 e0       	ldi	r25, 0x00	; 0
    2b32:	fc 01       	movw	r30, r24
    2b34:	20 81       	ld	r18, Z
    2b36:	84 e2       	ldi	r24, 0x24	; 36
    2b38:	90 e0       	ldi	r25, 0x00	; 0

00002b3a <.Loc.59>:
    2b3a:	21 60       	ori	r18, 0x01	; 1
    2b3c:	fc 01       	movw	r30, r24
    2b3e:	20 83       	st	Z, r18

00002b40 <.Loc.60>:
    DDRB |= (1<<PB2); //TRIGER als output
    2b40:	84 e2       	ldi	r24, 0x24	; 36
    2b42:	90 e0       	ldi	r25, 0x00	; 0
    2b44:	fc 01       	movw	r30, r24
    2b46:	20 81       	ld	r18, Z
    2b48:	84 e2       	ldi	r24, 0x24	; 36
    2b4a:	90 e0       	ldi	r25, 0x00	; 0

00002b4c <.Loc.61>:
    2b4c:	24 60       	ori	r18, 0x04	; 4
    2b4e:	fc 01       	movw	r30, r24
    2b50:	20 83       	st	Z, r18

00002b52 <.Loc.62>:
    //DDRH |= (1<<PH3); //S0 enable als output
    //DDRH |= (1<<PH4); //S1 enable als output

    PORTH &= ~(1<<PH3); PORTH &= ~(1<<PH4); //alle sensoren uit
    2b52:	82 e0       	ldi	r24, 0x02	; 2
    2b54:	91 e0       	ldi	r25, 0x01	; 1
    2b56:	fc 01       	movw	r30, r24
    2b58:	20 81       	ld	r18, Z

00002b5a <.Loc.63>:
    2b5a:	82 e0       	ldi	r24, 0x02	; 2
    2b5c:	91 e0       	ldi	r25, 0x01	; 1

00002b5e <.Loc.64>:
    2b5e:	27 7f       	andi	r18, 0xF7	; 247
    2b60:	fc 01       	movw	r30, r24
    2b62:	20 83       	st	Z, r18

00002b64 <.Loc.65>:
    2b64:	82 e0       	ldi	r24, 0x02	; 2
    2b66:	91 e0       	ldi	r25, 0x01	; 1
    2b68:	fc 01       	movw	r30, r24
    2b6a:	20 81       	ld	r18, Z

00002b6c <.Loc.66>:
    2b6c:	82 e0       	ldi	r24, 0x02	; 2
    2b6e:	91 e0       	ldi	r25, 0x01	; 1

00002b70 <.Loc.67>:
    2b70:	2f 7e       	andi	r18, 0xEF	; 239
    2b72:	fc 01       	movw	r30, r24
    2b74:	20 83       	st	Z, r18

00002b76 <.Loc.68>:

    TCCR4B = (1<<CS11); // /8 klokdeler
    2b76:	81 ea       	ldi	r24, 0xA1	; 161
    2b78:	90 e0       	ldi	r25, 0x00	; 0

00002b7a <.Loc.69>:
    2b7a:	22 e0       	ldi	r18, 0x02	; 2
    2b7c:	fc 01       	movw	r30, r24
    2b7e:	20 83       	st	Z, r18

00002b80 <.Loc.70>:
	TCCR4B |= (1<<ICNC4); //enable input capture noise canceler
    2b80:	81 ea       	ldi	r24, 0xA1	; 161
    2b82:	90 e0       	ldi	r25, 0x00	; 0
    2b84:	fc 01       	movw	r30, r24
    2b86:	20 81       	ld	r18, Z
    2b88:	81 ea       	ldi	r24, 0xA1	; 161
    2b8a:	90 e0       	ldi	r25, 0x00	; 0

00002b8c <.Loc.71>:
    2b8c:	20 68       	ori	r18, 0x80	; 128
    2b8e:	fc 01       	movw	r30, r24
    2b90:	20 83       	st	Z, r18

00002b92 <.Loc.72>:
	TCCR4B |= (1<<ICES4); //change input capture edge select on rising edge
    2b92:	81 ea       	ldi	r24, 0xA1	; 161
    2b94:	90 e0       	ldi	r25, 0x00	; 0
    2b96:	fc 01       	movw	r30, r24
    2b98:	20 81       	ld	r18, Z
    2b9a:	81 ea       	ldi	r24, 0xA1	; 161
    2b9c:	90 e0       	ldi	r25, 0x00	; 0

00002b9e <.Loc.73>:
    2b9e:	20 64       	ori	r18, 0x40	; 64
    2ba0:	fc 01       	movw	r30, r24
    2ba2:	20 83       	st	Z, r18

00002ba4 <.Loc.74>:
	TIMSK4 |= (1<<ICIE4) | (1<<TOIE4); //enable input capture interrupt & timer overflow
    2ba4:	82 e7       	ldi	r24, 0x72	; 114
    2ba6:	90 e0       	ldi	r25, 0x00	; 0
    2ba8:	fc 01       	movw	r30, r24
    2baa:	20 81       	ld	r18, Z
    2bac:	82 e7       	ldi	r24, 0x72	; 114
    2bae:	90 e0       	ldi	r25, 0x00	; 0

00002bb0 <.Loc.75>:
    2bb0:	21 62       	ori	r18, 0x21	; 33
    2bb2:	fc 01       	movw	r30, r24
    2bb4:	20 83       	st	Z, r18

00002bb6 <.Loc.76>:
	TIFR4 = (1<<ICF4) | (1<<TOV4); //clear input capture flag & timer overflow flag
    2bb6:	89 e3       	ldi	r24, 0x39	; 57
    2bb8:	90 e0       	ldi	r25, 0x00	; 0

00002bba <.Loc.77>:
    2bba:	21 e2       	ldi	r18, 0x21	; 33
    2bbc:	fc 01       	movw	r30, r24
    2bbe:	20 83       	st	Z, r18

00002bc0 <.Loc.78>:
    TCNT4 = 0;
    2bc0:	84 ea       	ldi	r24, 0xA4	; 164
    2bc2:	90 e0       	ldi	r25, 0x00	; 0

00002bc4 <.Loc.79>:
    2bc4:	fc 01       	movw	r30, r24
    2bc6:	11 82       	std	Z+1, r1	; 0x01
    2bc8:	10 82       	st	Z, r1

00002bca <.Loc.80>:
	flag = 0;
    2bca:	10 92 4f 02 	sts	0x024F, r1	; 0x80024f <flag+0x1>
    2bce:	10 92 4e 02 	sts	0x024E, r1	; 0x80024e <flag>

00002bd2 <.Loc.81>:
    sei();
    2bd2:	78 94       	sei

00002bd4 <.Loc.82>:
}
    2bd4:	00 00       	nop
    2bd6:	df 91       	pop	r29
    2bd8:	cf 91       	pop	r28
    2bda:	08 95       	ret

00002bdc <draaiing>:


// Reken Functies:
int draaiing(void){
    2bdc:	cf 93       	push	r28
    2bde:	df 93       	push	r29
    2be0:	0f 92       	push	r0
    2be2:	0f 92       	push	r0
    2be4:	cd b7       	in	r28, 0x3d	; 61
    2be6:	de b7       	in	r29, 0x3e	; 62

00002be8 <.Loc.84>:
    // Berekening om te kijken of rijstrook getal even of oneven is, zodat de AGV weet welke kant die op moet draaien.

    int uitwerking;

    uitwerking = rijstrook%2;
    2be8:	80 91 02 02 	lds	r24, 0x0202	; 0x800202 <rijstrook>
    2bec:	90 91 03 02 	lds	r25, 0x0203	; 0x800203 <rijstrook+0x1>

00002bf0 <.Loc.85>:
    2bf0:	81 70       	andi	r24, 0x01	; 1
    2bf2:	90 78       	andi	r25, 0x80	; 128
    2bf4:	99 23       	and	r25, r25
    2bf6:	24 f4       	brge	.+8      	; 0x2c00 <.L9>
    2bf8:	01 97       	sbiw	r24, 0x01	; 1
    2bfa:	8e 6f       	ori	r24, 0xFE	; 254
    2bfc:	9f 6f       	ori	r25, 0xFF	; 255
    2bfe:	01 96       	adiw	r24, 0x01	; 1

00002c00 <.L9>:
    2c00:	9a 83       	std	Y+2, r25	; 0x02
    2c02:	89 83       	std	Y+1, r24	; 0x01

00002c04 <.Loc.86>:

    return uitwerking;
    2c04:	89 81       	ldd	r24, Y+1	; 0x01
    2c06:	9a 81       	ldd	r25, Y+2	; 0x02

00002c08 <.Loc.87>:
}
    2c08:	0f 90       	pop	r0
    2c0a:	0f 90       	pop	r0
    2c0c:	df 91       	pop	r29
    2c0e:	cf 91       	pop	r28
    2c10:	08 95       	ret

00002c12 <latVerschil>:

int latVerschil(void){
    2c12:	0f 93       	push	r16
    2c14:	1f 93       	push	r17
    2c16:	cf 93       	push	r28
    2c18:	df 93       	push	r29
    2c1a:	0f 92       	push	r0
    2c1c:	0f 92       	push	r0
    2c1e:	cd b7       	in	r28, 0x3d	; 61
    2c20:	de b7       	in	r29, 0x3e	; 62

00002c22 <.Loc.89>:
    // Berekening om te kijken of de AGV te ver van zijn route afwijkt

    int verschil;

    verschil = leessonaruit(1) - leessonaruit(2);
    2c22:	81 e0       	ldi	r24, 0x01	; 1
    2c24:	90 e0       	ldi	r25, 0x00	; 0
    2c26:	0e 94 ee 17 	call	0x2fdc	; 0x2fdc <leessonaruit>
    2c2a:	8c 01       	movw	r16, r24

00002c2c <.Loc.90>:
    2c2c:	82 e0       	ldi	r24, 0x02	; 2
    2c2e:	90 e0       	ldi	r25, 0x00	; 0
    2c30:	0e 94 ee 17 	call	0x2fdc	; 0x2fdc <leessonaruit>

00002c34 <.Loc.91>:
    2c34:	98 01       	movw	r18, r16
    2c36:	28 1b       	sub	r18, r24
    2c38:	39 0b       	sbc	r19, r25
    2c3a:	c9 01       	movw	r24, r18
    2c3c:	9a 83       	std	Y+2, r25	; 0x02
    2c3e:	89 83       	std	Y+1, r24	; 0x01

00002c40 <.Loc.92>:
    // Positief = Meer naar rechts
    // Negatief = Meer naar links

    return verschil;
    2c40:	89 81       	ldd	r24, Y+1	; 0x01
    2c42:	9a 81       	ldd	r25, Y+2	; 0x02

00002c44 <.Loc.93>:
}
    2c44:	0f 90       	pop	r0
    2c46:	0f 90       	pop	r0
    2c48:	df 91       	pop	r29
    2c4a:	cf 91       	pop	r28
    2c4c:	1f 91       	pop	r17
    2c4e:	0f 91       	pop	r16
    2c50:	08 95       	ret

00002c52 <rechtsboomled>:



// Led Functies:
void rechtsboomled(int aan){
    2c52:	cf 93       	push	r28
    2c54:	df 93       	push	r29
    2c56:	0f 92       	push	r0
    2c58:	0f 92       	push	r0
    2c5a:	cd b7       	in	r28, 0x3d	; 61
    2c5c:	de b7       	in	r29, 0x3e	; 62
    2c5e:	9a 83       	std	Y+2, r25	; 0x02
    2c60:	89 83       	std	Y+1, r24	; 0x01

00002c62 <.Loc.95>:
    if (aan) PORTA |= (1<<PA3);
    2c62:	89 81       	ldd	r24, Y+1	; 0x01
    2c64:	9a 81       	ldd	r25, Y+2	; 0x02
    2c66:	00 97       	sbiw	r24, 0x00	; 0
    2c68:	51 f0       	breq	.+20     	; 0x2c7e <.L14>

00002c6a <.Loc.96>:
    2c6a:	82 e2       	ldi	r24, 0x22	; 34
    2c6c:	90 e0       	ldi	r25, 0x00	; 0
    2c6e:	fc 01       	movw	r30, r24
    2c70:	20 81       	ld	r18, Z
    2c72:	82 e2       	ldi	r24, 0x22	; 34
    2c74:	90 e0       	ldi	r25, 0x00	; 0

00002c76 <.Loc.97>:
    2c76:	28 60       	ori	r18, 0x08	; 8
    2c78:	fc 01       	movw	r30, r24
    2c7a:	20 83       	st	Z, r18

00002c7c <.Loc.98>:
    else {
           PORTA &= ~(1<<PA3);
    }
}
    2c7c:	09 c0       	rjmp	.+18     	; 0x2c90 <.L16>

00002c7e <.L14>:
           PORTA &= ~(1<<PA3);
    2c7e:	82 e2       	ldi	r24, 0x22	; 34
    2c80:	90 e0       	ldi	r25, 0x00	; 0
    2c82:	fc 01       	movw	r30, r24
    2c84:	20 81       	ld	r18, Z

00002c86 <.Loc.100>:
    2c86:	82 e2       	ldi	r24, 0x22	; 34
    2c88:	90 e0       	ldi	r25, 0x00	; 0

00002c8a <.Loc.101>:
    2c8a:	27 7f       	andi	r18, 0xF7	; 247
    2c8c:	fc 01       	movw	r30, r24
    2c8e:	20 83       	st	Z, r18

00002c90 <.L16>:
}
    2c90:	00 00       	nop
    2c92:	0f 90       	pop	r0
    2c94:	0f 90       	pop	r0
    2c96:	df 91       	pop	r29
    2c98:	cf 91       	pop	r28
    2c9a:	08 95       	ret

00002c9c <linksboomled>:

void linksboomled(int aan){
    2c9c:	cf 93       	push	r28
    2c9e:	df 93       	push	r29
    2ca0:	0f 92       	push	r0
    2ca2:	0f 92       	push	r0
    2ca4:	cd b7       	in	r28, 0x3d	; 61
    2ca6:	de b7       	in	r29, 0x3e	; 62
    2ca8:	9a 83       	std	Y+2, r25	; 0x02
    2caa:	89 83       	std	Y+1, r24	; 0x01

00002cac <.Loc.104>:
    if (aan) PORTA |= (1<<PA4);
    2cac:	89 81       	ldd	r24, Y+1	; 0x01
    2cae:	9a 81       	ldd	r25, Y+2	; 0x02
    2cb0:	00 97       	sbiw	r24, 0x00	; 0
    2cb2:	51 f0       	breq	.+20     	; 0x2cc8 <.L18>

00002cb4 <.Loc.105>:
    2cb4:	82 e2       	ldi	r24, 0x22	; 34
    2cb6:	90 e0       	ldi	r25, 0x00	; 0
    2cb8:	fc 01       	movw	r30, r24
    2cba:	20 81       	ld	r18, Z
    2cbc:	82 e2       	ldi	r24, 0x22	; 34
    2cbe:	90 e0       	ldi	r25, 0x00	; 0

00002cc0 <.Loc.106>:
    2cc0:	20 61       	ori	r18, 0x10	; 16
    2cc2:	fc 01       	movw	r30, r24
    2cc4:	20 83       	st	Z, r18

00002cc6 <.Loc.107>:
    else {
           PORTA &= ~(1<<PA4);
    }
}
    2cc6:	09 c0       	rjmp	.+18     	; 0x2cda <.L20>

00002cc8 <.L18>:
           PORTA &= ~(1<<PA4);
    2cc8:	82 e2       	ldi	r24, 0x22	; 34
    2cca:	90 e0       	ldi	r25, 0x00	; 0
    2ccc:	fc 01       	movw	r30, r24
    2cce:	20 81       	ld	r18, Z

00002cd0 <.Loc.109>:
    2cd0:	82 e2       	ldi	r24, 0x22	; 34
    2cd2:	90 e0       	ldi	r25, 0x00	; 0

00002cd4 <.Loc.110>:
    2cd4:	2f 7e       	andi	r18, 0xEF	; 239
    2cd6:	fc 01       	movw	r30, r24
    2cd8:	20 83       	st	Z, r18

00002cda <.L20>:
}
    2cda:	00 00       	nop
    2cdc:	0f 90       	pop	r0
    2cde:	0f 90       	pop	r0
    2ce0:	df 91       	pop	r29
    2ce2:	cf 91       	pop	r28
    2ce4:	08 95       	ret

00002ce6 <followled>:

void followled(int aan){
    2ce6:	cf 93       	push	r28
    2ce8:	df 93       	push	r29
    2cea:	0f 92       	push	r0
    2cec:	0f 92       	push	r0
    2cee:	cd b7       	in	r28, 0x3d	; 61
    2cf0:	de b7       	in	r29, 0x3e	; 62
    2cf2:	9a 83       	std	Y+2, r25	; 0x02
    2cf4:	89 83       	std	Y+1, r24	; 0x01

00002cf6 <.Loc.113>:
    if (aan) PORTA |= (1<<PA5);
    2cf6:	89 81       	ldd	r24, Y+1	; 0x01
    2cf8:	9a 81       	ldd	r25, Y+2	; 0x02
    2cfa:	00 97       	sbiw	r24, 0x00	; 0
    2cfc:	51 f0       	breq	.+20     	; 0x2d12 <.L22>

00002cfe <.Loc.114>:
    2cfe:	82 e2       	ldi	r24, 0x22	; 34
    2d00:	90 e0       	ldi	r25, 0x00	; 0
    2d02:	fc 01       	movw	r30, r24
    2d04:	20 81       	ld	r18, Z
    2d06:	82 e2       	ldi	r24, 0x22	; 34
    2d08:	90 e0       	ldi	r25, 0x00	; 0

00002d0a <.Loc.115>:
    2d0a:	20 62       	ori	r18, 0x20	; 32
    2d0c:	fc 01       	movw	r30, r24
    2d0e:	20 83       	st	Z, r18

00002d10 <.Loc.116>:
    else {
           PORTA &= ~(1<<PA5);
    }
}
    2d10:	09 c0       	rjmp	.+18     	; 0x2d24 <.L24>

00002d12 <.L22>:
           PORTA &= ~(1<<PA5);
    2d12:	82 e2       	ldi	r24, 0x22	; 34
    2d14:	90 e0       	ldi	r25, 0x00	; 0
    2d16:	fc 01       	movw	r30, r24
    2d18:	20 81       	ld	r18, Z

00002d1a <.Loc.118>:
    2d1a:	82 e2       	ldi	r24, 0x22	; 34
    2d1c:	90 e0       	ldi	r25, 0x00	; 0

00002d1e <.Loc.119>:
    2d1e:	2f 7d       	andi	r18, 0xDF	; 223
    2d20:	fc 01       	movw	r30, r24
    2d22:	20 83       	st	Z, r18

00002d24 <.L24>:
}
    2d24:	00 00       	nop
    2d26:	0f 90       	pop	r0
    2d28:	0f 90       	pop	r0
    2d2a:	df 91       	pop	r29
    2d2c:	cf 91       	pop	r28
    2d2e:	08 95       	ret

00002d30 <onled>:

void onled(int aan){
    2d30:	cf 93       	push	r28
    2d32:	df 93       	push	r29
    2d34:	0f 92       	push	r0
    2d36:	0f 92       	push	r0
    2d38:	cd b7       	in	r28, 0x3d	; 61
    2d3a:	de b7       	in	r29, 0x3e	; 62
    2d3c:	9a 83       	std	Y+2, r25	; 0x02
    2d3e:	89 83       	std	Y+1, r24	; 0x01

00002d40 <.Loc.122>:
    if (aan) PORTA |= (1<<PA6);
    2d40:	89 81       	ldd	r24, Y+1	; 0x01
    2d42:	9a 81       	ldd	r25, Y+2	; 0x02
    2d44:	00 97       	sbiw	r24, 0x00	; 0
    2d46:	51 f0       	breq	.+20     	; 0x2d5c <.L26>

00002d48 <.Loc.123>:
    2d48:	82 e2       	ldi	r24, 0x22	; 34
    2d4a:	90 e0       	ldi	r25, 0x00	; 0
    2d4c:	fc 01       	movw	r30, r24
    2d4e:	20 81       	ld	r18, Z
    2d50:	82 e2       	ldi	r24, 0x22	; 34
    2d52:	90 e0       	ldi	r25, 0x00	; 0

00002d54 <.Loc.124>:
    2d54:	20 64       	ori	r18, 0x40	; 64
    2d56:	fc 01       	movw	r30, r24
    2d58:	20 83       	st	Z, r18

00002d5a <.Loc.125>:
    else {
           PORTA &= ~(1<<PA6);
    }
}
    2d5a:	09 c0       	rjmp	.+18     	; 0x2d6e <.L28>

00002d5c <.L26>:
           PORTA &= ~(1<<PA6);
    2d5c:	82 e2       	ldi	r24, 0x22	; 34
    2d5e:	90 e0       	ldi	r25, 0x00	; 0
    2d60:	fc 01       	movw	r30, r24
    2d62:	20 81       	ld	r18, Z

00002d64 <.Loc.127>:
    2d64:	82 e2       	ldi	r24, 0x22	; 34
    2d66:	90 e0       	ldi	r25, 0x00	; 0

00002d68 <.Loc.128>:
    2d68:	2f 7b       	andi	r18, 0xBF	; 191
    2d6a:	fc 01       	movw	r30, r24
    2d6c:	20 83       	st	Z, r18

00002d6e <.L28>:
}
    2d6e:	00 00       	nop
    2d70:	0f 90       	pop	r0
    2d72:	0f 90       	pop	r0
    2d74:	df 91       	pop	r29
    2d76:	cf 91       	pop	r28
    2d78:	08 95       	ret

00002d7a <noodstopled>:

void noodstopled(int aan){
    2d7a:	cf 93       	push	r28
    2d7c:	df 93       	push	r29
    2d7e:	0f 92       	push	r0
    2d80:	0f 92       	push	r0
    2d82:	cd b7       	in	r28, 0x3d	; 61
    2d84:	de b7       	in	r29, 0x3e	; 62
    2d86:	9a 83       	std	Y+2, r25	; 0x02
    2d88:	89 83       	std	Y+1, r24	; 0x01

00002d8a <.Loc.131>:
    if (aan) PORTA |= (1<<PA7);
    2d8a:	89 81       	ldd	r24, Y+1	; 0x01
    2d8c:	9a 81       	ldd	r25, Y+2	; 0x02
    2d8e:	00 97       	sbiw	r24, 0x00	; 0
    2d90:	51 f0       	breq	.+20     	; 0x2da6 <.L30>

00002d92 <.Loc.132>:
    2d92:	82 e2       	ldi	r24, 0x22	; 34
    2d94:	90 e0       	ldi	r25, 0x00	; 0
    2d96:	fc 01       	movw	r30, r24
    2d98:	20 81       	ld	r18, Z
    2d9a:	82 e2       	ldi	r24, 0x22	; 34
    2d9c:	90 e0       	ldi	r25, 0x00	; 0

00002d9e <.Loc.133>:
    2d9e:	20 68       	ori	r18, 0x80	; 128
    2da0:	fc 01       	movw	r30, r24
    2da2:	20 83       	st	Z, r18

00002da4 <.Loc.134>:
    else {
           PORTA &= ~(1<<PA7);
    }
}
    2da4:	09 c0       	rjmp	.+18     	; 0x2db8 <.L32>

00002da6 <.L30>:
           PORTA &= ~(1<<PA7);
    2da6:	82 e2       	ldi	r24, 0x22	; 34
    2da8:	90 e0       	ldi	r25, 0x00	; 0
    2daa:	fc 01       	movw	r30, r24
    2dac:	20 81       	ld	r18, Z

00002dae <.Loc.136>:
    2dae:	82 e2       	ldi	r24, 0x22	; 34
    2db0:	90 e0       	ldi	r25, 0x00	; 0

00002db2 <.Loc.137>:
    2db2:	2f 77       	andi	r18, 0x7F	; 127
    2db4:	fc 01       	movw	r30, r24
    2db6:	20 83       	st	Z, r18

00002db8 <.L32>:
}
    2db8:	00 00       	nop
    2dba:	0f 90       	pop	r0
    2dbc:	0f 90       	pop	r0
    2dbe:	df 91       	pop	r29
    2dc0:	cf 91       	pop	r28
    2dc2:	08 95       	ret

00002dc4 <buzzer>:


// Buzzer Functie:
void buzzer(int aan){
    2dc4:	cf 93       	push	r28
    2dc6:	df 93       	push	r29
    2dc8:	0f 92       	push	r0
    2dca:	0f 92       	push	r0
    2dcc:	cd b7       	in	r28, 0x3d	; 61
    2dce:	de b7       	in	r29, 0x3e	; 62
    2dd0:	9a 83       	std	Y+2, r25	; 0x02
    2dd2:	89 83       	std	Y+1, r24	; 0x01

00002dd4 <.Loc.140>:
    if (aan) PORTL |= (1<<PL2);
    2dd4:	89 81       	ldd	r24, Y+1	; 0x01
    2dd6:	9a 81       	ldd	r25, Y+2	; 0x02
    2dd8:	00 97       	sbiw	r24, 0x00	; 0
    2dda:	51 f0       	breq	.+20     	; 0x2df0 <.L34>

00002ddc <.Loc.141>:
    2ddc:	8b e0       	ldi	r24, 0x0B	; 11
    2dde:	91 e0       	ldi	r25, 0x01	; 1
    2de0:	fc 01       	movw	r30, r24
    2de2:	20 81       	ld	r18, Z
    2de4:	8b e0       	ldi	r24, 0x0B	; 11
    2de6:	91 e0       	ldi	r25, 0x01	; 1

00002de8 <.Loc.142>:
    2de8:	24 60       	ori	r18, 0x04	; 4
    2dea:	fc 01       	movw	r30, r24
    2dec:	20 83       	st	Z, r18

00002dee <.Loc.143>:
    else {
            PORTL &= ~(1<<PL2);}
}
    2dee:	09 c0       	rjmp	.+18     	; 0x2e02 <.L36>

00002df0 <.L34>:
            PORTL &= ~(1<<PL2);}
    2df0:	8b e0       	ldi	r24, 0x0B	; 11
    2df2:	91 e0       	ldi	r25, 0x01	; 1
    2df4:	fc 01       	movw	r30, r24
    2df6:	20 81       	ld	r18, Z

00002df8 <.Loc.145>:
    2df8:	8b e0       	ldi	r24, 0x0B	; 11
    2dfa:	91 e0       	ldi	r25, 0x01	; 1

00002dfc <.Loc.146>:
    2dfc:	2b 7f       	andi	r18, 0xFB	; 251
    2dfe:	fc 01       	movw	r30, r24
    2e00:	20 83       	st	Z, r18

00002e02 <.L36>:
}
    2e02:	00 00       	nop
    2e04:	0f 90       	pop	r0
    2e06:	0f 90       	pop	r0
    2e08:	df 91       	pop	r29
    2e0a:	cf 91       	pop	r28
    2e0c:	08 95       	ret

00002e0e <leestnoodstopuit>:


// Knop Functies:
int leestnoodstopuit(void){
    2e0e:	cf 93       	push	r28
    2e10:	df 93       	push	r29
    2e12:	cd b7       	in	r28, 0x3d	; 61
    2e14:	de b7       	in	r29, 0x3e	; 62

00002e16 <.Loc.149>:
        if ((PINA & (1<<PA2)) == 0)
    2e16:	80 e2       	ldi	r24, 0x20	; 32
    2e18:	90 e0       	ldi	r25, 0x00	; 0
    2e1a:	fc 01       	movw	r30, r24
    2e1c:	80 81       	ld	r24, Z

00002e1e <.Loc.150>:
    2e1e:	88 2f       	mov	r24, r24
    2e20:	90 e0       	ldi	r25, 0x00	; 0
    2e22:	84 70       	andi	r24, 0x04	; 4
    2e24:	99 27       	eor	r25, r25

00002e26 <.Loc.151>:
    2e26:	00 97       	sbiw	r24, 0x00	; 0
    2e28:	19 f4       	brne	.+6      	; 0x2e30 <.L38>

00002e2a <.Loc.152>:
            {
            return(0);
    2e2a:	80 e0       	ldi	r24, 0x00	; 0
    2e2c:	90 e0       	ldi	r25, 0x00	; 0
    2e2e:	0d c0       	rjmp	.+26     	; 0x2e4a <.L37>

00002e30 <.L38>:
            }
        if ((PINA & (1<<PA2)) != 0)
    2e30:	80 e2       	ldi	r24, 0x20	; 32
    2e32:	90 e0       	ldi	r25, 0x00	; 0
    2e34:	fc 01       	movw	r30, r24
    2e36:	80 81       	ld	r24, Z

00002e38 <.Loc.154>:
    2e38:	88 2f       	mov	r24, r24
    2e3a:	90 e0       	ldi	r25, 0x00	; 0
    2e3c:	84 70       	andi	r24, 0x04	; 4
    2e3e:	99 27       	eor	r25, r25

00002e40 <.Loc.155>:
    2e40:	00 97       	sbiw	r24, 0x00	; 0
    2e42:	19 f0       	breq	.+6      	; 0x2e4a <.L37>

00002e44 <.Loc.156>:
            {
            return(1);
    2e44:	81 e0       	ldi	r24, 0x01	; 1
    2e46:	90 e0       	ldi	r25, 0x00	; 0
    2e48:	00 c0       	rjmp	.+0      	; 0x2e4a <.L37>

00002e4a <.L37>:
            }
}
    2e4a:	df 91       	pop	r29
    2e4c:	cf 91       	pop	r28
    2e4e:	08 95       	ret

00002e50 <leestaanknopuit>:

int leestaanknopuit(void){
    2e50:	cf 93       	push	r28
    2e52:	df 93       	push	r29
    2e54:	cd b7       	in	r28, 0x3d	; 61
    2e56:	de b7       	in	r29, 0x3e	; 62

00002e58 <.Loc.159>:
        if ((PINA & (1<<PA1)) == 0)
    2e58:	80 e2       	ldi	r24, 0x20	; 32
    2e5a:	90 e0       	ldi	r25, 0x00	; 0
    2e5c:	fc 01       	movw	r30, r24
    2e5e:	80 81       	ld	r24, Z

00002e60 <.Loc.160>:
    2e60:	88 2f       	mov	r24, r24
    2e62:	90 e0       	ldi	r25, 0x00	; 0
    2e64:	82 70       	andi	r24, 0x02	; 2
    2e66:	99 27       	eor	r25, r25

00002e68 <.Loc.161>:
    2e68:	00 97       	sbiw	r24, 0x00	; 0
    2e6a:	19 f4       	brne	.+6      	; 0x2e72 <.L42>

00002e6c <.Loc.162>:
            {
            return(0);
    2e6c:	80 e0       	ldi	r24, 0x00	; 0
    2e6e:	90 e0       	ldi	r25, 0x00	; 0
    2e70:	0d c0       	rjmp	.+26     	; 0x2e8c <.L41>

00002e72 <.L42>:
            }
        if ((PINA & (1<<PA1)) != 0)
    2e72:	80 e2       	ldi	r24, 0x20	; 32
    2e74:	90 e0       	ldi	r25, 0x00	; 0
    2e76:	fc 01       	movw	r30, r24
    2e78:	80 81       	ld	r24, Z

00002e7a <.Loc.164>:
    2e7a:	88 2f       	mov	r24, r24
    2e7c:	90 e0       	ldi	r25, 0x00	; 0
    2e7e:	82 70       	andi	r24, 0x02	; 2
    2e80:	99 27       	eor	r25, r25

00002e82 <.Loc.165>:
    2e82:	00 97       	sbiw	r24, 0x00	; 0
    2e84:	19 f0       	breq	.+6      	; 0x2e8c <.L41>

00002e86 <.Loc.166>:
            {
            return(1);
    2e86:	81 e0       	ldi	r24, 0x01	; 1
    2e88:	90 e0       	ldi	r25, 0x00	; 0
    2e8a:	00 c0       	rjmp	.+0      	; 0x2e8c <.L41>

00002e8c <.L41>:
            }
}
    2e8c:	df 91       	pop	r29
    2e8e:	cf 91       	pop	r28
    2e90:	08 95       	ret

00002e92 <leestfollowknopuit>:

int leestfollowknopuit(void){
    2e92:	cf 93       	push	r28
    2e94:	df 93       	push	r29
    2e96:	cd b7       	in	r28, 0x3d	; 61
    2e98:	de b7       	in	r29, 0x3e	; 62

00002e9a <.Loc.169>:
        if ((PINA & (1<<PA0)) == 0)
    2e9a:	80 e2       	ldi	r24, 0x20	; 32
    2e9c:	90 e0       	ldi	r25, 0x00	; 0
    2e9e:	fc 01       	movw	r30, r24
    2ea0:	80 81       	ld	r24, Z

00002ea2 <.Loc.170>:
    2ea2:	88 2f       	mov	r24, r24
    2ea4:	90 e0       	ldi	r25, 0x00	; 0
    2ea6:	81 70       	andi	r24, 0x01	; 1
    2ea8:	99 27       	eor	r25, r25

00002eaa <.Loc.171>:
    2eaa:	00 97       	sbiw	r24, 0x00	; 0
    2eac:	19 f4       	brne	.+6      	; 0x2eb4 <.L46>

00002eae <.Loc.172>:
            {
            return(0);
    2eae:	80 e0       	ldi	r24, 0x00	; 0
    2eb0:	90 e0       	ldi	r25, 0x00	; 0
    2eb2:	0d c0       	rjmp	.+26     	; 0x2ece <.L45>

00002eb4 <.L46>:
            }
        if ((PINA & (1<<PA0)) != 0)
    2eb4:	80 e2       	ldi	r24, 0x20	; 32
    2eb6:	90 e0       	ldi	r25, 0x00	; 0
    2eb8:	fc 01       	movw	r30, r24
    2eba:	80 81       	ld	r24, Z

00002ebc <.Loc.174>:
    2ebc:	88 2f       	mov	r24, r24
    2ebe:	90 e0       	ldi	r25, 0x00	; 0
    2ec0:	81 70       	andi	r24, 0x01	; 1
    2ec2:	99 27       	eor	r25, r25

00002ec4 <.Loc.175>:
    2ec4:	00 97       	sbiw	r24, 0x00	; 0
    2ec6:	19 f0       	breq	.+6      	; 0x2ece <.L45>

00002ec8 <.Loc.176>:
            {
            return(1);
    2ec8:	81 e0       	ldi	r24, 0x01	; 1
    2eca:	90 e0       	ldi	r25, 0x00	; 0
    2ecc:	00 c0       	rjmp	.+0      	; 0x2ece <.L45>

00002ece <.L45>:
            }
}
    2ece:	df 91       	pop	r29
    2ed0:	cf 91       	pop	r28
    2ed2:	08 95       	ret

00002ed4 <detecteerboomlinks>:



// Sensoren Functies:
int detecteerboomlinks(void){
    2ed4:	cf 93       	push	r28
    2ed6:	df 93       	push	r29
    2ed8:	cd b7       	in	r28, 0x3d	; 61
    2eda:	de b7       	in	r29, 0x3e	; 62

00002edc <.Loc.179>:
    //PIN 2 = PE4
    if ((PINE & (1<<PE4)) == 0) return(0);
    2edc:	8c e2       	ldi	r24, 0x2C	; 44
    2ede:	90 e0       	ldi	r25, 0x00	; 0
    2ee0:	fc 01       	movw	r30, r24
    2ee2:	80 81       	ld	r24, Z

00002ee4 <.Loc.180>:
    2ee4:	88 2f       	mov	r24, r24
    2ee6:	90 e0       	ldi	r25, 0x00	; 0
    2ee8:	80 71       	andi	r24, 0x10	; 16
    2eea:	99 27       	eor	r25, r25

00002eec <.Loc.181>:
    2eec:	00 97       	sbiw	r24, 0x00	; 0
    2eee:	19 f4       	brne	.+6      	; 0x2ef6 <.L50>

00002ef0 <.Loc.182>:
    2ef0:	80 e0       	ldi	r24, 0x00	; 0
    2ef2:	90 e0       	ldi	r25, 0x00	; 0
    2ef4:	0d c0       	rjmp	.+26     	; 0x2f10 <.L49>

00002ef6 <.L50>:
    if ((PINE & (1<<PE4)) != 0) return(1);
    2ef6:	8c e2       	ldi	r24, 0x2C	; 44
    2ef8:	90 e0       	ldi	r25, 0x00	; 0
    2efa:	fc 01       	movw	r30, r24
    2efc:	80 81       	ld	r24, Z

00002efe <.Loc.184>:
    2efe:	88 2f       	mov	r24, r24
    2f00:	90 e0       	ldi	r25, 0x00	; 0
    2f02:	80 71       	andi	r24, 0x10	; 16
    2f04:	99 27       	eor	r25, r25

00002f06 <.Loc.185>:
    2f06:	00 97       	sbiw	r24, 0x00	; 0
    2f08:	19 f0       	breq	.+6      	; 0x2f10 <.L49>

00002f0a <.Loc.186>:
    2f0a:	81 e0       	ldi	r24, 0x01	; 1
    2f0c:	90 e0       	ldi	r25, 0x00	; 0
    2f0e:	00 c0       	rjmp	.+0      	; 0x2f10 <.L49>

00002f10 <.L49>:
}
    2f10:	df 91       	pop	r29
    2f12:	cf 91       	pop	r28
    2f14:	08 95       	ret

00002f16 <detecteerboomrechts>:

int detecteerboomrechts(void){
    2f16:	cf 93       	push	r28
    2f18:	df 93       	push	r29
    2f1a:	cd b7       	in	r28, 0x3d	; 61
    2f1c:	de b7       	in	r29, 0x3e	; 62

00002f1e <.Loc.189>:
    //PIN 3 = PE5
    if ((PINE & (1<<PE5)) == 0) return(0);
    2f1e:	8c e2       	ldi	r24, 0x2C	; 44
    2f20:	90 e0       	ldi	r25, 0x00	; 0
    2f22:	fc 01       	movw	r30, r24
    2f24:	80 81       	ld	r24, Z

00002f26 <.Loc.190>:
    2f26:	88 2f       	mov	r24, r24
    2f28:	90 e0       	ldi	r25, 0x00	; 0
    2f2a:	80 72       	andi	r24, 0x20	; 32
    2f2c:	99 27       	eor	r25, r25

00002f2e <.Loc.191>:
    2f2e:	00 97       	sbiw	r24, 0x00	; 0
    2f30:	19 f4       	brne	.+6      	; 0x2f38 <.L54>

00002f32 <.Loc.192>:
    2f32:	80 e0       	ldi	r24, 0x00	; 0
    2f34:	90 e0       	ldi	r25, 0x00	; 0
    2f36:	0d c0       	rjmp	.+26     	; 0x2f52 <.L53>

00002f38 <.L54>:
    if ((PINE & (1<<PE5)) != 0) return(1);
    2f38:	8c e2       	ldi	r24, 0x2C	; 44
    2f3a:	90 e0       	ldi	r25, 0x00	; 0
    2f3c:	fc 01       	movw	r30, r24
    2f3e:	80 81       	ld	r24, Z

00002f40 <.Loc.194>:
    2f40:	88 2f       	mov	r24, r24
    2f42:	90 e0       	ldi	r25, 0x00	; 0
    2f44:	80 72       	andi	r24, 0x20	; 32
    2f46:	99 27       	eor	r25, r25

00002f48 <.Loc.195>:
    2f48:	00 97       	sbiw	r24, 0x00	; 0
    2f4a:	19 f0       	breq	.+6      	; 0x2f52 <.L53>

00002f4c <.Loc.196>:
    2f4c:	81 e0       	ldi	r24, 0x01	; 1
    2f4e:	90 e0       	ldi	r25, 0x00	; 0
    2f50:	00 c0       	rjmp	.+0      	; 0x2f52 <.L53>

00002f52 <.L53>:
}
    2f52:	df 91       	pop	r29
    2f54:	cf 91       	pop	r28
    2f56:	08 95       	ret

00002f58 <detecteerlatlinks>:

int detecteerlatlinks(void){
    2f58:	cf 93       	push	r28
    2f5a:	df 93       	push	r29
    2f5c:	cd b7       	in	r28, 0x3d	; 61
    2f5e:	de b7       	in	r29, 0x3e	; 62

00002f60 <.Loc.199>:
    //PIN 4 = PG5
    if ((PING & (1<<PG5)) == 0) return(0);
    2f60:	82 e3       	ldi	r24, 0x32	; 50
    2f62:	90 e0       	ldi	r25, 0x00	; 0
    2f64:	fc 01       	movw	r30, r24
    2f66:	80 81       	ld	r24, Z

00002f68 <.Loc.200>:
    2f68:	88 2f       	mov	r24, r24
    2f6a:	90 e0       	ldi	r25, 0x00	; 0
    2f6c:	80 72       	andi	r24, 0x20	; 32
    2f6e:	99 27       	eor	r25, r25

00002f70 <.Loc.201>:
    2f70:	00 97       	sbiw	r24, 0x00	; 0
    2f72:	19 f4       	brne	.+6      	; 0x2f7a <.L58>

00002f74 <.Loc.202>:
    2f74:	80 e0       	ldi	r24, 0x00	; 0
    2f76:	90 e0       	ldi	r25, 0x00	; 0
    2f78:	0d c0       	rjmp	.+26     	; 0x2f94 <.L57>

00002f7a <.L58>:
    if ((PING & (1<<PG5)) != 0) return(1);
    2f7a:	82 e3       	ldi	r24, 0x32	; 50
    2f7c:	90 e0       	ldi	r25, 0x00	; 0
    2f7e:	fc 01       	movw	r30, r24
    2f80:	80 81       	ld	r24, Z

00002f82 <.Loc.204>:
    2f82:	88 2f       	mov	r24, r24
    2f84:	90 e0       	ldi	r25, 0x00	; 0
    2f86:	80 72       	andi	r24, 0x20	; 32
    2f88:	99 27       	eor	r25, r25

00002f8a <.Loc.205>:
    2f8a:	00 97       	sbiw	r24, 0x00	; 0
    2f8c:	19 f0       	breq	.+6      	; 0x2f94 <.L57>

00002f8e <.Loc.206>:
    2f8e:	81 e0       	ldi	r24, 0x01	; 1
    2f90:	90 e0       	ldi	r25, 0x00	; 0
    2f92:	00 c0       	rjmp	.+0      	; 0x2f94 <.L57>

00002f94 <.L57>:
}
    2f94:	df 91       	pop	r29
    2f96:	cf 91       	pop	r28
    2f98:	08 95       	ret

00002f9a <detecteerlatrechts>:

int detecteerlatrechts(void){
    2f9a:	cf 93       	push	r28
    2f9c:	df 93       	push	r29
    2f9e:	cd b7       	in	r28, 0x3d	; 61
    2fa0:	de b7       	in	r29, 0x3e	; 62

00002fa2 <.Loc.209>:
    //PIN 5 = PE3
    if ((PINE & (1<<PE3)) == 0) return(0);
    2fa2:	8c e2       	ldi	r24, 0x2C	; 44
    2fa4:	90 e0       	ldi	r25, 0x00	; 0
    2fa6:	fc 01       	movw	r30, r24
    2fa8:	80 81       	ld	r24, Z

00002faa <.Loc.210>:
    2faa:	88 2f       	mov	r24, r24
    2fac:	90 e0       	ldi	r25, 0x00	; 0
    2fae:	88 70       	andi	r24, 0x08	; 8
    2fb0:	99 27       	eor	r25, r25

00002fb2 <.Loc.211>:
    2fb2:	00 97       	sbiw	r24, 0x00	; 0
    2fb4:	19 f4       	brne	.+6      	; 0x2fbc <.L62>

00002fb6 <.Loc.212>:
    2fb6:	80 e0       	ldi	r24, 0x00	; 0
    2fb8:	90 e0       	ldi	r25, 0x00	; 0
    2fba:	0d c0       	rjmp	.+26     	; 0x2fd6 <.L61>

00002fbc <.L62>:
    if ((PINE & (1<<PE3)) != 0) return(1);
    2fbc:	8c e2       	ldi	r24, 0x2C	; 44
    2fbe:	90 e0       	ldi	r25, 0x00	; 0
    2fc0:	fc 01       	movw	r30, r24
    2fc2:	80 81       	ld	r24, Z

00002fc4 <.Loc.214>:
    2fc4:	88 2f       	mov	r24, r24
    2fc6:	90 e0       	ldi	r25, 0x00	; 0
    2fc8:	88 70       	andi	r24, 0x08	; 8
    2fca:	99 27       	eor	r25, r25

00002fcc <.Loc.215>:
    2fcc:	00 97       	sbiw	r24, 0x00	; 0
    2fce:	19 f0       	breq	.+6      	; 0x2fd6 <.L61>

00002fd0 <.Loc.216>:
    2fd0:	81 e0       	ldi	r24, 0x01	; 1
    2fd2:	90 e0       	ldi	r25, 0x00	; 0
    2fd4:	00 c0       	rjmp	.+0      	; 0x2fd6 <.L61>

00002fd6 <.L61>:
}
    2fd6:	df 91       	pop	r29
    2fd8:	cf 91       	pop	r28
    2fda:	08 95       	ret

00002fdc <leessonaruit>:


// Sonars Uitlezen:
int leessonaruit(int sensor){
    2fdc:	cf 93       	push	r28
    2fde:	df 93       	push	r29
    2fe0:	cd b7       	in	r28, 0x3d	; 61
    2fe2:	de b7       	in	r29, 0x3e	; 62
    2fe4:	c6 56       	subi	r28, 0x66	; 102
    2fe6:	d1 09       	sbc	r29, r1
    2fe8:	0f b6       	in	r0, 0x3f	; 63
    2fea:	f8 94       	cli
    2fec:	de bf       	out	0x3e, r29	; 62
    2fee:	0f be       	out	0x3f, r0	; 63
    2ff0:	cd bf       	out	0x3d, r28	; 61
    2ff2:	9a a3       	std	Y+34, r25	; 0x22
    2ff4:	89 a3       	std	Y+33, r24	; 0x21

00002ff6 <.Loc.219>:
    switch(sensor){
    2ff6:	89 a1       	ldd	r24, Y+33	; 0x21
    2ff8:	9a a1       	ldd	r25, Y+34	; 0x22
    2ffa:	83 30       	cpi	r24, 0x03	; 3
    2ffc:	91 05       	cpc	r25, r1
    2ffe:	09 f4       	brne	.+2      	; 0x3002 <L0^A+0x2>

00003000 <L0^A>:
    3000:	56 c0       	rjmp	.+172    	; 0x30ae <.L66>
    3002:	89 a1       	ldd	r24, Y+33	; 0x21
    3004:	9a a1       	ldd	r25, Y+34	; 0x22
    3006:	83 30       	cpi	r24, 0x03	; 3
    3008:	91 05       	cpc	r25, r1
    300a:	09 f0       	breq	.+2      	; 0x300e <L0^A+0x2>

0000300c <L0^A>:
    300c:	a4 f4       	brge	.+40     	; 0x3036 <.L67>
    300e:	89 a1       	ldd	r24, Y+33	; 0x21
    3010:	9a a1       	ldd	r25, Y+34	; 0x22
    3012:	82 30       	cpi	r24, 0x02	; 2
    3014:	91 05       	cpc	r25, r1
    3016:	c1 f1       	breq	.+112    	; 0x3088 <.L68>
    3018:	89 a1       	ldd	r24, Y+33	; 0x21
    301a:	9a a1       	ldd	r25, Y+34	; 0x22
    301c:	82 30       	cpi	r24, 0x02	; 2
    301e:	91 05       	cpc	r25, r1
    3020:	09 f0       	breq	.+2      	; 0x3024 <L0^A+0x2>

00003022 <L0^A>:
    3022:	4c f4       	brge	.+18     	; 0x3036 <.L67>
    3024:	89 a1       	ldd	r24, Y+33	; 0x21
    3026:	9a a1       	ldd	r25, Y+34	; 0x22
    3028:	00 97       	sbiw	r24, 0x00	; 0
    302a:	41 f0       	breq	.+16     	; 0x303c <.L69>
    302c:	89 a1       	ldd	r24, Y+33	; 0x21
    302e:	9a a1       	ldd	r25, Y+34	; 0x22
    3030:	81 30       	cpi	r24, 0x01	; 1
    3032:	91 05       	cpc	r25, r1
    3034:	b1 f0       	breq	.+44     	; 0x3062 <.L70>

00003036 <.L67>:
default:
    return 0;
    3036:	80 e0       	ldi	r24, 0x00	; 0
    3038:	90 e0       	ldi	r25, 0x00	; 0
    303a:	34 c2       	rjmp	.+1128   	; 0x34a4 <.L71>

0000303c <.L69>:
    break;
    //als je een getal opgeeft wat niet gelinkt is aan een sensor geeft de functie 0 terug.
case 0: // Voorkant
    //AB = 00
    PORTB &= ~(1<<PB0);
    303c:	85 e2       	ldi	r24, 0x25	; 37
    303e:	90 e0       	ldi	r25, 0x00	; 0
    3040:	dc 01       	movw	r26, r24
    3042:	2c 91       	ld	r18, X

00003044 <.Loc.222>:
    3044:	85 e2       	ldi	r24, 0x25	; 37
    3046:	90 e0       	ldi	r25, 0x00	; 0

00003048 <.Loc.223>:
    3048:	2e 7f       	andi	r18, 0xFE	; 254
    304a:	fc 01       	movw	r30, r24
    304c:	20 83       	st	Z, r18

0000304e <.Loc.224>:
    PORTB &= ~(1<<PB1);
    304e:	85 e2       	ldi	r24, 0x25	; 37
    3050:	90 e0       	ldi	r25, 0x00	; 0
    3052:	dc 01       	movw	r26, r24
    3054:	2c 91       	ld	r18, X

00003056 <.Loc.225>:
    3056:	85 e2       	ldi	r24, 0x25	; 37
    3058:	90 e0       	ldi	r25, 0x00	; 0

0000305a <.Loc.226>:
    305a:	2d 7f       	andi	r18, 0xFD	; 253
    305c:	fc 01       	movw	r30, r24
    305e:	20 83       	st	Z, r18

00003060 <.Loc.227>:
    break;
    3060:	39 c0       	rjmp	.+114    	; 0x30d4 <.L72>

00003062 <.L70>:
case 1: // Links
    //AB = 10
     PORTB |= (1<<PB0);
    3062:	85 e2       	ldi	r24, 0x25	; 37
    3064:	90 e0       	ldi	r25, 0x00	; 0
    3066:	dc 01       	movw	r26, r24
    3068:	2c 91       	ld	r18, X
    306a:	85 e2       	ldi	r24, 0x25	; 37
    306c:	90 e0       	ldi	r25, 0x00	; 0

0000306e <.Loc.229>:
    306e:	21 60       	ori	r18, 0x01	; 1
    3070:	fc 01       	movw	r30, r24
    3072:	20 83       	st	Z, r18

00003074 <.Loc.230>:
    PORTB &= ~(1<<PB1);
    3074:	85 e2       	ldi	r24, 0x25	; 37
    3076:	90 e0       	ldi	r25, 0x00	; 0
    3078:	dc 01       	movw	r26, r24
    307a:	2c 91       	ld	r18, X

0000307c <.Loc.231>:
    307c:	85 e2       	ldi	r24, 0x25	; 37
    307e:	90 e0       	ldi	r25, 0x00	; 0

00003080 <.Loc.232>:
    3080:	2d 7f       	andi	r18, 0xFD	; 253
    3082:	fc 01       	movw	r30, r24
    3084:	20 83       	st	Z, r18

00003086 <.Loc.233>:
    break;
    3086:	26 c0       	rjmp	.+76     	; 0x30d4 <.L72>

00003088 <.L68>:
case 2: // Rechts
    //AB =01
     PORTB &= ~(1<<PB0);
    3088:	85 e2       	ldi	r24, 0x25	; 37
    308a:	90 e0       	ldi	r25, 0x00	; 0
    308c:	dc 01       	movw	r26, r24
    308e:	2c 91       	ld	r18, X

00003090 <.Loc.235>:
    3090:	85 e2       	ldi	r24, 0x25	; 37
    3092:	90 e0       	ldi	r25, 0x00	; 0

00003094 <.Loc.236>:
    3094:	2e 7f       	andi	r18, 0xFE	; 254
    3096:	fc 01       	movw	r30, r24
    3098:	20 83       	st	Z, r18

0000309a <.Loc.237>:
    PORTB |= (1<<PB1);
    309a:	85 e2       	ldi	r24, 0x25	; 37
    309c:	90 e0       	ldi	r25, 0x00	; 0
    309e:	dc 01       	movw	r26, r24
    30a0:	2c 91       	ld	r18, X
    30a2:	85 e2       	ldi	r24, 0x25	; 37
    30a4:	90 e0       	ldi	r25, 0x00	; 0

000030a6 <.Loc.238>:
    30a6:	22 60       	ori	r18, 0x02	; 2
    30a8:	fc 01       	movw	r30, r24
    30aa:	20 83       	st	Z, r18

000030ac <.Loc.239>:
    break;
    30ac:	13 c0       	rjmp	.+38     	; 0x30d4 <.L72>

000030ae <.L66>:
case 3:
    //AB = 11
    PORTB |= (1<<PB0);
    30ae:	85 e2       	ldi	r24, 0x25	; 37
    30b0:	90 e0       	ldi	r25, 0x00	; 0
    30b2:	dc 01       	movw	r26, r24
    30b4:	2c 91       	ld	r18, X
    30b6:	85 e2       	ldi	r24, 0x25	; 37
    30b8:	90 e0       	ldi	r25, 0x00	; 0

000030ba <.Loc.241>:
    30ba:	21 60       	ori	r18, 0x01	; 1
    30bc:	fc 01       	movw	r30, r24
    30be:	20 83       	st	Z, r18

000030c0 <.Loc.242>:
    PORTB |= (1<<PB1);
    30c0:	85 e2       	ldi	r24, 0x25	; 37
    30c2:	90 e0       	ldi	r25, 0x00	; 0
    30c4:	dc 01       	movw	r26, r24
    30c6:	2c 91       	ld	r18, X
    30c8:	85 e2       	ldi	r24, 0x25	; 37
    30ca:	90 e0       	ldi	r25, 0x00	; 0

000030cc <.Loc.243>:
    30cc:	22 60       	ori	r18, 0x02	; 2
    30ce:	fc 01       	movw	r30, r24
    30d0:	20 83       	st	Z, r18

000030d2 <.Loc.244>:
	...

000030d4 <.L72>:
    break;
    }
    PORTB |= (1<<PB2);
    30d4:	85 e2       	ldi	r24, 0x25	; 37
    30d6:	90 e0       	ldi	r25, 0x00	; 0
    30d8:	dc 01       	movw	r26, r24
    30da:	2c 91       	ld	r18, X
    30dc:	85 e2       	ldi	r24, 0x25	; 37
    30de:	90 e0       	ldi	r25, 0x00	; 0

000030e0 <.Loc.246>:
    30e0:	24 60       	ori	r18, 0x04	; 4
    30e2:	fc 01       	movw	r30, r24
    30e4:	20 83       	st	Z, r18
    30e6:	80 e0       	ldi	r24, 0x00	; 0
    30e8:	90 e0       	ldi	r25, 0x00	; 0
    30ea:	a0 e0       	ldi	r26, 0x00	; 0
    30ec:	b0 e4       	ldi	r27, 0x40	; 64
    30ee:	89 83       	std	Y+1, r24	; 0x01
    30f0:	9a 83       	std	Y+2, r25	; 0x02
    30f2:	ab 83       	std	Y+3, r26	; 0x03
    30f4:	bc 83       	std	Y+4, r27	; 0x04

000030f6 <.LBB140>:
	__tmp = ((F_CPU) / 3e6) * __us;
    30f6:	2b ea       	ldi	r18, 0xAB	; 171
    30f8:	3a ea       	ldi	r19, 0xAA	; 170
    30fa:	4a ea       	ldi	r20, 0xAA	; 170
    30fc:	50 e4       	ldi	r21, 0x40	; 64
    30fe:	69 81       	ldd	r22, Y+1	; 0x01
    3100:	7a 81       	ldd	r23, Y+2	; 0x02
    3102:	8b 81       	ldd	r24, Y+3	; 0x03
    3104:	9c 81       	ldd	r25, Y+4	; 0x04
    3106:	0e 94 a0 32 	call	0x6540	; 0x6540 <__mulsf3>
    310a:	6b ab       	std	Y+51, r22	; 0x33
    310c:	7c ab       	std	Y+52, r23	; 0x34
    310e:	8d ab       	std	Y+53, r24	; 0x35
    3110:	9e ab       	std	Y+54, r25	; 0x36
    3112:	2b a9       	ldd	r18, Y+51	; 0x33
    3114:	3c a9       	ldd	r19, Y+52	; 0x34
    3116:	4d a9       	ldd	r20, Y+53	; 0x35
    3118:	5e a9       	ldd	r21, Y+54	; 0x36
    311a:	2d 83       	std	Y+5, r18	; 0x05
    311c:	3e 83       	std	Y+6, r19	; 0x06
    311e:	4f 83       	std	Y+7, r20	; 0x07
    3120:	58 87       	std	Y+8, r21	; 0x08

00003122 <.Loc.248>:
	__tmp2 = ((F_CPU) / 4e6) * __us;
    3122:	20 e0       	ldi	r18, 0x00	; 0
    3124:	30 e0       	ldi	r19, 0x00	; 0
    3126:	40 e8       	ldi	r20, 0x80	; 128
    3128:	50 e4       	ldi	r21, 0x40	; 64
    312a:	69 81       	ldd	r22, Y+1	; 0x01
    312c:	7a 81       	ldd	r23, Y+2	; 0x02
    312e:	8b 81       	ldd	r24, Y+3	; 0x03
    3130:	9c 81       	ldd	r25, Y+4	; 0x04
    3132:	0e 94 a0 32 	call	0x6540	; 0x6540 <__mulsf3>
    3136:	6f ab       	std	Y+55, r22	; 0x37
    3138:	78 af       	std	Y+56, r23	; 0x38
    313a:	89 af       	std	Y+57, r24	; 0x39
    313c:	9a af       	std	Y+58, r25	; 0x3a
    313e:	8f a9       	ldd	r24, Y+55	; 0x37
    3140:	98 ad       	ldd	r25, Y+56	; 0x38
    3142:	a9 ad       	ldd	r26, Y+57	; 0x39
    3144:	ba ad       	ldd	r27, Y+58	; 0x3a
    3146:	89 87       	std	Y+9, r24	; 0x09
    3148:	9a 87       	std	Y+10, r25	; 0x0a
    314a:	ab 87       	std	Y+11, r26	; 0x0b
    314c:	bc 87       	std	Y+12, r27	; 0x0c

0000314e <.Loc.249>:
	if (__tmp < 1.0)
    314e:	20 e0       	ldi	r18, 0x00	; 0
    3150:	30 e0       	ldi	r19, 0x00	; 0
    3152:	40 e8       	ldi	r20, 0x80	; 128
    3154:	5f e3       	ldi	r21, 0x3F	; 63
    3156:	6d 81       	ldd	r22, Y+5	; 0x05
    3158:	7e 81       	ldd	r23, Y+6	; 0x06
    315a:	8f 81       	ldd	r24, Y+7	; 0x07
    315c:	98 85       	ldd	r25, Y+8	; 0x08
    315e:	0e 94 3c 31 	call	0x6278	; 0x6278 <__cmpsf2>
    3162:	88 23       	and	r24, r24
    3164:	1c f4       	brge	.+6      	; 0x316c <.L96>

00003166 <.Loc.250>:
		__ticks = 1;
    3166:	81 e0       	ldi	r24, 0x01	; 1
    3168:	8d 87       	std	Y+13, r24	; 0x0d
    316a:	f7 c0       	rjmp	.+494    	; 0x335a <.L75>

0000316c <.L96>:
	else if (__tmp2 > 65535)
    316c:	20 e0       	ldi	r18, 0x00	; 0
    316e:	3f ef       	ldi	r19, 0xFF	; 255
    3170:	4f e7       	ldi	r20, 0x7F	; 127
    3172:	57 e4       	ldi	r21, 0x47	; 71
    3174:	69 85       	ldd	r22, Y+9	; 0x09
    3176:	7a 85       	ldd	r23, Y+10	; 0x0a
    3178:	8b 85       	ldd	r24, Y+11	; 0x0b
    317a:	9c 85       	ldd	r25, Y+12	; 0x0c
    317c:	0e 94 9b 32 	call	0x6536	; 0x6536 <__gesf2>
    3180:	88 23       	and	r24, r24
    3182:	09 f0       	breq	.+2      	; 0x3186 <L0^A>

00003184 <L0^A>:
    3184:	0c f4       	brge	.+2      	; 0x3188 <.Loc.252>

00003186 <L0^A>:
    3186:	ae c0       	rjmp	.+348    	; 0x32e4 <.L97>

00003188 <.Loc.252>:
		_delay_ms(__us / 1000.0);
    3188:	20 e0       	ldi	r18, 0x00	; 0
    318a:	30 e0       	ldi	r19, 0x00	; 0
    318c:	4a e7       	ldi	r20, 0x7A	; 122
    318e:	54 e4       	ldi	r21, 0x44	; 68
    3190:	69 81       	ldd	r22, Y+1	; 0x01
    3192:	7a 81       	ldd	r23, Y+2	; 0x02
    3194:	8b 81       	ldd	r24, Y+3	; 0x03
    3196:	9c 81       	ldd	r25, Y+4	; 0x04
    3198:	0e 94 41 31 	call	0x6282	; 0x6282 <__divsf3>
    319c:	6b af       	std	Y+59, r22	; 0x3b
    319e:	7c af       	std	Y+60, r23	; 0x3c
    31a0:	8d af       	std	Y+61, r24	; 0x3d
    31a2:	9e af       	std	Y+62, r25	; 0x3e
    31a4:	8b ad       	ldd	r24, Y+59	; 0x3b
    31a6:	9c ad       	ldd	r25, Y+60	; 0x3c
    31a8:	ad ad       	ldd	r26, Y+61	; 0x3d
    31aa:	be ad       	ldd	r27, Y+62	; 0x3e
    31ac:	8e 87       	std	Y+14, r24	; 0x0e
    31ae:	9f 87       	std	Y+15, r25	; 0x0f
    31b0:	a8 8b       	std	Y+16, r26	; 0x10
    31b2:	b9 8b       	std	Y+17, r27	; 0x11

000031b4 <.LBB142>:
	__tmp = ((F_CPU) / 4e3) * __ms;
    31b4:	20 e0       	ldi	r18, 0x00	; 0
    31b6:	30 e0       	ldi	r19, 0x00	; 0
    31b8:	4a e7       	ldi	r20, 0x7A	; 122
    31ba:	55 e4       	ldi	r21, 0x45	; 69
    31bc:	6e 85       	ldd	r22, Y+14	; 0x0e
    31be:	7f 85       	ldd	r23, Y+15	; 0x0f
    31c0:	88 89       	ldd	r24, Y+16	; 0x10
    31c2:	99 89       	ldd	r25, Y+17	; 0x11
    31c4:	0e 94 a0 32 	call	0x6540	; 0x6540 <__mulsf3>
    31c8:	23 96       	adiw	r28, 0x03	; 3
    31ca:	6c af       	std	Y+60, r22	; 0x3c
    31cc:	7d af       	std	Y+61, r23	; 0x3d
    31ce:	8e af       	std	Y+62, r24	; 0x3e
    31d0:	9f af       	std	Y+63, r25	; 0x3f
    31d2:	23 97       	sbiw	r28, 0x03	; 3
    31d4:	23 96       	adiw	r28, 0x03	; 3
    31d6:	2c ad       	ldd	r18, Y+60	; 0x3c
    31d8:	3d ad       	ldd	r19, Y+61	; 0x3d
    31da:	4e ad       	ldd	r20, Y+62	; 0x3e
    31dc:	5f ad       	ldd	r21, Y+63	; 0x3f
    31de:	23 97       	sbiw	r28, 0x03	; 3
    31e0:	2a 8b       	std	Y+18, r18	; 0x12
    31e2:	3b 8b       	std	Y+19, r19	; 0x13
    31e4:	4c 8b       	std	Y+20, r20	; 0x14
    31e6:	5d 8b       	std	Y+21, r21	; 0x15

000031e8 <.Loc.254>:
	if (__tmp < 1.0)
    31e8:	20 e0       	ldi	r18, 0x00	; 0
    31ea:	30 e0       	ldi	r19, 0x00	; 0
    31ec:	40 e8       	ldi	r20, 0x80	; 128
    31ee:	5f e3       	ldi	r21, 0x3F	; 63
    31f0:	6a 89       	ldd	r22, Y+18	; 0x12
    31f2:	7b 89       	ldd	r23, Y+19	; 0x13
    31f4:	8c 89       	ldd	r24, Y+20	; 0x14
    31f6:	9d 89       	ldd	r25, Y+21	; 0x15
    31f8:	0e 94 3c 31 	call	0x6278	; 0x6278 <__cmpsf2>
    31fc:	88 23       	and	r24, r24
    31fe:	2c f4       	brge	.+10     	; 0x320a <.L98>

00003200 <.Loc.255>:
		__ticks = 1;
    3200:	81 e0       	ldi	r24, 0x01	; 1
    3202:	90 e0       	ldi	r25, 0x00	; 0
    3204:	9f 8b       	std	Y+23, r25	; 0x17
    3206:	8e 8b       	std	Y+22, r24	; 0x16
    3208:	62 c0       	rjmp	.+196    	; 0x32ce <.L80>

0000320a <.L98>:
	else if (__tmp > 65535)
    320a:	20 e0       	ldi	r18, 0x00	; 0
    320c:	3f ef       	ldi	r19, 0xFF	; 255
    320e:	4f e7       	ldi	r20, 0x7F	; 127
    3210:	57 e4       	ldi	r21, 0x47	; 71
    3212:	6a 89       	ldd	r22, Y+18	; 0x12
    3214:	7b 89       	ldd	r23, Y+19	; 0x13
    3216:	8c 89       	ldd	r24, Y+20	; 0x14
    3218:	9d 89       	ldd	r25, Y+21	; 0x15
    321a:	0e 94 9b 32 	call	0x6536	; 0x6536 <__gesf2>
    321e:	88 23       	and	r24, r24
    3220:	09 f0       	breq	.+2      	; 0x3224 <L0^A>

00003222 <L0^A>:
    3222:	0c f4       	brge	.+2      	; 0x3226 <.Loc.257>

00003224 <L0^A>:
    3224:	42 c0       	rjmp	.+132    	; 0x32aa <.L99>

00003226 <.Loc.257>:
		__ticks = (uint16_t) (__ms * 10.0);
    3226:	20 e0       	ldi	r18, 0x00	; 0
    3228:	30 e0       	ldi	r19, 0x00	; 0
    322a:	40 e2       	ldi	r20, 0x20	; 32
    322c:	51 e4       	ldi	r21, 0x41	; 65
    322e:	6e 85       	ldd	r22, Y+14	; 0x0e
    3230:	7f 85       	ldd	r23, Y+15	; 0x0f
    3232:	88 89       	ldd	r24, Y+16	; 0x10
    3234:	99 89       	ldd	r25, Y+17	; 0x11
    3236:	0e 94 a0 32 	call	0x6540	; 0x6540 <__mulsf3>
    323a:	27 96       	adiw	r28, 0x07	; 7
    323c:	6c af       	std	Y+60, r22	; 0x3c
    323e:	7d af       	std	Y+61, r23	; 0x3d
    3240:	8e af       	std	Y+62, r24	; 0x3e
    3242:	9f af       	std	Y+63, r25	; 0x3f
    3244:	27 97       	sbiw	r28, 0x07	; 7
    3246:	27 96       	adiw	r28, 0x07	; 7
    3248:	8c ad       	ldd	r24, Y+60	; 0x3c
    324a:	9d ad       	ldd	r25, Y+61	; 0x3d
    324c:	ae ad       	ldd	r26, Y+62	; 0x3e
    324e:	bf ad       	ldd	r27, Y+63	; 0x3f
    3250:	27 97       	sbiw	r28, 0x07	; 7
    3252:	8f a7       	std	Y+47, r24	; 0x2f
    3254:	98 ab       	std	Y+48, r25	; 0x30
    3256:	a9 ab       	std	Y+49, r26	; 0x31
    3258:	ba ab       	std	Y+50, r27	; 0x32

0000325a <.Loc.258>:
    325a:	6f a5       	ldd	r22, Y+47	; 0x2f
    325c:	78 a9       	ldd	r23, Y+48	; 0x30
    325e:	89 a9       	ldd	r24, Y+49	; 0x31
    3260:	9a a9       	ldd	r25, Y+50	; 0x32
    3262:	0e 94 ba 31 	call	0x6374	; 0x6374 <__fixunssfsi>
    3266:	2b 96       	adiw	r28, 0x0b	; 11
    3268:	6c af       	std	Y+60, r22	; 0x3c
    326a:	7d af       	std	Y+61, r23	; 0x3d
    326c:	8e af       	std	Y+62, r24	; 0x3e
    326e:	9f af       	std	Y+63, r25	; 0x3f
    3270:	2b 97       	sbiw	r28, 0x0b	; 11
    3272:	29 96       	adiw	r28, 0x09	; 9
    3274:	ae ad       	ldd	r26, Y+62	; 0x3e
    3276:	bf ad       	ldd	r27, Y+63	; 0x3f
    3278:	29 97       	sbiw	r28, 0x09	; 9
    327a:	bf 8b       	std	Y+23, r27	; 0x17
    327c:	ae 8b       	std	Y+22, r26	; 0x16

0000327e <.Loc.259>:
		while(__ticks)
    327e:	10 c0       	rjmp	.+32     	; 0x32a0 <.L83>

00003280 <.L84>:
    3280:	80 e9       	ldi	r24, 0x90	; 144
    3282:	91 e0       	ldi	r25, 0x01	; 1
    3284:	99 8f       	std	Y+25, r25	; 0x19
    3286:	88 8f       	std	Y+24, r24	; 0x18

00003288 <.LBB144>:
	__asm__ volatile (
    3288:	88 8d       	ldd	r24, Y+24	; 0x18
    328a:	99 8d       	ldd	r25, Y+25	; 0x19

0000328c <.L1^B1>:
    328c:	01 97       	sbiw	r24, 0x01	; 1
    328e:	f1 f7       	brne	.-4      	; 0x328c <.L1^B1>
    3290:	99 8f       	std	Y+25, r25	; 0x19
    3292:	88 8f       	std	Y+24, r24	; 0x18

00003294 <.Loc.261>:
	...

00003296 <.LBE144>:
			__ticks --;
    3296:	8e 89       	ldd	r24, Y+22	; 0x16
    3298:	9f 89       	ldd	r25, Y+23	; 0x17
    329a:	01 97       	sbiw	r24, 0x01	; 1
    329c:	9f 8b       	std	Y+23, r25	; 0x17
    329e:	8e 8b       	std	Y+22, r24	; 0x16

000032a0 <.L83>:
		while(__ticks)
    32a0:	8e 89       	ldd	r24, Y+22	; 0x16
    32a2:	9f 89       	ldd	r25, Y+23	; 0x17
    32a4:	00 97       	sbiw	r24, 0x00	; 0
    32a6:	61 f7       	brne	.-40     	; 0x3280 <.L84>

000032a8 <.Loc.264>:
		return;
    32a8:	58 c0       	rjmp	.+176    	; 0x335a <.L75>

000032aa <.L99>:
		__ticks = (uint16_t)__tmp;
    32aa:	6a 89       	ldd	r22, Y+18	; 0x12
    32ac:	7b 89       	ldd	r23, Y+19	; 0x13
    32ae:	8c 89       	ldd	r24, Y+20	; 0x14
    32b0:	9d 89       	ldd	r25, Y+21	; 0x15
    32b2:	0e 94 ba 31 	call	0x6374	; 0x6374 <__fixunssfsi>
    32b6:	2f 96       	adiw	r28, 0x0f	; 15
    32b8:	6c af       	std	Y+60, r22	; 0x3c
    32ba:	7d af       	std	Y+61, r23	; 0x3d
    32bc:	8e af       	std	Y+62, r24	; 0x3e
    32be:	9f af       	std	Y+63, r25	; 0x3f
    32c0:	2f 97       	sbiw	r28, 0x0f	; 15
    32c2:	2d 96       	adiw	r28, 0x0d	; 13
    32c4:	ee ad       	ldd	r30, Y+62	; 0x3e
    32c6:	ff ad       	ldd	r31, Y+63	; 0x3f
    32c8:	2d 97       	sbiw	r28, 0x0d	; 13
    32ca:	ff 8b       	std	Y+23, r31	; 0x17
    32cc:	ee 8b       	std	Y+22, r30	; 0x16

000032ce <.L80>:
    32ce:	8e 89       	ldd	r24, Y+22	; 0x16
    32d0:	9f 89       	ldd	r25, Y+23	; 0x17
    32d2:	9b 8f       	std	Y+27, r25	; 0x1b
    32d4:	8a 8f       	std	Y+26, r24	; 0x1a

000032d6 <.LBB146>:
    32d6:	8a 8d       	ldd	r24, Y+26	; 0x1a
    32d8:	9b 8d       	ldd	r25, Y+27	; 0x1b

000032da <.L1^B2>:
    32da:	01 97       	sbiw	r24, 0x01	; 1
    32dc:	f1 f7       	brne	.-4      	; 0x32da <.L1^B2>
    32de:	9b 8f       	std	Y+27, r25	; 0x1b
    32e0:	8a 8f       	std	Y+26, r24	; 0x1a

000032e2 <.Loc.267>:
}
    32e2:	3b c0       	rjmp	.+118    	; 0x335a <.L75>

000032e4 <.L97>:
	else if (__tmp > 255)
    32e4:	20 e0       	ldi	r18, 0x00	; 0
    32e6:	30 e0       	ldi	r19, 0x00	; 0
    32e8:	4f e7       	ldi	r20, 0x7F	; 127
    32ea:	53 e4       	ldi	r21, 0x43	; 67
    32ec:	6d 81       	ldd	r22, Y+5	; 0x05
    32ee:	7e 81       	ldd	r23, Y+6	; 0x06
    32f0:	8f 81       	ldd	r24, Y+7	; 0x07
    32f2:	98 85       	ldd	r25, Y+8	; 0x08
    32f4:	0e 94 9b 32 	call	0x6536	; 0x6536 <__gesf2>
    32f8:	88 23       	and	r24, r24
    32fa:	f9 f0       	breq	.+62     	; 0x333a <.L100>
    32fc:	f4 f0       	brlt	.+60     	; 0x333a <.L100>

000032fe <.LBB148>:
		uint16_t __ticks=(uint16_t)__tmp2;
    32fe:	69 85       	ldd	r22, Y+9	; 0x09
    3300:	7a 85       	ldd	r23, Y+10	; 0x0a
    3302:	8b 85       	ldd	r24, Y+11	; 0x0b
    3304:	9c 85       	ldd	r25, Y+12	; 0x0c
    3306:	0e 94 ba 31 	call	0x6374	; 0x6374 <__fixunssfsi>
    330a:	63 96       	adiw	r28, 0x13	; 19
    330c:	6c af       	std	Y+60, r22	; 0x3c
    330e:	7d af       	std	Y+61, r23	; 0x3d
    3310:	8e af       	std	Y+62, r24	; 0x3e
    3312:	9f af       	std	Y+63, r25	; 0x3f
    3314:	63 97       	sbiw	r28, 0x13	; 19
    3316:	61 96       	adiw	r28, 0x11	; 17
    3318:	2e ad       	ldd	r18, Y+62	; 0x3e
    331a:	3f ad       	ldd	r19, Y+63	; 0x3f
    331c:	61 97       	sbiw	r28, 0x11	; 17
    331e:	3d 8f       	std	Y+29, r19	; 0x1d
    3320:	2c 8f       	std	Y+28, r18	; 0x1c
    3322:	8c 8d       	ldd	r24, Y+28	; 0x1c
    3324:	9d 8d       	ldd	r25, Y+29	; 0x1d
    3326:	9f 8f       	std	Y+31, r25	; 0x1f
    3328:	8e 8f       	std	Y+30, r24	; 0x1e

0000332a <.LBB149>:
	__asm__ volatile (
    332a:	8e 8d       	ldd	r24, Y+30	; 0x1e
    332c:	9f 8d       	ldd	r25, Y+31	; 0x1f

0000332e <.L1^B3>:
    332e:	01 97       	sbiw	r24, 0x01	; 1
    3330:	f1 f7       	brne	.-4      	; 0x332e <.L1^B3>
    3332:	9f 8f       	std	Y+31, r25	; 0x1f
    3334:	8e 8f       	std	Y+30, r24	; 0x1e

00003336 <.Loc.271>:
	...

00003338 <.LBE149>:
		return;
    3338:	17 c0       	rjmp	.+46     	; 0x3368 <.L88>

0000333a <.L100>:
		__ticks = (uint8_t)__tmp;
    333a:	6d 81       	ldd	r22, Y+5	; 0x05
    333c:	7e 81       	ldd	r23, Y+6	; 0x06
    333e:	8f 81       	ldd	r24, Y+7	; 0x07
    3340:	98 85       	ldd	r25, Y+8	; 0x08
    3342:	0e 94 ba 31 	call	0x6374	; 0x6374 <__fixunssfsi>
    3346:	67 96       	adiw	r28, 0x17	; 23
    3348:	6c af       	std	Y+60, r22	; 0x3c
    334a:	7d af       	std	Y+61, r23	; 0x3d
    334c:	8e af       	std	Y+62, r24	; 0x3e
    334e:	9f af       	std	Y+63, r25	; 0x3f
    3350:	67 97       	sbiw	r28, 0x17	; 23
    3352:	64 96       	adiw	r28, 0x14	; 20
    3354:	3f ad       	ldd	r19, Y+63	; 0x3f
    3356:	64 97       	sbiw	r28, 0x14	; 20
    3358:	3d 87       	std	Y+13, r19	; 0x0d

0000335a <.L75>:
    335a:	8d 85       	ldd	r24, Y+13	; 0x0d
    335c:	88 a3       	std	Y+32, r24	; 0x20

0000335e <.LBB151>:
	__asm__ volatile (
    335e:	88 a1       	ldd	r24, Y+32	; 0x20

00003360 <.L1^B4>:
    3360:	8a 95       	dec	r24
    3362:	f1 f7       	brne	.-4      	; 0x3360 <.L1^B4>
    3364:	88 a3       	std	Y+32, r24	; 0x20

00003366 <.Loc.275>:
	...

00003368 <.L88>:
    _delay_us(2);
    PORTB &= ~(1<<PB2);
    3368:	85 e2       	ldi	r24, 0x25	; 37
    336a:	90 e0       	ldi	r25, 0x00	; 0
    336c:	dc 01       	movw	r26, r24
    336e:	2c 91       	ld	r18, X

00003370 <.Loc.277>:
    3370:	85 e2       	ldi	r24, 0x25	; 37
    3372:	90 e0       	ldi	r25, 0x00	; 0

00003374 <.Loc.278>:
    3374:	2b 7f       	andi	r18, 0xFB	; 251
    3376:	fc 01       	movw	r30, r24
    3378:	20 83       	st	Z, r18

0000337a <.Loc.279>:
        flag = 0;
    337a:	10 92 4f 02 	sts	0x024F, r1	; 0x80024f <flag+0x1>
    337e:	10 92 4e 02 	sts	0x024E, r1	; 0x80024e <flag>

00003382 <.Loc.280>:
        TCNT4 = 0;
    3382:	84 ea       	ldi	r24, 0xA4	; 164
    3384:	90 e0       	ldi	r25, 0x00	; 0

00003386 <.Loc.281>:
    3386:	dc 01       	movw	r26, r24
    3388:	11 96       	adiw	r26, 0x01	; 1
    338a:	1c 92       	st	X, r1
    338c:	1e 92       	st	-X, r1

0000338e <.Loc.282>:
    	TCCR4B |= (1<<CS40); //start de timer
    338e:	81 ea       	ldi	r24, 0xA1	; 161
    3390:	90 e0       	ldi	r25, 0x00	; 0
    3392:	fc 01       	movw	r30, r24
    3394:	20 81       	ld	r18, Z
    3396:	81 ea       	ldi	r24, 0xA1	; 161
    3398:	90 e0       	ldi	r25, 0x00	; 0

0000339a <.Loc.283>:
    339a:	21 60       	ori	r18, 0x01	; 1
    339c:	dc 01       	movw	r26, r24
    339e:	2c 93       	st	X, r18

000033a0 <.Loc.284>:
    	TIMSK4 |= (1<<ICIE4); //enable input capture interrupts
    33a0:	82 e7       	ldi	r24, 0x72	; 114
    33a2:	90 e0       	ldi	r25, 0x00	; 0
    33a4:	fc 01       	movw	r30, r24
    33a6:	20 81       	ld	r18, Z
    33a8:	82 e7       	ldi	r24, 0x72	; 114
    33aa:	90 e0       	ldi	r25, 0x00	; 0

000033ac <.Loc.285>:
    33ac:	20 62       	ori	r18, 0x20	; 32
    33ae:	dc 01       	movw	r26, r24
    33b0:	2c 93       	st	X, r18

000033b2 <.Loc.286>:
	...

000033b4 <.L89>:
    	while(flag < 2){}
    33b4:	80 91 4e 02 	lds	r24, 0x024E	; 0x80024e <flag>
    33b8:	90 91 4f 02 	lds	r25, 0x024F	; 0x80024f <flag+0x1>
    33bc:	81 30       	cpi	r24, 0x01	; 1
    33be:	91 05       	cpc	r25, r1
    33c0:	c9 f3       	breq	.-14     	; 0x33b4 <.L89>
    33c2:	c4 f3       	brlt	.-16     	; 0x33b4 <.L89>

000033c4 <.Loc.288>:
    	//clicks = fall_edge - rise_edge;
    	//updateLCDScreen(1, "RE:",re, "");
    	afstand = (fe *0.858)-20;
    33c4:	80 91 52 02 	lds	r24, 0x0252	; 0x800252 <fe>
    33c8:	90 91 53 02 	lds	r25, 0x0253	; 0x800253 <fe+0x1>
    33cc:	9c 01       	movw	r18, r24
    33ce:	99 0f       	add	r25, r25
    33d0:	44 0b       	sbc	r20, r20
    33d2:	55 0b       	sbc	r21, r21
    33d4:	6b 96       	adiw	r28, 0x1b	; 27
    33d6:	2c af       	std	Y+60, r18	; 0x3c
    33d8:	3d af       	std	Y+61, r19	; 0x3d
    33da:	4e af       	std	Y+62, r20	; 0x3e
    33dc:	5f af       	std	Y+63, r21	; 0x3f
    33de:	6b 97       	sbiw	r28, 0x1b	; 27
    33e0:	6b 96       	adiw	r28, 0x1b	; 27
    33e2:	6c ad       	ldd	r22, Y+60	; 0x3c
    33e4:	7d ad       	ldd	r23, Y+61	; 0x3d
    33e6:	8e ad       	ldd	r24, Y+62	; 0x3e
    33e8:	9f ad       	ldd	r25, Y+63	; 0x3f
    33ea:	6b 97       	sbiw	r28, 0x1b	; 27
    33ec:	0e 94 eb 31 	call	0x63d6	; 0x63d6 <__floatsisf>
    33f0:	6b a3       	std	Y+35, r22	; 0x23
    33f2:	7c a3       	std	Y+36, r23	; 0x24
    33f4:	8d a3       	std	Y+37, r24	; 0x25
    33f6:	9e a3       	std	Y+38, r25	; 0x26
    33f8:	23 ee       	ldi	r18, 0xE3	; 227
    33fa:	35 ea       	ldi	r19, 0xA5	; 165
    33fc:	4b e5       	ldi	r20, 0x5B	; 91
    33fe:	5f e3       	ldi	r21, 0x3F	; 63
    3400:	6b a1       	ldd	r22, Y+35	; 0x23
    3402:	7c a1       	ldd	r23, Y+36	; 0x24
    3404:	8d a1       	ldd	r24, Y+37	; 0x25
    3406:	9e a1       	ldd	r25, Y+38	; 0x26
    3408:	0e 94 a0 32 	call	0x6540	; 0x6540 <__mulsf3>
    340c:	6f 96       	adiw	r28, 0x1f	; 31
    340e:	6c af       	std	Y+60, r22	; 0x3c
    3410:	7d af       	std	Y+61, r23	; 0x3d
    3412:	8e af       	std	Y+62, r24	; 0x3e
    3414:	9f af       	std	Y+63, r25	; 0x3f
    3416:	6f 97       	sbiw	r28, 0x1f	; 31
    3418:	6f 96       	adiw	r28, 0x1f	; 31
    341a:	8c ad       	ldd	r24, Y+60	; 0x3c
    341c:	9d ad       	ldd	r25, Y+61	; 0x3d
    341e:	ae ad       	ldd	r26, Y+62	; 0x3e
    3420:	bf ad       	ldd	r27, Y+63	; 0x3f
    3422:	6f 97       	sbiw	r28, 0x1f	; 31
    3424:	8f a3       	std	Y+39, r24	; 0x27
    3426:	98 a7       	std	Y+40, r25	; 0x28
    3428:	a9 a7       	std	Y+41, r26	; 0x29
    342a:	ba a7       	std	Y+42, r27	; 0x2a

0000342c <.Loc.289>:
    342c:	20 e0       	ldi	r18, 0x00	; 0
    342e:	30 e0       	ldi	r19, 0x00	; 0
    3430:	40 ea       	ldi	r20, 0xA0	; 160
    3432:	51 e4       	ldi	r21, 0x41	; 65
    3434:	6f a1       	ldd	r22, Y+39	; 0x27
    3436:	78 a5       	ldd	r23, Y+40	; 0x28
    3438:	89 a5       	ldd	r24, Y+41	; 0x29
    343a:	9a a5       	ldd	r25, Y+42	; 0x2a
    343c:	0e 94 cf 30 	call	0x619e	; 0x619e <__subsf3>
    3440:	a3 96       	adiw	r28, 0x23	; 35
    3442:	6c af       	std	Y+60, r22	; 0x3c
    3444:	7d af       	std	Y+61, r23	; 0x3d
    3446:	8e af       	std	Y+62, r24	; 0x3e
    3448:	9f af       	std	Y+63, r25	; 0x3f
    344a:	a3 97       	sbiw	r28, 0x23	; 35
    344c:	a3 96       	adiw	r28, 0x23	; 35
    344e:	2c ad       	ldd	r18, Y+60	; 0x3c
    3450:	3d ad       	ldd	r19, Y+61	; 0x3d
    3452:	4e ad       	ldd	r20, Y+62	; 0x3e
    3454:	5f ad       	ldd	r21, Y+63	; 0x3f
    3456:	a3 97       	sbiw	r28, 0x23	; 35
    3458:	2b a7       	std	Y+43, r18	; 0x2b
    345a:	3c a7       	std	Y+44, r19	; 0x2c
    345c:	4d a7       	std	Y+45, r20	; 0x2d
    345e:	5e a7       	std	Y+46, r21	; 0x2e

00003460 <.Loc.290>:
    3460:	6b a5       	ldd	r22, Y+43	; 0x2b
    3462:	7c a5       	ldd	r23, Y+44	; 0x2c
    3464:	8d a5       	ldd	r24, Y+45	; 0x2d
    3466:	9e a5       	ldd	r25, Y+46	; 0x2e
    3468:	0e 94 b3 31 	call	0x6366	; 0x6366 <__fixsfsi>
    346c:	a7 96       	adiw	r28, 0x27	; 39
    346e:	6c af       	std	Y+60, r22	; 0x3c
    3470:	7d af       	std	Y+61, r23	; 0x3d
    3472:	8e af       	std	Y+62, r24	; 0x3e
    3474:	9f af       	std	Y+63, r25	; 0x3f
    3476:	a7 97       	sbiw	r28, 0x27	; 39
    3478:	a5 96       	adiw	r28, 0x25	; 37
    347a:	8e ad       	ldd	r24, Y+62	; 0x3e
    347c:	9f ad       	ldd	r25, Y+63	; 0x3f
    347e:	a5 97       	sbiw	r28, 0x25	; 37
    3480:	90 93 51 02 	sts	0x0251, r25	; 0x800251 <afstand+0x1>
    3484:	80 93 50 02 	sts	0x0250, r24	; 0x800250 <afstand>

00003488 <.Loc.291>:
    	if (afstand < 0 ) afstand = 0;
    3488:	80 91 50 02 	lds	r24, 0x0250	; 0x800250 <afstand>
    348c:	90 91 51 02 	lds	r25, 0x0251	; 0x800251 <afstand+0x1>

00003490 <.Loc.292>:
    3490:	99 23       	and	r25, r25
    3492:	24 f4       	brge	.+8      	; 0x349c <.L90>

00003494 <.Loc.293>:
    3494:	10 92 51 02 	sts	0x0251, r1	; 0x800251 <afstand+0x1>
    3498:	10 92 50 02 	sts	0x0250, r1	; 0x800250 <afstand>

0000349c <.L90>:
       return afstand;
    349c:	80 91 50 02 	lds	r24, 0x0250	; 0x800250 <afstand>
    34a0:	90 91 51 02 	lds	r25, 0x0251	; 0x800251 <afstand+0x1>

000034a4 <.L71>:
}
    34a4:	ca 59       	subi	r28, 0x9A	; 154
    34a6:	df 4f       	sbci	r29, 0xFF	; 255
    34a8:	0f b6       	in	r0, 0x3f	; 63
    34aa:	f8 94       	cli
    34ac:	de bf       	out	0x3e, r29	; 62
    34ae:	0f be       	out	0x3f, r0	; 63
    34b0:	cd bf       	out	0x3d, r28	; 61
    34b2:	df 91       	pop	r29
    34b4:	cf 91       	pop	r28
    34b6:	08 95       	ret

000034b8 <rrichting>:



// Rijd Functies:
void rrichting(int richting){
    34b8:	cf 93       	push	r28
    34ba:	df 93       	push	r29
    34bc:	0f 92       	push	r0
    34be:	0f 92       	push	r0
    34c0:	cd b7       	in	r28, 0x3d	; 61
    34c2:	de b7       	in	r29, 0x3e	; 62
    34c4:	9a 83       	std	Y+2, r25	; 0x02
    34c6:	89 83       	std	Y+1, r24	; 0x01

000034c8 <.Loc.297>:
    if (richting){
    34c8:	89 81       	ldd	r24, Y+1	; 0x01
    34ca:	9a 81       	ldd	r25, Y+2	; 0x02
    34cc:	00 97       	sbiw	r24, 0x00	; 0
    34ce:	99 f0       	breq	.+38     	; 0x34f6 <.L102>

000034d0 <.Loc.298>:
        TCCR1A &= ~(1<<COM1A1); //zet vooruit uit
    34d0:	80 e8       	ldi	r24, 0x80	; 128
    34d2:	90 e0       	ldi	r25, 0x00	; 0
    34d4:	fc 01       	movw	r30, r24
    34d6:	20 81       	ld	r18, Z

000034d8 <.Loc.299>:
    34d8:	80 e8       	ldi	r24, 0x80	; 128
    34da:	90 e0       	ldi	r25, 0x00	; 0

000034dc <.Loc.300>:
    34dc:	2f 77       	andi	r18, 0x7F	; 127
    34de:	fc 01       	movw	r30, r24
    34e0:	20 83       	st	Z, r18

000034e2 <.Loc.301>:
        TCCR1A |= (1<<COM1B1); //zet achteruit aan
    34e2:	80 e8       	ldi	r24, 0x80	; 128
    34e4:	90 e0       	ldi	r25, 0x00	; 0
    34e6:	fc 01       	movw	r30, r24
    34e8:	20 81       	ld	r18, Z
    34ea:	80 e8       	ldi	r24, 0x80	; 128
    34ec:	90 e0       	ldi	r25, 0x00	; 0

000034ee <.Loc.302>:
    34ee:	20 62       	ori	r18, 0x20	; 32
    34f0:	fc 01       	movw	r30, r24
    34f2:	20 83       	st	Z, r18

000034f4 <.Loc.303>:
    }
    else{
        TCCR1A &= ~(1<<COM1B1); //achteruit uit
        TCCR1A |= (1<<COM1A1); //vooruit aan
    }
}
    34f4:	12 c0       	rjmp	.+36     	; 0x351a <.L104>

000034f6 <.L102>:
        TCCR1A &= ~(1<<COM1B1); //achteruit uit
    34f6:	80 e8       	ldi	r24, 0x80	; 128
    34f8:	90 e0       	ldi	r25, 0x00	; 0
    34fa:	fc 01       	movw	r30, r24
    34fc:	20 81       	ld	r18, Z

000034fe <.Loc.305>:
    34fe:	80 e8       	ldi	r24, 0x80	; 128
    3500:	90 e0       	ldi	r25, 0x00	; 0

00003502 <.Loc.306>:
    3502:	2f 7d       	andi	r18, 0xDF	; 223
    3504:	fc 01       	movw	r30, r24
    3506:	20 83       	st	Z, r18

00003508 <.Loc.307>:
        TCCR1A |= (1<<COM1A1); //vooruit aan
    3508:	80 e8       	ldi	r24, 0x80	; 128
    350a:	90 e0       	ldi	r25, 0x00	; 0
    350c:	fc 01       	movw	r30, r24
    350e:	20 81       	ld	r18, Z
    3510:	80 e8       	ldi	r24, 0x80	; 128
    3512:	90 e0       	ldi	r25, 0x00	; 0

00003514 <.Loc.308>:
    3514:	20 68       	ori	r18, 0x80	; 128
    3516:	fc 01       	movw	r30, r24
    3518:	20 83       	st	Z, r18

0000351a <.L104>:
}
    351a:	00 00       	nop
    351c:	0f 90       	pop	r0
    351e:	0f 90       	pop	r0
    3520:	df 91       	pop	r29
    3522:	cf 91       	pop	r28
    3524:	08 95       	ret

00003526 <lrichting>:

void lrichting(int richting){
    3526:	cf 93       	push	r28
    3528:	df 93       	push	r29
    352a:	0f 92       	push	r0
    352c:	0f 92       	push	r0
    352e:	cd b7       	in	r28, 0x3d	; 61
    3530:	de b7       	in	r29, 0x3e	; 62
    3532:	9a 83       	std	Y+2, r25	; 0x02
    3534:	89 83       	std	Y+1, r24	; 0x01

00003536 <.Loc.311>:
    if (richting){
    3536:	89 81       	ldd	r24, Y+1	; 0x01
    3538:	9a 81       	ldd	r25, Y+2	; 0x02
    353a:	00 97       	sbiw	r24, 0x00	; 0
    353c:	99 f0       	breq	.+38     	; 0x3564 <.L106>

0000353e <.Loc.312>:
        TCCR4A &= ~(1<<COM4B1); //achteruit uit
    353e:	80 ea       	ldi	r24, 0xA0	; 160
    3540:	90 e0       	ldi	r25, 0x00	; 0
    3542:	fc 01       	movw	r30, r24
    3544:	20 81       	ld	r18, Z

00003546 <.Loc.313>:
    3546:	80 ea       	ldi	r24, 0xA0	; 160
    3548:	90 e0       	ldi	r25, 0x00	; 0

0000354a <.Loc.314>:
    354a:	2f 7d       	andi	r18, 0xDF	; 223
    354c:	fc 01       	movw	r30, r24
    354e:	20 83       	st	Z, r18

00003550 <.Loc.315>:
        TCCR4A |= (1<<COM4A1); //vooruit aan
    3550:	80 ea       	ldi	r24, 0xA0	; 160
    3552:	90 e0       	ldi	r25, 0x00	; 0
    3554:	fc 01       	movw	r30, r24
    3556:	20 81       	ld	r18, Z
    3558:	80 ea       	ldi	r24, 0xA0	; 160
    355a:	90 e0       	ldi	r25, 0x00	; 0

0000355c <.Loc.316>:
    355c:	20 68       	ori	r18, 0x80	; 128
    355e:	fc 01       	movw	r30, r24
    3560:	20 83       	st	Z, r18

00003562 <.Loc.317>:
    }
    else{
        TCCR4A &= ~(1<<COM4A1); //zet vooruit uit
        TCCR4A |= (1<<COM4B1); //zet achteruit aan
    }
}
    3562:	12 c0       	rjmp	.+36     	; 0x3588 <.L108>

00003564 <.L106>:
        TCCR4A &= ~(1<<COM4A1); //zet vooruit uit
    3564:	80 ea       	ldi	r24, 0xA0	; 160
    3566:	90 e0       	ldi	r25, 0x00	; 0
    3568:	fc 01       	movw	r30, r24
    356a:	20 81       	ld	r18, Z

0000356c <.Loc.319>:
    356c:	80 ea       	ldi	r24, 0xA0	; 160
    356e:	90 e0       	ldi	r25, 0x00	; 0

00003570 <.Loc.320>:
    3570:	2f 77       	andi	r18, 0x7F	; 127
    3572:	fc 01       	movw	r30, r24
    3574:	20 83       	st	Z, r18

00003576 <.Loc.321>:
        TCCR4A |= (1<<COM4B1); //zet achteruit aan
    3576:	80 ea       	ldi	r24, 0xA0	; 160
    3578:	90 e0       	ldi	r25, 0x00	; 0
    357a:	fc 01       	movw	r30, r24
    357c:	20 81       	ld	r18, Z
    357e:	80 ea       	ldi	r24, 0xA0	; 160
    3580:	90 e0       	ldi	r25, 0x00	; 0

00003582 <.Loc.322>:
    3582:	20 62       	ori	r18, 0x20	; 32
    3584:	fc 01       	movw	r30, r24
    3586:	20 83       	st	Z, r18

00003588 <.L108>:
}
    3588:	00 00       	nop
    358a:	0f 90       	pop	r0
    358c:	0f 90       	pop	r0
    358e:	df 91       	pop	r29
    3590:	cf 91       	pop	r28
    3592:	08 95       	ret

00003594 <lsnelheid>:


// Snelheid = 21 voor Aan
void lsnelheid(int snelheid){
    3594:	cf 93       	push	r28
    3596:	df 93       	push	r29
    3598:	0f 92       	push	r0
    359a:	0f 92       	push	r0
    359c:	cd b7       	in	r28, 0x3d	; 61
    359e:	de b7       	in	r29, 0x3e	; 62
    35a0:	9a 83       	std	Y+2, r25	; 0x02
    35a2:	89 83       	std	Y+1, r24	; 0x01

000035a4 <.Loc.325>:
    OCR4A = snelheid;
    35a4:	88 ea       	ldi	r24, 0xA8	; 168
    35a6:	90 e0       	ldi	r25, 0x00	; 0

000035a8 <.Loc.326>:
    35a8:	29 81       	ldd	r18, Y+1	; 0x01
    35aa:	3a 81       	ldd	r19, Y+2	; 0x02
    35ac:	fc 01       	movw	r30, r24
    35ae:	31 83       	std	Z+1, r19	; 0x01
    35b0:	20 83       	st	Z, r18

000035b2 <.Loc.327>:
    OCR4B = snelheid;
    35b2:	8a ea       	ldi	r24, 0xAA	; 170
    35b4:	90 e0       	ldi	r25, 0x00	; 0

000035b6 <.Loc.328>:
    35b6:	29 81       	ldd	r18, Y+1	; 0x01
    35b8:	3a 81       	ldd	r19, Y+2	; 0x02
    35ba:	fc 01       	movw	r30, r24
    35bc:	31 83       	std	Z+1, r19	; 0x01
    35be:	20 83       	st	Z, r18

000035c0 <.Loc.329>:
}
    35c0:	00 00       	nop
    35c2:	0f 90       	pop	r0
    35c4:	0f 90       	pop	r0
    35c6:	df 91       	pop	r29
    35c8:	cf 91       	pop	r28
    35ca:	08 95       	ret

000035cc <rsnelheid>:

// Snelheid = 20 voor Aan
void rsnelheid(int snelheid){
    35cc:	cf 93       	push	r28
    35ce:	df 93       	push	r29
    35d0:	0f 92       	push	r0
    35d2:	0f 92       	push	r0
    35d4:	cd b7       	in	r28, 0x3d	; 61
    35d6:	de b7       	in	r29, 0x3e	; 62
    35d8:	9a 83       	std	Y+2, r25	; 0x02
    35da:	89 83       	std	Y+1, r24	; 0x01

000035dc <.Loc.331>:
    OCR1A = snelheid;
    35dc:	88 e8       	ldi	r24, 0x88	; 136
    35de:	90 e0       	ldi	r25, 0x00	; 0

000035e0 <.Loc.332>:
    35e0:	29 81       	ldd	r18, Y+1	; 0x01
    35e2:	3a 81       	ldd	r19, Y+2	; 0x02
    35e4:	fc 01       	movw	r30, r24
    35e6:	31 83       	std	Z+1, r19	; 0x01
    35e8:	20 83       	st	Z, r18

000035ea <.Loc.333>:
    OCR1B = snelheid;
    35ea:	8a e8       	ldi	r24, 0x8A	; 138
    35ec:	90 e0       	ldi	r25, 0x00	; 0

000035ee <.Loc.334>:
    35ee:	29 81       	ldd	r18, Y+1	; 0x01
    35f0:	3a 81       	ldd	r19, Y+2	; 0x02
    35f2:	fc 01       	movw	r30, r24
    35f4:	31 83       	std	Z+1, r19	; 0x01
    35f6:	20 83       	st	Z, r18

000035f8 <.Loc.335>:
}
    35f8:	00 00       	nop
    35fa:	0f 90       	pop	r0
    35fc:	0f 90       	pop	r0
    35fe:	df 91       	pop	r29
    3600:	cf 91       	pop	r28
    3602:	08 95       	ret

00003604 <__vector_41>:



// Interrupts:
ISR(TIMER4_CAPT_vect){
    3604:	1f 92       	push	r1
    3606:	0f 92       	push	r0
    3608:	0f b6       	in	r0, 0x3f	; 63
    360a:	0f 92       	push	r0
    360c:	11 24       	eor	r1, r1
    360e:	0b b6       	in	r0, 0x3b	; 59
    3610:	0f 92       	push	r0
    3612:	2f 93       	push	r18
    3614:	8f 93       	push	r24
    3616:	9f 93       	push	r25
    3618:	ef 93       	push	r30
    361a:	ff 93       	push	r31
    361c:	cf 93       	push	r28
    361e:	df 93       	push	r29
    3620:	cd b7       	in	r28, 0x3d	; 61
    3622:	de b7       	in	r29, 0x3e	; 62

00003624 <.Loc.337>:
	if (flag == 0)  //rising edge
    3624:	80 91 4e 02 	lds	r24, 0x024E	; 0x80024e <flag>
    3628:	90 91 4f 02 	lds	r25, 0x024F	; 0x80024f <flag+0x1>

0000362c <.Loc.338>:
    362c:	00 97       	sbiw	r24, 0x00	; 0
    362e:	b9 f4       	brne	.+46     	; 0x365e <.L112>

00003630 <.Loc.339>:
	{
		re = ICR4; //save rise fall edge time to input capture register
    3630:	86 ea       	ldi	r24, 0xA6	; 166
    3632:	90 e0       	ldi	r25, 0x00	; 0
    3634:	fc 01       	movw	r30, r24
    3636:	80 81       	ld	r24, Z
    3638:	91 81       	ldd	r25, Z+1	; 0x01

0000363a <.Loc.340>:
    363a:	90 93 55 02 	sts	0x0255, r25	; 0x800255 <re+0x1>
    363e:	80 93 54 02 	sts	0x0254, r24	; 0x800254 <re>

00003642 <.Loc.341>:
		TCCR4B &= ~(1<<ICES4); //change input capture edge select on falling edge
    3642:	81 ea       	ldi	r24, 0xA1	; 161
    3644:	90 e0       	ldi	r25, 0x00	; 0
    3646:	fc 01       	movw	r30, r24
    3648:	20 81       	ld	r18, Z

0000364a <.Loc.342>:
    364a:	81 ea       	ldi	r24, 0xA1	; 161
    364c:	90 e0       	ldi	r25, 0x00	; 0

0000364e <.Loc.343>:
    364e:	2f 7b       	andi	r18, 0xBF	; 191
    3650:	fc 01       	movw	r30, r24
    3652:	20 83       	st	Z, r18

00003654 <.Loc.344>:
		TCNT4 = 0;
    3654:	84 ea       	ldi	r24, 0xA4	; 164
    3656:	90 e0       	ldi	r25, 0x00	; 0

00003658 <.Loc.345>:
    3658:	fc 01       	movw	r30, r24
    365a:	11 82       	std	Z+1, r1	; 0x01
    365c:	10 82       	st	Z, r1

0000365e <.L112>:
	}
	if (flag == 1) //falling edge
    365e:	80 91 4e 02 	lds	r24, 0x024E	; 0x80024e <flag>
    3662:	90 91 4f 02 	lds	r25, 0x024F	; 0x80024f <flag+0x1>

00003666 <.Loc.347>:
    3666:	81 30       	cpi	r24, 0x01	; 1
    3668:	91 05       	cpc	r25, r1
    366a:	49 f5       	brne	.+82     	; 0x36be <.L113>

0000366c <.Loc.348>:
	{
		fe = ICR4; //save fall edge time to input capture register
    366c:	86 ea       	ldi	r24, 0xA6	; 166
    366e:	90 e0       	ldi	r25, 0x00	; 0
    3670:	fc 01       	movw	r30, r24
    3672:	80 81       	ld	r24, Z
    3674:	91 81       	ldd	r25, Z+1	; 0x01

00003676 <.Loc.349>:
    3676:	90 93 53 02 	sts	0x0253, r25	; 0x800253 <fe+0x1>
    367a:	80 93 52 02 	sts	0x0252, r24	; 0x800252 <fe>

0000367e <.Loc.350>:
        TCCR4B |= (1<<ICES4); //change input capture edge select on rising edge
    367e:	81 ea       	ldi	r24, 0xA1	; 161
    3680:	90 e0       	ldi	r25, 0x00	; 0
    3682:	fc 01       	movw	r30, r24
    3684:	20 81       	ld	r18, Z
    3686:	81 ea       	ldi	r24, 0xA1	; 161
    3688:	90 e0       	ldi	r25, 0x00	; 0

0000368a <.Loc.351>:
    368a:	20 64       	ori	r18, 0x40	; 64
    368c:	fc 01       	movw	r30, r24
    368e:	20 83       	st	Z, r18

00003690 <.Loc.352>:
		TIMSK4 &= ~(1<<ICIE4); //disable input capture interrupt
    3690:	82 e7       	ldi	r24, 0x72	; 114
    3692:	90 e0       	ldi	r25, 0x00	; 0
    3694:	fc 01       	movw	r30, r24
    3696:	20 81       	ld	r18, Z

00003698 <.Loc.353>:
    3698:	82 e7       	ldi	r24, 0x72	; 114
    369a:	90 e0       	ldi	r25, 0x00	; 0

0000369c <.Loc.354>:
    369c:	2f 7d       	andi	r18, 0xDF	; 223
    369e:	fc 01       	movw	r30, r24
    36a0:	20 83       	st	Z, r18

000036a2 <.Loc.355>:
		TCCR4B &= ~(1<<CS40); //stop de timer
    36a2:	81 ea       	ldi	r24, 0xA1	; 161
    36a4:	90 e0       	ldi	r25, 0x00	; 0
    36a6:	fc 01       	movw	r30, r24
    36a8:	20 81       	ld	r18, Z

000036aa <.Loc.356>:
    36aa:	81 ea       	ldi	r24, 0xA1	; 161
    36ac:	90 e0       	ldi	r25, 0x00	; 0

000036ae <.Loc.357>:
    36ae:	2e 7f       	andi	r18, 0xFE	; 254
    36b0:	fc 01       	movw	r30, r24
    36b2:	20 83       	st	Z, r18

000036b4 <.Loc.358>:
		TCNT1 = 0;
    36b4:	84 e8       	ldi	r24, 0x84	; 132
    36b6:	90 e0       	ldi	r25, 0x00	; 0

000036b8 <.Loc.359>:
    36b8:	fc 01       	movw	r30, r24
    36ba:	11 82       	std	Z+1, r1	; 0x01
    36bc:	10 82       	st	Z, r1

000036be <.L113>:
	}
	flag ++; //increment flag
    36be:	80 91 4e 02 	lds	r24, 0x024E	; 0x80024e <flag>
    36c2:	90 91 4f 02 	lds	r25, 0x024F	; 0x80024f <flag+0x1>
    36c6:	01 96       	adiw	r24, 0x01	; 1
    36c8:	90 93 4f 02 	sts	0x024F, r25	; 0x80024f <flag+0x1>
    36cc:	80 93 4e 02 	sts	0x024E, r24	; 0x80024e <flag>

000036d0 <.Loc.361>:
}
    36d0:	00 00       	nop
    36d2:	df 91       	pop	r29
    36d4:	cf 91       	pop	r28
    36d6:	ff 91       	pop	r31
    36d8:	ef 91       	pop	r30
    36da:	9f 91       	pop	r25
    36dc:	8f 91       	pop	r24
    36de:	2f 91       	pop	r18
    36e0:	0f 90       	pop	r0
    36e2:	0b be       	out	0x3b, r0	; 59
    36e4:	0f 90       	pop	r0
    36e6:	0f be       	out	0x3f, r0	; 63
    36e8:	0f 90       	pop	r0
    36ea:	1f 90       	pop	r1
    36ec:	18 95       	reti

000036ee <__vector_45>:

ISR(TIMER4_OVF_vect){
    36ee:	1f 92       	push	r1
    36f0:	0f 92       	push	r0
    36f2:	0f b6       	in	r0, 0x3f	; 63
    36f4:	0f 92       	push	r0
    36f6:	11 24       	eor	r1, r1
    36f8:	0b b6       	in	r0, 0x3b	; 59
    36fa:	0f 92       	push	r0
    36fc:	2f 93       	push	r18
    36fe:	8f 93       	push	r24
    3700:	9f 93       	push	r25
    3702:	ef 93       	push	r30
    3704:	ff 93       	push	r31
    3706:	cf 93       	push	r28
    3708:	df 93       	push	r29
    370a:	cd b7       	in	r28, 0x3d	; 61
    370c:	de b7       	in	r29, 0x3e	; 62

0000370e <.Loc.363>:
    flag = 3;
    370e:	83 e0       	ldi	r24, 0x03	; 3
    3710:	90 e0       	ldi	r25, 0x00	; 0
    3712:	90 93 4f 02 	sts	0x024F, r25	; 0x80024f <flag+0x1>
    3716:	80 93 4e 02 	sts	0x024E, r24	; 0x80024e <flag>

0000371a <.Loc.364>:
    fe = 0;
    371a:	10 92 53 02 	sts	0x0253, r1	; 0x800253 <fe+0x1>
    371e:	10 92 52 02 	sts	0x0252, r1	; 0x800252 <fe>

00003722 <.Loc.365>:
    re = 0;
    3722:	10 92 55 02 	sts	0x0255, r1	; 0x800255 <re+0x1>
    3726:	10 92 54 02 	sts	0x0254, r1	; 0x800254 <re>

0000372a <.Loc.366>:
    TCCR4B |= (1<<ICES4); //change input capture edge select on rising edge
    372a:	81 ea       	ldi	r24, 0xA1	; 161
    372c:	90 e0       	ldi	r25, 0x00	; 0
    372e:	fc 01       	movw	r30, r24
    3730:	20 81       	ld	r18, Z
    3732:	81 ea       	ldi	r24, 0xA1	; 161
    3734:	90 e0       	ldi	r25, 0x00	; 0

00003736 <.Loc.367>:
    3736:	20 64       	ori	r18, 0x40	; 64
    3738:	fc 01       	movw	r30, r24
    373a:	20 83       	st	Z, r18

0000373c <.Loc.368>:
    TIMSK4 &= ~(1<<ICIE4); //disable input capture interrupt
    373c:	82 e7       	ldi	r24, 0x72	; 114
    373e:	90 e0       	ldi	r25, 0x00	; 0
    3740:	fc 01       	movw	r30, r24
    3742:	20 81       	ld	r18, Z

00003744 <.Loc.369>:
    3744:	82 e7       	ldi	r24, 0x72	; 114
    3746:	90 e0       	ldi	r25, 0x00	; 0

00003748 <.Loc.370>:
    3748:	2f 7d       	andi	r18, 0xDF	; 223
    374a:	fc 01       	movw	r30, r24
    374c:	20 83       	st	Z, r18

0000374e <.Loc.371>:
    TCCR4B &= ~(1<<CS40); //stop de timer
    374e:	81 ea       	ldi	r24, 0xA1	; 161
    3750:	90 e0       	ldi	r25, 0x00	; 0
    3752:	fc 01       	movw	r30, r24
    3754:	20 81       	ld	r18, Z

00003756 <.Loc.372>:
    3756:	81 ea       	ldi	r24, 0xA1	; 161
    3758:	90 e0       	ldi	r25, 0x00	; 0

0000375a <.Loc.373>:
    375a:	2e 7f       	andi	r18, 0xFE	; 254
    375c:	fc 01       	movw	r30, r24
    375e:	20 83       	st	Z, r18

00003760 <.Loc.374>:
    TCNT1 = 0;
    3760:	84 e8       	ldi	r24, 0x84	; 132
    3762:	90 e0       	ldi	r25, 0x00	; 0

00003764 <.Loc.375>:
    3764:	fc 01       	movw	r30, r24
    3766:	11 82       	std	Z+1, r1	; 0x01
    3768:	10 82       	st	Z, r1

0000376a <.Loc.376>:
}
    376a:	00 00       	nop
    376c:	df 91       	pop	r29
    376e:	cf 91       	pop	r28
    3770:	ff 91       	pop	r31
    3772:	ef 91       	pop	r30
    3774:	9f 91       	pop	r25
    3776:	8f 91       	pop	r24
    3778:	2f 91       	pop	r18
    377a:	0f 90       	pop	r0
    377c:	0b be       	out	0x3b, r0	; 59
    377e:	0f 90       	pop	r0
    3780:	0f be       	out	0x3f, r0	; 63
    3782:	0f 90       	pop	r0
    3784:	1f 90       	pop	r1
    3786:	18 95       	reti

00003788 <main>:




// Main Functie
int main(void){
    3788:	0f 93       	push	r16
    378a:	1f 93       	push	r17
    378c:	cf 93       	push	r28
    378e:	df 93       	push	r29
    3790:	cd b7       	in	r28, 0x3d	; 61
    3792:	de b7       	in	r29, 0x3e	; 62
    3794:	ca 56       	subi	r28, 0x6A	; 106
    3796:	d2 40       	sbci	r29, 0x02	; 2
    3798:	0f b6       	in	r0, 0x3f	; 63
    379a:	f8 94       	cli
    379c:	de bf       	out	0x3e, r29	; 62
    379e:	0f be       	out	0x3f, r0	; 63
    37a0:	cd bf       	out	0x3d, r28	; 61

000037a2 <.Loc.378>:
    init();
    37a2:	0e 94 bf 14 	call	0x297e	; 0x297e <init>

000037a6 <.Loc.379>:
    enum states {Rechtdoorrijden, DraaienR, DraaienL, Volgen, Noodstop, Uit, BoomSignaleren, RouteCorrigeren};
    int state;
    state = Uit;
    37a6:	85 e0       	ldi	r24, 0x05	; 5
    37a8:	90 e0       	ldi	r25, 0x00	; 0
    37aa:	9a 83       	std	Y+2, r25	; 0x02
    37ac:	89 83       	std	Y+1, r24	; 0x01

000037ae <.L305>:
    while(1){
    switch (state){
    37ae:	89 81       	ldd	r24, Y+1	; 0x01
    37b0:	9a 81       	ldd	r25, Y+2	; 0x02
    37b2:	09 2e       	mov	r0, r25
    37b4:	00 0c       	add	r0, r0
    37b6:	aa 0b       	sbc	r26, r26
    37b8:	bb 0b       	sbc	r27, r27
    37ba:	87 30       	cpi	r24, 0x07	; 7
    37bc:	91 05       	cpc	r25, r1
    37be:	a1 05       	cpc	r26, r1
    37c0:	b1 05       	cpc	r27, r1
    37c2:	09 f0       	breq	.+2      	; 0x37c6 <L0^A+0x2>

000037c4 <L0^A>:
    37c4:	a0 f7       	brcc	.-24     	; 0x37ae <.L305>
    37c6:	fc 01       	movw	r30, r24
    37c8:	88 27       	eor	r24, r24
    37ca:	e1 5a       	subi	r30, 0xA1	; 161
    37cc:	f9 4c       	sbci	r31, 0xC9	; 201
    37ce:	8f 4f       	sbci	r24, 0xFF	; 255
    37d0:	0c 94 c7 30 	jmp	0x618e	; 0x618e <__tablejump2__>

000037d4 <.L121>:
        case Noodstop:
            onled(0);
    37d4:	80 e0       	ldi	r24, 0x00	; 0
    37d6:	90 e0       	ldi	r25, 0x00	; 0
    37d8:	0e 94 98 16 	call	0x2d30	; 0x2d30 <onled>

000037dc <.Loc.382>:
            followled(0);
    37dc:	80 e0       	ldi	r24, 0x00	; 0
    37de:	90 e0       	ldi	r25, 0x00	; 0
    37e0:	0e 94 73 16 	call	0x2ce6	; 0x2ce6 <followled>

000037e4 <.Loc.383>:
            noodstopled(1);
    37e4:	81 e0       	ldi	r24, 0x01	; 1
    37e6:	90 e0       	ldi	r25, 0x00	; 0
    37e8:	0e 94 bd 16 	call	0x2d7a	; 0x2d7a <noodstopled>

000037ec <.Loc.384>:


            // Snelheid uitzetten
            rsnelheid(0);
    37ec:	80 e0       	ldi	r24, 0x00	; 0
    37ee:	90 e0       	ldi	r25, 0x00	; 0
    37f0:	0e 94 e6 1a 	call	0x35cc	; 0x35cc <rsnelheid>

000037f4 <.Loc.385>:
            lsnelheid(0);
    37f4:	80 e0       	ldi	r24, 0x00	; 0
    37f6:	90 e0       	ldi	r25, 0x00	; 0
    37f8:	0e 94 ca 1a 	call	0x3594	; 0x3594 <lsnelheid>

000037fc <.Loc.386>:


            rrichting(0);
    37fc:	80 e0       	ldi	r24, 0x00	; 0
    37fe:	90 e0       	ldi	r25, 0x00	; 0
    3800:	0e 94 5c 1a 	call	0x34b8	; 0x34b8 <rrichting>

00003804 <.Loc.387>:
            lrichting(0);
    3804:	80 e0       	ldi	r24, 0x00	; 0
    3806:	90 e0       	ldi	r25, 0x00	; 0
    3808:	0e 94 93 1a 	call	0x3526	; 0x3526 <lrichting>

0000380c <.Loc.388>:



            if(((PINA & (1<<PA2)) != 0) && (noodstop_Onthouden == 1))
    380c:	80 e2       	ldi	r24, 0x20	; 32
    380e:	90 e0       	ldi	r25, 0x00	; 0
    3810:	dc 01       	movw	r26, r24
    3812:	8c 91       	ld	r24, X

00003814 <.Loc.389>:
    3814:	88 2f       	mov	r24, r24
    3816:	90 e0       	ldi	r25, 0x00	; 0
    3818:	84 70       	andi	r24, 0x04	; 4
    381a:	99 27       	eor	r25, r25

0000381c <.Loc.390>:
    381c:	00 97       	sbiw	r24, 0x00	; 0
    381e:	09 f4       	brne	.+2      	; 0x3822 <.Loc.391>

00003820 <L0^A>:
    3820:	c4 c0       	rjmp	.+392    	; 0x39aa <.L126>

00003822 <.Loc.391>:
    3822:	80 91 36 02 	lds	r24, 0x0236	; 0x800236 <noodstop_Onthouden>
    3826:	90 91 37 02 	lds	r25, 0x0237	; 0x800237 <noodstop_Onthouden+0x1>

0000382a <.Loc.392>:
    382a:	81 30       	cpi	r24, 0x01	; 1
    382c:	91 05       	cpc	r25, r1
    382e:	09 f0       	breq	.+2      	; 0x3832 <L0^A+0x2>

00003830 <L0^A>:
    3830:	bc c0       	rjmp	.+376    	; 0x39aa <.L126>
    3832:	80 e0       	ldi	r24, 0x00	; 0
    3834:	90 e0       	ldi	r25, 0x00	; 0
    3836:	a0 ea       	ldi	r26, 0xA0	; 160
    3838:	b1 e4       	ldi	r27, 0x41	; 65
    383a:	8f 83       	std	Y+7, r24	; 0x07
    383c:	98 87       	std	Y+8, r25	; 0x08
    383e:	a9 87       	std	Y+9, r26	; 0x09
    3840:	ba 87       	std	Y+10, r27	; 0x0a

00003842 <.LBB153>:
	__tmp = ((F_CPU) / 4e3) * __ms;
    3842:	20 e0       	ldi	r18, 0x00	; 0
    3844:	30 e0       	ldi	r19, 0x00	; 0
    3846:	4a e7       	ldi	r20, 0x7A	; 122
    3848:	55 e4       	ldi	r21, 0x45	; 69
    384a:	6f 81       	ldd	r22, Y+7	; 0x07
    384c:	78 85       	ldd	r23, Y+8	; 0x08
    384e:	89 85       	ldd	r24, Y+9	; 0x09
    3850:	9a 85       	ldd	r25, Y+10	; 0x0a
    3852:	0e 94 a0 32 	call	0x6540	; 0x6540 <__mulsf3>
    3856:	c5 5b       	subi	r28, 0xB5	; 181
    3858:	de 4f       	sbci	r29, 0xFE	; 254
    385a:	68 83       	st	Y, r22
    385c:	79 83       	std	Y+1, r23	; 0x01
    385e:	8a 83       	std	Y+2, r24	; 0x02
    3860:	9b 83       	std	Y+3, r25	; 0x03
    3862:	cb 54       	subi	r28, 0x4B	; 75
    3864:	d1 40       	sbci	r29, 0x01	; 1
    3866:	c5 5b       	subi	r28, 0xB5	; 181
    3868:	de 4f       	sbci	r29, 0xFE	; 254
    386a:	88 81       	ld	r24, Y
    386c:	99 81       	ldd	r25, Y+1	; 0x01
    386e:	aa 81       	ldd	r26, Y+2	; 0x02
    3870:	bb 81       	ldd	r27, Y+3	; 0x03
    3872:	cb 54       	subi	r28, 0x4B	; 75
    3874:	d1 40       	sbci	r29, 0x01	; 1
    3876:	8b 87       	std	Y+11, r24	; 0x0b
    3878:	9c 87       	std	Y+12, r25	; 0x0c
    387a:	ad 87       	std	Y+13, r26	; 0x0d
    387c:	be 87       	std	Y+14, r27	; 0x0e

0000387e <.Loc.394>:
	if (__tmp < 1.0)
    387e:	20 e0       	ldi	r18, 0x00	; 0
    3880:	30 e0       	ldi	r19, 0x00	; 0
    3882:	40 e8       	ldi	r20, 0x80	; 128
    3884:	5f e3       	ldi	r21, 0x3F	; 63
    3886:	6b 85       	ldd	r22, Y+11	; 0x0b
    3888:	7c 85       	ldd	r23, Y+12	; 0x0c
    388a:	8d 85       	ldd	r24, Y+13	; 0x0d
    388c:	9e 85       	ldd	r25, Y+14	; 0x0e
    388e:	0e 94 3c 31 	call	0x6278	; 0x6278 <__cmpsf2>
    3892:	88 23       	and	r24, r24
    3894:	2c f4       	brge	.+10     	; 0x38a0 <.L342>

00003896 <.Loc.395>:
		__ticks = 1;
    3896:	81 e0       	ldi	r24, 0x01	; 1
    3898:	90 e0       	ldi	r25, 0x00	; 0
    389a:	98 8b       	std	Y+16, r25	; 0x10
    389c:	8f 87       	std	Y+15, r24	; 0x0f
    389e:	76 c0       	rjmp	.+236    	; 0x398c <.L129>

000038a0 <.L342>:
	else if (__tmp > 65535)
    38a0:	20 e0       	ldi	r18, 0x00	; 0
    38a2:	3f ef       	ldi	r19, 0xFF	; 255
    38a4:	4f e7       	ldi	r20, 0x7F	; 127
    38a6:	57 e4       	ldi	r21, 0x47	; 71
    38a8:	6b 85       	ldd	r22, Y+11	; 0x0b
    38aa:	7c 85       	ldd	r23, Y+12	; 0x0c
    38ac:	8d 85       	ldd	r24, Y+13	; 0x0d
    38ae:	9e 85       	ldd	r25, Y+14	; 0x0e
    38b0:	0e 94 9b 32 	call	0x6536	; 0x6536 <__gesf2>
    38b4:	88 23       	and	r24, r24
    38b6:	09 f0       	breq	.+2      	; 0x38ba <L0^A>

000038b8 <L0^A>:
    38b8:	0c f4       	brge	.+2      	; 0x38bc <.Loc.397>

000038ba <L0^A>:
    38ba:	52 c0       	rjmp	.+164    	; 0x3960 <.L343>

000038bc <.Loc.397>:
		__ticks = (uint16_t) (__ms * 10.0);
    38bc:	20 e0       	ldi	r18, 0x00	; 0
    38be:	30 e0       	ldi	r19, 0x00	; 0
    38c0:	40 e2       	ldi	r20, 0x20	; 32
    38c2:	51 e4       	ldi	r21, 0x41	; 65
    38c4:	6f 81       	ldd	r22, Y+7	; 0x07
    38c6:	78 85       	ldd	r23, Y+8	; 0x08
    38c8:	89 85       	ldd	r24, Y+9	; 0x09
    38ca:	9a 85       	ldd	r25, Y+10	; 0x0a
    38cc:	0e 94 a0 32 	call	0x6540	; 0x6540 <__mulsf3>
    38d0:	c1 5b       	subi	r28, 0xB1	; 177
    38d2:	de 4f       	sbci	r29, 0xFE	; 254
    38d4:	68 83       	st	Y, r22
    38d6:	79 83       	std	Y+1, r23	; 0x01
    38d8:	8a 83       	std	Y+2, r24	; 0x02
    38da:	9b 83       	std	Y+3, r25	; 0x03
    38dc:	cf 54       	subi	r28, 0x4F	; 79
    38de:	d1 40       	sbci	r29, 0x01	; 1
    38e0:	c1 5b       	subi	r28, 0xB1	; 177
    38e2:	de 4f       	sbci	r29, 0xFE	; 254
    38e4:	88 81       	ld	r24, Y
    38e6:	99 81       	ldd	r25, Y+1	; 0x01
    38e8:	aa 81       	ldd	r26, Y+2	; 0x02
    38ea:	bb 81       	ldd	r27, Y+3	; 0x03
    38ec:	cf 54       	subi	r28, 0x4F	; 79
    38ee:	d1 40       	sbci	r29, 0x01	; 1
    38f0:	cd 5f       	subi	r28, 0xFD	; 253
    38f2:	de 4f       	sbci	r29, 0xFE	; 254
    38f4:	88 83       	st	Y, r24
    38f6:	99 83       	std	Y+1, r25	; 0x01
    38f8:	aa 83       	std	Y+2, r26	; 0x02
    38fa:	bb 83       	std	Y+3, r27	; 0x03
    38fc:	c3 50       	subi	r28, 0x03	; 3
    38fe:	d1 40       	sbci	r29, 0x01	; 1

00003900 <.Loc.398>:
    3900:	cd 5f       	subi	r28, 0xFD	; 253
    3902:	de 4f       	sbci	r29, 0xFE	; 254
    3904:	68 81       	ld	r22, Y
    3906:	79 81       	ldd	r23, Y+1	; 0x01
    3908:	8a 81       	ldd	r24, Y+2	; 0x02
    390a:	9b 81       	ldd	r25, Y+3	; 0x03
    390c:	c3 50       	subi	r28, 0x03	; 3
    390e:	d1 40       	sbci	r29, 0x01	; 1
    3910:	0e 94 ba 31 	call	0x6374	; 0x6374 <__fixunssfsi>
    3914:	cd 5a       	subi	r28, 0xAD	; 173
    3916:	de 4f       	sbci	r29, 0xFE	; 254
    3918:	68 83       	st	Y, r22
    391a:	79 83       	std	Y+1, r23	; 0x01
    391c:	8a 83       	std	Y+2, r24	; 0x02
    391e:	9b 83       	std	Y+3, r25	; 0x03
    3920:	c3 55       	subi	r28, 0x53	; 83
    3922:	d1 40       	sbci	r29, 0x01	; 1
    3924:	cd 5a       	subi	r28, 0xAD	; 173
    3926:	de 4f       	sbci	r29, 0xFE	; 254
    3928:	a8 81       	ld	r26, Y
    392a:	b9 81       	ldd	r27, Y+1	; 0x01
    392c:	c3 55       	subi	r28, 0x53	; 83
    392e:	d1 40       	sbci	r29, 0x01	; 1
    3930:	b8 8b       	std	Y+16, r27	; 0x10
    3932:	af 87       	std	Y+15, r26	; 0x0f

00003934 <.Loc.399>:
		while(__ticks)
    3934:	10 c0       	rjmp	.+32     	; 0x3956 <.L132>

00003936 <.L133>:
    3936:	80 e9       	ldi	r24, 0x90	; 144
    3938:	91 e0       	ldi	r25, 0x01	; 1
    393a:	9a 8b       	std	Y+18, r25	; 0x12
    393c:	89 8b       	std	Y+17, r24	; 0x11

0000393e <.LBB155>:
	__asm__ volatile (
    393e:	89 89       	ldd	r24, Y+17	; 0x11
    3940:	9a 89       	ldd	r25, Y+18	; 0x12

00003942 <.L1^B5>:
    3942:	01 97       	sbiw	r24, 0x01	; 1
    3944:	f1 f7       	brne	.-4      	; 0x3942 <.L1^B5>
    3946:	9a 8b       	std	Y+18, r25	; 0x12
    3948:	89 8b       	std	Y+17, r24	; 0x11

0000394a <.Loc.401>:
	...

0000394c <.LBE155>:
			__ticks --;
    394c:	8f 85       	ldd	r24, Y+15	; 0x0f
    394e:	98 89       	ldd	r25, Y+16	; 0x10
    3950:	01 97       	sbiw	r24, 0x01	; 1
    3952:	98 8b       	std	Y+16, r25	; 0x10
    3954:	8f 87       	std	Y+15, r24	; 0x0f

00003956 <.L132>:
		while(__ticks)
    3956:	8f 85       	ldd	r24, Y+15	; 0x0f
    3958:	98 89       	ldd	r25, Y+16	; 0x10
    395a:	00 97       	sbiw	r24, 0x00	; 0
    395c:	61 f7       	brne	.-40     	; 0x3936 <.L133>

0000395e <.Loc.404>:
		return;
    395e:	21 c0       	rjmp	.+66     	; 0x39a2 <.L134>

00003960 <.L343>:
		__ticks = (uint16_t)__tmp;
    3960:	6b 85       	ldd	r22, Y+11	; 0x0b
    3962:	7c 85       	ldd	r23, Y+12	; 0x0c
    3964:	8d 85       	ldd	r24, Y+13	; 0x0d
    3966:	9e 85       	ldd	r25, Y+14	; 0x0e
    3968:	0e 94 ba 31 	call	0x6374	; 0x6374 <__fixunssfsi>
    396c:	c9 5a       	subi	r28, 0xA9	; 169
    396e:	de 4f       	sbci	r29, 0xFE	; 254
    3970:	68 83       	st	Y, r22
    3972:	79 83       	std	Y+1, r23	; 0x01
    3974:	8a 83       	std	Y+2, r24	; 0x02
    3976:	9b 83       	std	Y+3, r25	; 0x03
    3978:	c7 55       	subi	r28, 0x57	; 87
    397a:	d1 40       	sbci	r29, 0x01	; 1
    397c:	c9 5a       	subi	r28, 0xA9	; 169
    397e:	de 4f       	sbci	r29, 0xFE	; 254
    3980:	e8 81       	ld	r30, Y
    3982:	f9 81       	ldd	r31, Y+1	; 0x01
    3984:	c7 55       	subi	r28, 0x57	; 87
    3986:	d1 40       	sbci	r29, 0x01	; 1
    3988:	f8 8b       	std	Y+16, r31	; 0x10
    398a:	ef 87       	std	Y+15, r30	; 0x0f

0000398c <.L129>:
    398c:	8f 85       	ldd	r24, Y+15	; 0x0f
    398e:	98 89       	ldd	r25, Y+16	; 0x10
    3990:	9c 8b       	std	Y+20, r25	; 0x14
    3992:	8b 8b       	std	Y+19, r24	; 0x13

00003994 <.LBB157>:
    3994:	8b 89       	ldd	r24, Y+19	; 0x13
    3996:	9c 89       	ldd	r25, Y+20	; 0x14

00003998 <.L1^B6>:
    3998:	01 97       	sbiw	r24, 0x01	; 1
    399a:	f1 f7       	brne	.-4      	; 0x3998 <.L1^B6>
    399c:	9c 8b       	std	Y+20, r25	; 0x14
    399e:	8b 8b       	std	Y+19, r24	; 0x13

000039a0 <.Loc.407>:
	...

000039a2 <.L134>:
            {
                _delay_ms(20);
                noodstop_Onthouden = 0;
    39a2:	10 92 37 02 	sts	0x0237, r1	; 0x800237 <noodstop_Onthouden+0x1>
    39a6:	10 92 36 02 	sts	0x0236, r1	; 0x800236 <noodstop_Onthouden>

000039aa <.L126>:
            }

            if(leestaanknopuit() && (noodstop_Onthouden == 0))
    39aa:	0e 94 28 17 	call	0x2e50	; 0x2e50 <leestaanknopuit>

000039ae <.Loc.410>:
    39ae:	00 97       	sbiw	r24, 0x00	; 0
    39b0:	11 f4       	brne	.+4      	; 0x39b6 <.Loc.411>

000039b2 <L0^A>:
    39b2:	0c 94 b5 30 	jmp	0x616a	; 0x616a <.L378>

000039b6 <.Loc.411>:
    39b6:	80 91 36 02 	lds	r24, 0x0236	; 0x800236 <noodstop_Onthouden>
    39ba:	90 91 37 02 	lds	r25, 0x0237	; 0x800237 <noodstop_Onthouden+0x1>

000039be <.Loc.412>:
    39be:	00 97       	sbiw	r24, 0x00	; 0
    39c0:	11 f0       	breq	.+4      	; 0x39c6 <.Loc.413>

000039c2 <L0^A>:
    39c2:	0c 94 b5 30 	jmp	0x616a	; 0x616a <.L378>

000039c6 <.Loc.413>:
            {
                noodstopled(0);
    39c6:	80 e0       	ldi	r24, 0x00	; 0
    39c8:	90 e0       	ldi	r25, 0x00	; 0
    39ca:	0e 94 bd 16 	call	0x2d7a	; 0x2d7a <noodstopled>
    39ce:	80 e0       	ldi	r24, 0x00	; 0
    39d0:	90 e0       	ldi	r25, 0x00	; 0
    39d2:	a0 ea       	ldi	r26, 0xA0	; 160
    39d4:	b1 e4       	ldi	r27, 0x41	; 65
    39d6:	8d 8b       	std	Y+21, r24	; 0x15
    39d8:	9e 8b       	std	Y+22, r25	; 0x16
    39da:	af 8b       	std	Y+23, r26	; 0x17
    39dc:	b8 8f       	std	Y+24, r27	; 0x18

000039de <.LBB159>:
	__tmp = ((F_CPU) / 4e3) * __ms;
    39de:	20 e0       	ldi	r18, 0x00	; 0
    39e0:	30 e0       	ldi	r19, 0x00	; 0
    39e2:	4a e7       	ldi	r20, 0x7A	; 122
    39e4:	55 e4       	ldi	r21, 0x45	; 69
    39e6:	6d 89       	ldd	r22, Y+21	; 0x15
    39e8:	7e 89       	ldd	r23, Y+22	; 0x16
    39ea:	8f 89       	ldd	r24, Y+23	; 0x17
    39ec:	98 8d       	ldd	r25, Y+24	; 0x18
    39ee:	0e 94 a0 32 	call	0x6540	; 0x6540 <__mulsf3>
    39f2:	c5 5a       	subi	r28, 0xA5	; 165
    39f4:	de 4f       	sbci	r29, 0xFE	; 254
    39f6:	68 83       	st	Y, r22
    39f8:	79 83       	std	Y+1, r23	; 0x01
    39fa:	8a 83       	std	Y+2, r24	; 0x02
    39fc:	9b 83       	std	Y+3, r25	; 0x03
    39fe:	cb 55       	subi	r28, 0x5B	; 91
    3a00:	d1 40       	sbci	r29, 0x01	; 1
    3a02:	c5 5a       	subi	r28, 0xA5	; 165
    3a04:	de 4f       	sbci	r29, 0xFE	; 254
    3a06:	88 81       	ld	r24, Y
    3a08:	99 81       	ldd	r25, Y+1	; 0x01
    3a0a:	aa 81       	ldd	r26, Y+2	; 0x02
    3a0c:	bb 81       	ldd	r27, Y+3	; 0x03
    3a0e:	cb 55       	subi	r28, 0x5B	; 91
    3a10:	d1 40       	sbci	r29, 0x01	; 1
    3a12:	89 8f       	std	Y+25, r24	; 0x19
    3a14:	9a 8f       	std	Y+26, r25	; 0x1a
    3a16:	ab 8f       	std	Y+27, r26	; 0x1b
    3a18:	bc 8f       	std	Y+28, r27	; 0x1c

00003a1a <.Loc.415>:
	if (__tmp < 1.0)
    3a1a:	20 e0       	ldi	r18, 0x00	; 0
    3a1c:	30 e0       	ldi	r19, 0x00	; 0
    3a1e:	40 e8       	ldi	r20, 0x80	; 128
    3a20:	5f e3       	ldi	r21, 0x3F	; 63
    3a22:	69 8d       	ldd	r22, Y+25	; 0x19
    3a24:	7a 8d       	ldd	r23, Y+26	; 0x1a
    3a26:	8b 8d       	ldd	r24, Y+27	; 0x1b
    3a28:	9c 8d       	ldd	r25, Y+28	; 0x1c
    3a2a:	0e 94 3c 31 	call	0x6278	; 0x6278 <__cmpsf2>
    3a2e:	88 23       	and	r24, r24
    3a30:	2c f4       	brge	.+10     	; 0x3a3c <.L344>

00003a32 <.Loc.416>:
		__ticks = 1;
    3a32:	81 e0       	ldi	r24, 0x01	; 1
    3a34:	90 e0       	ldi	r25, 0x00	; 0
    3a36:	9e 8f       	std	Y+30, r25	; 0x1e
    3a38:	8d 8f       	std	Y+29, r24	; 0x1d
    3a3a:	76 c0       	rjmp	.+236    	; 0x3b28 <.L138>

00003a3c <.L344>:
	else if (__tmp > 65535)
    3a3c:	20 e0       	ldi	r18, 0x00	; 0
    3a3e:	3f ef       	ldi	r19, 0xFF	; 255
    3a40:	4f e7       	ldi	r20, 0x7F	; 127
    3a42:	57 e4       	ldi	r21, 0x47	; 71
    3a44:	69 8d       	ldd	r22, Y+25	; 0x19
    3a46:	7a 8d       	ldd	r23, Y+26	; 0x1a
    3a48:	8b 8d       	ldd	r24, Y+27	; 0x1b
    3a4a:	9c 8d       	ldd	r25, Y+28	; 0x1c
    3a4c:	0e 94 9b 32 	call	0x6536	; 0x6536 <__gesf2>
    3a50:	88 23       	and	r24, r24
    3a52:	09 f0       	breq	.+2      	; 0x3a56 <L0^A>

00003a54 <L0^A>:
    3a54:	0c f4       	brge	.+2      	; 0x3a58 <.Loc.418>

00003a56 <L0^A>:
    3a56:	52 c0       	rjmp	.+164    	; 0x3afc <.L345>

00003a58 <.Loc.418>:
		__ticks = (uint16_t) (__ms * 10.0);
    3a58:	20 e0       	ldi	r18, 0x00	; 0
    3a5a:	30 e0       	ldi	r19, 0x00	; 0
    3a5c:	40 e2       	ldi	r20, 0x20	; 32
    3a5e:	51 e4       	ldi	r21, 0x41	; 65
    3a60:	6d 89       	ldd	r22, Y+21	; 0x15
    3a62:	7e 89       	ldd	r23, Y+22	; 0x16
    3a64:	8f 89       	ldd	r24, Y+23	; 0x17
    3a66:	98 8d       	ldd	r25, Y+24	; 0x18
    3a68:	0e 94 a0 32 	call	0x6540	; 0x6540 <__mulsf3>
    3a6c:	c1 5a       	subi	r28, 0xA1	; 161
    3a6e:	de 4f       	sbci	r29, 0xFE	; 254
    3a70:	68 83       	st	Y, r22
    3a72:	79 83       	std	Y+1, r23	; 0x01
    3a74:	8a 83       	std	Y+2, r24	; 0x02
    3a76:	9b 83       	std	Y+3, r25	; 0x03
    3a78:	cf 55       	subi	r28, 0x5F	; 95
    3a7a:	d1 40       	sbci	r29, 0x01	; 1
    3a7c:	c1 5a       	subi	r28, 0xA1	; 161
    3a7e:	de 4f       	sbci	r29, 0xFE	; 254
    3a80:	88 81       	ld	r24, Y
    3a82:	99 81       	ldd	r25, Y+1	; 0x01
    3a84:	aa 81       	ldd	r26, Y+2	; 0x02
    3a86:	bb 81       	ldd	r27, Y+3	; 0x03
    3a88:	cf 55       	subi	r28, 0x5F	; 95
    3a8a:	d1 40       	sbci	r29, 0x01	; 1
    3a8c:	c9 5f       	subi	r28, 0xF9	; 249
    3a8e:	de 4f       	sbci	r29, 0xFE	; 254
    3a90:	88 83       	st	Y, r24
    3a92:	99 83       	std	Y+1, r25	; 0x01
    3a94:	aa 83       	std	Y+2, r26	; 0x02
    3a96:	bb 83       	std	Y+3, r27	; 0x03
    3a98:	c7 50       	subi	r28, 0x07	; 7
    3a9a:	d1 40       	sbci	r29, 0x01	; 1

00003a9c <.Loc.419>:
    3a9c:	c9 5f       	subi	r28, 0xF9	; 249
    3a9e:	de 4f       	sbci	r29, 0xFE	; 254
    3aa0:	68 81       	ld	r22, Y
    3aa2:	79 81       	ldd	r23, Y+1	; 0x01
    3aa4:	8a 81       	ldd	r24, Y+2	; 0x02
    3aa6:	9b 81       	ldd	r25, Y+3	; 0x03
    3aa8:	c7 50       	subi	r28, 0x07	; 7
    3aaa:	d1 40       	sbci	r29, 0x01	; 1
    3aac:	0e 94 ba 31 	call	0x6374	; 0x6374 <__fixunssfsi>
    3ab0:	cd 59       	subi	r28, 0x9D	; 157
    3ab2:	de 4f       	sbci	r29, 0xFE	; 254
    3ab4:	68 83       	st	Y, r22
    3ab6:	79 83       	std	Y+1, r23	; 0x01
    3ab8:	8a 83       	std	Y+2, r24	; 0x02
    3aba:	9b 83       	std	Y+3, r25	; 0x03
    3abc:	c3 56       	subi	r28, 0x63	; 99
    3abe:	d1 40       	sbci	r29, 0x01	; 1
    3ac0:	cd 59       	subi	r28, 0x9D	; 157
    3ac2:	de 4f       	sbci	r29, 0xFE	; 254
    3ac4:	a8 81       	ld	r26, Y
    3ac6:	b9 81       	ldd	r27, Y+1	; 0x01
    3ac8:	c3 56       	subi	r28, 0x63	; 99
    3aca:	d1 40       	sbci	r29, 0x01	; 1
    3acc:	be 8f       	std	Y+30, r27	; 0x1e
    3ace:	ad 8f       	std	Y+29, r26	; 0x1d

00003ad0 <.Loc.420>:
		while(__ticks)
    3ad0:	10 c0       	rjmp	.+32     	; 0x3af2 <.L141>

00003ad2 <.L142>:
    3ad2:	80 e9       	ldi	r24, 0x90	; 144
    3ad4:	91 e0       	ldi	r25, 0x01	; 1
    3ad6:	98 a3       	std	Y+32, r25	; 0x20
    3ad8:	8f 8f       	std	Y+31, r24	; 0x1f

00003ada <.LBB161>:
    3ada:	8f 8d       	ldd	r24, Y+31	; 0x1f
    3adc:	98 a1       	ldd	r25, Y+32	; 0x20

00003ade <.L1^B7>:
    3ade:	01 97       	sbiw	r24, 0x01	; 1
    3ae0:	f1 f7       	brne	.-4      	; 0x3ade <.L1^B7>
    3ae2:	98 a3       	std	Y+32, r25	; 0x20
    3ae4:	8f 8f       	std	Y+31, r24	; 0x1f

00003ae6 <.Loc.422>:
	...

00003ae8 <.LBE161>:
			__ticks --;
    3ae8:	8d 8d       	ldd	r24, Y+29	; 0x1d
    3aea:	9e 8d       	ldd	r25, Y+30	; 0x1e
    3aec:	01 97       	sbiw	r24, 0x01	; 1
    3aee:	9e 8f       	std	Y+30, r25	; 0x1e
    3af0:	8d 8f       	std	Y+29, r24	; 0x1d

00003af2 <.L141>:
		while(__ticks)
    3af2:	8d 8d       	ldd	r24, Y+29	; 0x1d
    3af4:	9e 8d       	ldd	r25, Y+30	; 0x1e
    3af6:	00 97       	sbiw	r24, 0x00	; 0
    3af8:	61 f7       	brne	.-40     	; 0x3ad2 <.L142>

00003afa <.Loc.425>:
		return;
    3afa:	21 c0       	rjmp	.+66     	; 0x3b3e <.L143>

00003afc <.L345>:
		__ticks = (uint16_t)__tmp;
    3afc:	69 8d       	ldd	r22, Y+25	; 0x19
    3afe:	7a 8d       	ldd	r23, Y+26	; 0x1a
    3b00:	8b 8d       	ldd	r24, Y+27	; 0x1b
    3b02:	9c 8d       	ldd	r25, Y+28	; 0x1c
    3b04:	0e 94 ba 31 	call	0x6374	; 0x6374 <__fixunssfsi>
    3b08:	c9 59       	subi	r28, 0x99	; 153
    3b0a:	de 4f       	sbci	r29, 0xFE	; 254
    3b0c:	68 83       	st	Y, r22
    3b0e:	79 83       	std	Y+1, r23	; 0x01
    3b10:	8a 83       	std	Y+2, r24	; 0x02
    3b12:	9b 83       	std	Y+3, r25	; 0x03
    3b14:	c7 56       	subi	r28, 0x67	; 103
    3b16:	d1 40       	sbci	r29, 0x01	; 1
    3b18:	c9 59       	subi	r28, 0x99	; 153
    3b1a:	de 4f       	sbci	r29, 0xFE	; 254
    3b1c:	e8 81       	ld	r30, Y
    3b1e:	f9 81       	ldd	r31, Y+1	; 0x01
    3b20:	c7 56       	subi	r28, 0x67	; 103
    3b22:	d1 40       	sbci	r29, 0x01	; 1
    3b24:	fe 8f       	std	Y+30, r31	; 0x1e
    3b26:	ed 8f       	std	Y+29, r30	; 0x1d

00003b28 <.L138>:
    3b28:	8d 8d       	ldd	r24, Y+29	; 0x1d
    3b2a:	9e 8d       	ldd	r25, Y+30	; 0x1e
    3b2c:	9a a3       	std	Y+34, r25	; 0x22
    3b2e:	89 a3       	std	Y+33, r24	; 0x21

00003b30 <.LBB163>:
    3b30:	89 a1       	ldd	r24, Y+33	; 0x21
    3b32:	9a a1       	ldd	r25, Y+34	; 0x22

00003b34 <.L1^B8>:
    3b34:	01 97       	sbiw	r24, 0x01	; 1
    3b36:	f1 f7       	brne	.-4      	; 0x3b34 <.L1^B8>
    3b38:	9a a3       	std	Y+34, r25	; 0x22
    3b3a:	89 a3       	std	Y+33, r24	; 0x21

00003b3c <.Loc.428>:
	...

00003b3e <.L143>:
                _delay_ms(20);
                if(draaienL_Onthouden == 1){
    3b3e:	80 91 40 02 	lds	r24, 0x0240	; 0x800240 <draaienL_Onthouden>
    3b42:	90 91 41 02 	lds	r25, 0x0241	; 0x800241 <draaienL_Onthouden+0x1>

00003b46 <.Loc.430>:
    3b46:	81 30       	cpi	r24, 0x01	; 1
    3b48:	91 05       	cpc	r25, r1
    3b4a:	31 f4       	brne	.+12     	; 0x3b58 <.L144>

00003b4c <.Loc.431>:
                    state = DraaienL;
    3b4c:	82 e0       	ldi	r24, 0x02	; 2
    3b4e:	90 e0       	ldi	r25, 0x00	; 0
    3b50:	9a 83       	std	Y+2, r25	; 0x02
    3b52:	89 83       	std	Y+1, r24	; 0x01

00003b54 <.Loc.432>:
                    break;
    3b54:	0c 94 c5 30 	jmp	0x618a	; 0x618a <.L116>

00003b58 <.L144>:
                }
                else if(draaienR_Onthouden == 1){
    3b58:	80 91 42 02 	lds	r24, 0x0242	; 0x800242 <draaienR_Onthouden>
    3b5c:	90 91 43 02 	lds	r25, 0x0243	; 0x800243 <draaienR_Onthouden+0x1>

00003b60 <.Loc.434>:
    3b60:	81 30       	cpi	r24, 0x01	; 1
    3b62:	91 05       	cpc	r25, r1
    3b64:	31 f4       	brne	.+12     	; 0x3b72 <.L145>

00003b66 <.Loc.435>:
                    state = DraaienR;
    3b66:	81 e0       	ldi	r24, 0x01	; 1
    3b68:	90 e0       	ldi	r25, 0x00	; 0
    3b6a:	9a 83       	std	Y+2, r25	; 0x02
    3b6c:	89 83       	std	Y+1, r24	; 0x01

00003b6e <.Loc.436>:
                    break;
    3b6e:	0c 94 c5 30 	jmp	0x618a	; 0x618a <.L116>

00003b72 <.L145>:
                }
                else if(volgen_Onthouden == 1)
    3b72:	80 91 38 02 	lds	r24, 0x0238	; 0x800238 <volgen_Onthouden>
    3b76:	90 91 39 02 	lds	r25, 0x0239	; 0x800239 <volgen_Onthouden+0x1>

00003b7a <.Loc.438>:
    3b7a:	81 30       	cpi	r24, 0x01	; 1
    3b7c:	91 05       	cpc	r25, r1
    3b7e:	31 f4       	brne	.+12     	; 0x3b8c <.L146>

00003b80 <.Loc.439>:
                {
                    state = Volgen;
    3b80:	83 e0       	ldi	r24, 0x03	; 3
    3b82:	90 e0       	ldi	r25, 0x00	; 0
    3b84:	9a 83       	std	Y+2, r25	; 0x02
    3b86:	89 83       	std	Y+1, r24	; 0x01

00003b88 <.Loc.440>:
                    break;
    3b88:	0c 94 c5 30 	jmp	0x618a	; 0x618a <.L116>

00003b8c <.L146>:
                }
                else if(corrigeren_Onthouden == 1)
    3b8c:	80 91 3a 02 	lds	r24, 0x023A	; 0x80023a <corrigeren_Onthouden>
    3b90:	90 91 3b 02 	lds	r25, 0x023B	; 0x80023b <corrigeren_Onthouden+0x1>

00003b94 <.Loc.442>:
    3b94:	81 30       	cpi	r24, 0x01	; 1
    3b96:	91 05       	cpc	r25, r1
    3b98:	31 f4       	brne	.+12     	; 0x3ba6 <.L147>

00003b9a <.Loc.443>:
                {
                    state = RouteCorrigeren;
    3b9a:	87 e0       	ldi	r24, 0x07	; 7
    3b9c:	90 e0       	ldi	r25, 0x00	; 0
    3b9e:	9a 83       	std	Y+2, r25	; 0x02
    3ba0:	89 83       	std	Y+1, r24	; 0x01

00003ba2 <.Loc.444>:
                    break;
    3ba2:	0c 94 c5 30 	jmp	0x618a	; 0x618a <.L116>

00003ba6 <.L147>:
                }
                else{
                    state = Rechtdoorrijden;
    3ba6:	1a 82       	std	Y+2, r1	; 0x02
    3ba8:	19 82       	std	Y+1, r1	; 0x01

00003baa <.Loc.446>:
                    break;
    3baa:	0c 94 c5 30 	jmp	0x618a	; 0x618a <.L116>

00003bae <.L125>:
            }

            break;

        case Rechtdoorrijden:
            onled(1);
    3bae:	81 e0       	ldi	r24, 0x01	; 1
    3bb0:	90 e0       	ldi	r25, 0x00	; 0
    3bb2:	0e 94 98 16 	call	0x2d30	; 0x2d30 <onled>

00003bb6 <.Loc.448>:

            // Laten rijden
            rsnelheid(20);
    3bb6:	84 e1       	ldi	r24, 0x14	; 20
    3bb8:	90 e0       	ldi	r25, 0x00	; 0
    3bba:	0e 94 e6 1a 	call	0x35cc	; 0x35cc <rsnelheid>

00003bbe <.Loc.449>:
            lsnelheid(21);
    3bbe:	85 e1       	ldi	r24, 0x15	; 21
    3bc0:	90 e0       	ldi	r25, 0x00	; 0
    3bc2:	0e 94 ca 1a 	call	0x3594	; 0x3594 <lsnelheid>

00003bc6 <.Loc.450>:

            // 0 zodat die vooruit rijdt
            rrichting(0);
    3bc6:	80 e0       	ldi	r24, 0x00	; 0
    3bc8:	90 e0       	ldi	r25, 0x00	; 0
    3bca:	0e 94 5c 1a 	call	0x34b8	; 0x34b8 <rrichting>

00003bce <.Loc.451>:
            lrichting(0);
    3bce:	80 e0       	ldi	r24, 0x00	; 0
    3bd0:	90 e0       	ldi	r25, 0x00	; 0
    3bd2:	0e 94 93 1a 	call	0x3526	; 0x3526 <lrichting>

00003bd6 <.Loc.452>:
            {
                rsnelheid(20);
                lsnelheid(21);
            }*/

            if((uitVolgen) && (!leestaanknopuit()))
    3bd6:	80 91 3e 02 	lds	r24, 0x023E	; 0x80023e <uitVolgen>
    3bda:	90 91 3f 02 	lds	r25, 0x023F	; 0x80023f <uitVolgen+0x1>

00003bde <.Loc.453>:
    3bde:	00 97       	sbiw	r24, 0x00	; 0
    3be0:	41 f0       	breq	.+16     	; 0x3bf2 <.L148>

00003be2 <.Loc.454>:
    3be2:	0e 94 28 17 	call	0x2e50	; 0x2e50 <leestaanknopuit>

00003be6 <.Loc.455>:
    3be6:	00 97       	sbiw	r24, 0x00	; 0
    3be8:	21 f4       	brne	.+8      	; 0x3bf2 <.L148>

00003bea <.Loc.456>:
            {
                uitVolgen = 0;
    3bea:	10 92 3f 02 	sts	0x023F, r1	; 0x80023f <uitVolgen+0x1>
    3bee:	10 92 3e 02 	sts	0x023E, r1	; 0x80023e <uitVolgen>

00003bf2 <.L148>:
            }

            if(((PINA & (1<<PA2)) != 0) && (noodstop_Onthouden == 0)){
    3bf2:	80 e2       	ldi	r24, 0x20	; 32
    3bf4:	90 e0       	ldi	r25, 0x00	; 0
    3bf6:	dc 01       	movw	r26, r24
    3bf8:	8c 91       	ld	r24, X

00003bfa <.Loc.458>:
    3bfa:	88 2f       	mov	r24, r24
    3bfc:	90 e0       	ldi	r25, 0x00	; 0
    3bfe:	84 70       	andi	r24, 0x04	; 4
    3c00:	99 27       	eor	r25, r25

00003c02 <.Loc.459>:
    3c02:	00 97       	sbiw	r24, 0x00	; 0
    3c04:	09 f4       	brne	.+2      	; 0x3c08 <.Loc.460>

00003c06 <L0^A>:
    3c06:	cb c0       	rjmp	.+406    	; 0x3d9e <.L149>

00003c08 <.Loc.460>:
    3c08:	80 91 36 02 	lds	r24, 0x0236	; 0x800236 <noodstop_Onthouden>
    3c0c:	90 91 37 02 	lds	r25, 0x0237	; 0x800237 <noodstop_Onthouden+0x1>

00003c10 <.Loc.461>:
    3c10:	00 97       	sbiw	r24, 0x00	; 0
    3c12:	09 f0       	breq	.+2      	; 0x3c16 <L0^A+0x2>

00003c14 <L0^A>:
    3c14:	c4 c0       	rjmp	.+392    	; 0x3d9e <.L149>
    3c16:	80 e0       	ldi	r24, 0x00	; 0
    3c18:	90 e0       	ldi	r25, 0x00	; 0
    3c1a:	a0 ea       	ldi	r26, 0xA0	; 160
    3c1c:	b1 e4       	ldi	r27, 0x41	; 65
    3c1e:	8b a3       	std	Y+35, r24	; 0x23
    3c20:	9c a3       	std	Y+36, r25	; 0x24
    3c22:	ad a3       	std	Y+37, r26	; 0x25
    3c24:	be a3       	std	Y+38, r27	; 0x26

00003c26 <.LBB165>:
	__tmp = ((F_CPU) / 4e3) * __ms;
    3c26:	20 e0       	ldi	r18, 0x00	; 0
    3c28:	30 e0       	ldi	r19, 0x00	; 0
    3c2a:	4a e7       	ldi	r20, 0x7A	; 122
    3c2c:	55 e4       	ldi	r21, 0x45	; 69
    3c2e:	6b a1       	ldd	r22, Y+35	; 0x23
    3c30:	7c a1       	ldd	r23, Y+36	; 0x24
    3c32:	8d a1       	ldd	r24, Y+37	; 0x25
    3c34:	9e a1       	ldd	r25, Y+38	; 0x26
    3c36:	0e 94 a0 32 	call	0x6540	; 0x6540 <__mulsf3>
    3c3a:	c5 59       	subi	r28, 0x95	; 149
    3c3c:	de 4f       	sbci	r29, 0xFE	; 254
    3c3e:	68 83       	st	Y, r22
    3c40:	79 83       	std	Y+1, r23	; 0x01
    3c42:	8a 83       	std	Y+2, r24	; 0x02
    3c44:	9b 83       	std	Y+3, r25	; 0x03
    3c46:	cb 56       	subi	r28, 0x6B	; 107
    3c48:	d1 40       	sbci	r29, 0x01	; 1
    3c4a:	c5 59       	subi	r28, 0x95	; 149
    3c4c:	de 4f       	sbci	r29, 0xFE	; 254
    3c4e:	88 81       	ld	r24, Y
    3c50:	99 81       	ldd	r25, Y+1	; 0x01
    3c52:	aa 81       	ldd	r26, Y+2	; 0x02
    3c54:	bb 81       	ldd	r27, Y+3	; 0x03
    3c56:	cb 56       	subi	r28, 0x6B	; 107
    3c58:	d1 40       	sbci	r29, 0x01	; 1
    3c5a:	8f a3       	std	Y+39, r24	; 0x27
    3c5c:	98 a7       	std	Y+40, r25	; 0x28
    3c5e:	a9 a7       	std	Y+41, r26	; 0x29
    3c60:	ba a7       	std	Y+42, r27	; 0x2a

00003c62 <.Loc.463>:
	if (__tmp < 1.0)
    3c62:	20 e0       	ldi	r18, 0x00	; 0
    3c64:	30 e0       	ldi	r19, 0x00	; 0
    3c66:	40 e8       	ldi	r20, 0x80	; 128
    3c68:	5f e3       	ldi	r21, 0x3F	; 63
    3c6a:	6f a1       	ldd	r22, Y+39	; 0x27
    3c6c:	78 a5       	ldd	r23, Y+40	; 0x28
    3c6e:	89 a5       	ldd	r24, Y+41	; 0x29
    3c70:	9a a5       	ldd	r25, Y+42	; 0x2a
    3c72:	0e 94 3c 31 	call	0x6278	; 0x6278 <__cmpsf2>
    3c76:	88 23       	and	r24, r24
    3c78:	2c f4       	brge	.+10     	; 0x3c84 <.L346>

00003c7a <.Loc.464>:
		__ticks = 1;
    3c7a:	81 e0       	ldi	r24, 0x01	; 1
    3c7c:	90 e0       	ldi	r25, 0x00	; 0
    3c7e:	9c a7       	std	Y+44, r25	; 0x2c
    3c80:	8b a7       	std	Y+43, r24	; 0x2b
    3c82:	76 c0       	rjmp	.+236    	; 0x3d70 <.L152>

00003c84 <.L346>:
	else if (__tmp > 65535)
    3c84:	20 e0       	ldi	r18, 0x00	; 0
    3c86:	3f ef       	ldi	r19, 0xFF	; 255
    3c88:	4f e7       	ldi	r20, 0x7F	; 127
    3c8a:	57 e4       	ldi	r21, 0x47	; 71
    3c8c:	6f a1       	ldd	r22, Y+39	; 0x27
    3c8e:	78 a5       	ldd	r23, Y+40	; 0x28
    3c90:	89 a5       	ldd	r24, Y+41	; 0x29
    3c92:	9a a5       	ldd	r25, Y+42	; 0x2a
    3c94:	0e 94 9b 32 	call	0x6536	; 0x6536 <__gesf2>
    3c98:	88 23       	and	r24, r24
    3c9a:	09 f0       	breq	.+2      	; 0x3c9e <L0^A>

00003c9c <L0^A>:
    3c9c:	0c f4       	brge	.+2      	; 0x3ca0 <.Loc.466>

00003c9e <L0^A>:
    3c9e:	52 c0       	rjmp	.+164    	; 0x3d44 <.L347>

00003ca0 <.Loc.466>:
		__ticks = (uint16_t) (__ms * 10.0);
    3ca0:	20 e0       	ldi	r18, 0x00	; 0
    3ca2:	30 e0       	ldi	r19, 0x00	; 0
    3ca4:	40 e2       	ldi	r20, 0x20	; 32
    3ca6:	51 e4       	ldi	r21, 0x41	; 65
    3ca8:	6b a1       	ldd	r22, Y+35	; 0x23
    3caa:	7c a1       	ldd	r23, Y+36	; 0x24
    3cac:	8d a1       	ldd	r24, Y+37	; 0x25
    3cae:	9e a1       	ldd	r25, Y+38	; 0x26
    3cb0:	0e 94 a0 32 	call	0x6540	; 0x6540 <__mulsf3>
    3cb4:	c1 59       	subi	r28, 0x91	; 145
    3cb6:	de 4f       	sbci	r29, 0xFE	; 254
    3cb8:	68 83       	st	Y, r22
    3cba:	79 83       	std	Y+1, r23	; 0x01
    3cbc:	8a 83       	std	Y+2, r24	; 0x02
    3cbe:	9b 83       	std	Y+3, r25	; 0x03
    3cc0:	cf 56       	subi	r28, 0x6F	; 111
    3cc2:	d1 40       	sbci	r29, 0x01	; 1
    3cc4:	c1 59       	subi	r28, 0x91	; 145
    3cc6:	de 4f       	sbci	r29, 0xFE	; 254
    3cc8:	88 81       	ld	r24, Y
    3cca:	99 81       	ldd	r25, Y+1	; 0x01
    3ccc:	aa 81       	ldd	r26, Y+2	; 0x02
    3cce:	bb 81       	ldd	r27, Y+3	; 0x03
    3cd0:	cf 56       	subi	r28, 0x6F	; 111
    3cd2:	d1 40       	sbci	r29, 0x01	; 1
    3cd4:	c5 5f       	subi	r28, 0xF5	; 245
    3cd6:	de 4f       	sbci	r29, 0xFE	; 254
    3cd8:	88 83       	st	Y, r24
    3cda:	99 83       	std	Y+1, r25	; 0x01
    3cdc:	aa 83       	std	Y+2, r26	; 0x02
    3cde:	bb 83       	std	Y+3, r27	; 0x03
    3ce0:	cb 50       	subi	r28, 0x0B	; 11
    3ce2:	d1 40       	sbci	r29, 0x01	; 1

00003ce4 <.Loc.467>:
    3ce4:	c5 5f       	subi	r28, 0xF5	; 245
    3ce6:	de 4f       	sbci	r29, 0xFE	; 254
    3ce8:	68 81       	ld	r22, Y
    3cea:	79 81       	ldd	r23, Y+1	; 0x01
    3cec:	8a 81       	ldd	r24, Y+2	; 0x02
    3cee:	9b 81       	ldd	r25, Y+3	; 0x03
    3cf0:	cb 50       	subi	r28, 0x0B	; 11
    3cf2:	d1 40       	sbci	r29, 0x01	; 1
    3cf4:	0e 94 ba 31 	call	0x6374	; 0x6374 <__fixunssfsi>
    3cf8:	cd 58       	subi	r28, 0x8D	; 141
    3cfa:	de 4f       	sbci	r29, 0xFE	; 254
    3cfc:	68 83       	st	Y, r22
    3cfe:	79 83       	std	Y+1, r23	; 0x01
    3d00:	8a 83       	std	Y+2, r24	; 0x02
    3d02:	9b 83       	std	Y+3, r25	; 0x03
    3d04:	c3 57       	subi	r28, 0x73	; 115
    3d06:	d1 40       	sbci	r29, 0x01	; 1
    3d08:	cd 58       	subi	r28, 0x8D	; 141
    3d0a:	de 4f       	sbci	r29, 0xFE	; 254
    3d0c:	a8 81       	ld	r26, Y
    3d0e:	b9 81       	ldd	r27, Y+1	; 0x01
    3d10:	c3 57       	subi	r28, 0x73	; 115
    3d12:	d1 40       	sbci	r29, 0x01	; 1
    3d14:	bc a7       	std	Y+44, r27	; 0x2c
    3d16:	ab a7       	std	Y+43, r26	; 0x2b

00003d18 <.Loc.468>:
		while(__ticks)
    3d18:	10 c0       	rjmp	.+32     	; 0x3d3a <.L155>

00003d1a <.L156>:
    3d1a:	80 e9       	ldi	r24, 0x90	; 144
    3d1c:	91 e0       	ldi	r25, 0x01	; 1
    3d1e:	9e a7       	std	Y+46, r25	; 0x2e
    3d20:	8d a7       	std	Y+45, r24	; 0x2d

00003d22 <.LBB167>:
    3d22:	8d a5       	ldd	r24, Y+45	; 0x2d
    3d24:	9e a5       	ldd	r25, Y+46	; 0x2e

00003d26 <.L1^B9>:
    3d26:	01 97       	sbiw	r24, 0x01	; 1
    3d28:	f1 f7       	brne	.-4      	; 0x3d26 <.L1^B9>
    3d2a:	9e a7       	std	Y+46, r25	; 0x2e
    3d2c:	8d a7       	std	Y+45, r24	; 0x2d

00003d2e <.Loc.470>:
	...

00003d30 <.LBE167>:
			__ticks --;
    3d30:	8b a5       	ldd	r24, Y+43	; 0x2b
    3d32:	9c a5       	ldd	r25, Y+44	; 0x2c
    3d34:	01 97       	sbiw	r24, 0x01	; 1
    3d36:	9c a7       	std	Y+44, r25	; 0x2c
    3d38:	8b a7       	std	Y+43, r24	; 0x2b

00003d3a <.L155>:
		while(__ticks)
    3d3a:	8b a5       	ldd	r24, Y+43	; 0x2b
    3d3c:	9c a5       	ldd	r25, Y+44	; 0x2c
    3d3e:	00 97       	sbiw	r24, 0x00	; 0
    3d40:	61 f7       	brne	.-40     	; 0x3d1a <.L156>

00003d42 <.Loc.473>:
		return;
    3d42:	21 c0       	rjmp	.+66     	; 0x3d86 <.L157>

00003d44 <.L347>:
		__ticks = (uint16_t)__tmp;
    3d44:	6f a1       	ldd	r22, Y+39	; 0x27
    3d46:	78 a5       	ldd	r23, Y+40	; 0x28
    3d48:	89 a5       	ldd	r24, Y+41	; 0x29
    3d4a:	9a a5       	ldd	r25, Y+42	; 0x2a
    3d4c:	0e 94 ba 31 	call	0x6374	; 0x6374 <__fixunssfsi>
    3d50:	c9 58       	subi	r28, 0x89	; 137
    3d52:	de 4f       	sbci	r29, 0xFE	; 254
    3d54:	68 83       	st	Y, r22
    3d56:	79 83       	std	Y+1, r23	; 0x01
    3d58:	8a 83       	std	Y+2, r24	; 0x02
    3d5a:	9b 83       	std	Y+3, r25	; 0x03
    3d5c:	c7 57       	subi	r28, 0x77	; 119
    3d5e:	d1 40       	sbci	r29, 0x01	; 1
    3d60:	c9 58       	subi	r28, 0x89	; 137
    3d62:	de 4f       	sbci	r29, 0xFE	; 254
    3d64:	e8 81       	ld	r30, Y
    3d66:	f9 81       	ldd	r31, Y+1	; 0x01
    3d68:	c7 57       	subi	r28, 0x77	; 119
    3d6a:	d1 40       	sbci	r29, 0x01	; 1
    3d6c:	fc a7       	std	Y+44, r31	; 0x2c
    3d6e:	eb a7       	std	Y+43, r30	; 0x2b

00003d70 <.L152>:
    3d70:	8b a5       	ldd	r24, Y+43	; 0x2b
    3d72:	9c a5       	ldd	r25, Y+44	; 0x2c
    3d74:	98 ab       	std	Y+48, r25	; 0x30
    3d76:	8f a7       	std	Y+47, r24	; 0x2f

00003d78 <.LBB169>:
    3d78:	8f a5       	ldd	r24, Y+47	; 0x2f
    3d7a:	98 a9       	ldd	r25, Y+48	; 0x30

00003d7c <.L1^B10>:
    3d7c:	01 97       	sbiw	r24, 0x01	; 1
    3d7e:	f1 f7       	brne	.-4      	; 0x3d7c <.L1^B10>
    3d80:	98 ab       	std	Y+48, r25	; 0x30
    3d82:	8f a7       	std	Y+47, r24	; 0x2f

00003d84 <.Loc.476>:
	...

00003d86 <.L157>:
                _delay_ms(20);
                noodstop_Onthouden = 1;
    3d86:	81 e0       	ldi	r24, 0x01	; 1
    3d88:	90 e0       	ldi	r25, 0x00	; 0
    3d8a:	90 93 37 02 	sts	0x0237, r25	; 0x800237 <noodstop_Onthouden+0x1>
    3d8e:	80 93 36 02 	sts	0x0236, r24	; 0x800236 <noodstop_Onthouden>

00003d92 <.Loc.478>:
                state = Noodstop;
    3d92:	84 e0       	ldi	r24, 0x04	; 4
    3d94:	90 e0       	ldi	r25, 0x00	; 0
    3d96:	9a 83       	std	Y+2, r25	; 0x02
    3d98:	89 83       	std	Y+1, r24	; 0x01

00003d9a <.Loc.479>:
                break;
    3d9a:	0c 94 c5 30 	jmp	0x618a	; 0x618a <.L116>

00003d9e <.L149>:
            }

            if((uit_Onthouden == 1) && (!(leestaanknopuit())))
    3d9e:	80 91 3c 02 	lds	r24, 0x023C	; 0x80023c <uit_Onthouden>
    3da2:	90 91 3d 02 	lds	r25, 0x023D	; 0x80023d <uit_Onthouden+0x1>

00003da6 <.Loc.481>:
    3da6:	81 30       	cpi	r24, 0x01	; 1
    3da8:	91 05       	cpc	r25, r1
    3daa:	41 f4       	brne	.+16     	; 0x3dbc <.L158>

00003dac <.Loc.482>:
    3dac:	0e 94 28 17 	call	0x2e50	; 0x2e50 <leestaanknopuit>

00003db0 <.Loc.483>:
    3db0:	00 97       	sbiw	r24, 0x00	; 0
    3db2:	21 f4       	brne	.+8      	; 0x3dbc <.L158>

00003db4 <.Loc.484>:
            {
                uit_Onthouden = 0;
    3db4:	10 92 3d 02 	sts	0x023D, r1	; 0x80023d <uit_Onthouden+0x1>
    3db8:	10 92 3c 02 	sts	0x023C, r1	; 0x80023c <uit_Onthouden>

00003dbc <.L158>:
            }
            if((leestaanknopuit()) && (aan_Onthouden == 1) && (!uitVolgen) && (uit_Onthouden == 0)){
    3dbc:	0e 94 28 17 	call	0x2e50	; 0x2e50 <leestaanknopuit>

00003dc0 <.Loc.486>:
    3dc0:	00 97       	sbiw	r24, 0x00	; 0
    3dc2:	11 f4       	brne	.+4      	; 0x3dc8 <.Loc.487>

00003dc4 <L0^A>:
    3dc4:	0c 94 b8 30 	jmp	0x6170	; 0x6170 <.L379>

00003dc8 <.Loc.487>:
    3dc8:	80 91 34 02 	lds	r24, 0x0234	; 0x800234 <aan_Onthouden>
    3dcc:	90 91 35 02 	lds	r25, 0x0235	; 0x800235 <aan_Onthouden+0x1>

00003dd0 <.Loc.488>:
    3dd0:	81 30       	cpi	r24, 0x01	; 1
    3dd2:	91 05       	cpc	r25, r1
    3dd4:	11 f0       	breq	.+4      	; 0x3dda <.Loc.489>

00003dd6 <L0^A>:
    3dd6:	0c 94 b8 30 	jmp	0x6170	; 0x6170 <.L379>

00003dda <.Loc.489>:
    3dda:	80 91 3e 02 	lds	r24, 0x023E	; 0x80023e <uitVolgen>
    3dde:	90 91 3f 02 	lds	r25, 0x023F	; 0x80023f <uitVolgen+0x1>

00003de2 <.Loc.490>:
    3de2:	00 97       	sbiw	r24, 0x00	; 0
    3de4:	11 f0       	breq	.+4      	; 0x3dea <.Loc.491>

00003de6 <L0^A>:
    3de6:	0c 94 b8 30 	jmp	0x6170	; 0x6170 <.L379>

00003dea <.Loc.491>:
    3dea:	80 91 3c 02 	lds	r24, 0x023C	; 0x80023c <uit_Onthouden>
    3dee:	90 91 3d 02 	lds	r25, 0x023D	; 0x80023d <uit_Onthouden+0x1>

00003df2 <.Loc.492>:
    3df2:	00 97       	sbiw	r24, 0x00	; 0
    3df4:	11 f0       	breq	.+4      	; 0x3dfa <L0^A+0x4>

00003df6 <L0^A>:
    3df6:	0c 94 b8 30 	jmp	0x6170	; 0x6170 <.L379>
    3dfa:	80 e0       	ldi	r24, 0x00	; 0
    3dfc:	90 e0       	ldi	r25, 0x00	; 0
    3dfe:	a0 ea       	ldi	r26, 0xA0	; 160
    3e00:	b1 e4       	ldi	r27, 0x41	; 65
    3e02:	89 ab       	std	Y+49, r24	; 0x31
    3e04:	9a ab       	std	Y+50, r25	; 0x32
    3e06:	ab ab       	std	Y+51, r26	; 0x33
    3e08:	bc ab       	std	Y+52, r27	; 0x34

00003e0a <.LBB171>:
	__tmp = ((F_CPU) / 4e3) * __ms;
    3e0a:	20 e0       	ldi	r18, 0x00	; 0
    3e0c:	30 e0       	ldi	r19, 0x00	; 0
    3e0e:	4a e7       	ldi	r20, 0x7A	; 122
    3e10:	55 e4       	ldi	r21, 0x45	; 69
    3e12:	69 a9       	ldd	r22, Y+49	; 0x31
    3e14:	7a a9       	ldd	r23, Y+50	; 0x32
    3e16:	8b a9       	ldd	r24, Y+51	; 0x33
    3e18:	9c a9       	ldd	r25, Y+52	; 0x34
    3e1a:	0e 94 a0 32 	call	0x6540	; 0x6540 <__mulsf3>
    3e1e:	c5 58       	subi	r28, 0x85	; 133
    3e20:	de 4f       	sbci	r29, 0xFE	; 254
    3e22:	68 83       	st	Y, r22
    3e24:	79 83       	std	Y+1, r23	; 0x01
    3e26:	8a 83       	std	Y+2, r24	; 0x02
    3e28:	9b 83       	std	Y+3, r25	; 0x03
    3e2a:	cb 57       	subi	r28, 0x7B	; 123
    3e2c:	d1 40       	sbci	r29, 0x01	; 1
    3e2e:	c5 58       	subi	r28, 0x85	; 133
    3e30:	de 4f       	sbci	r29, 0xFE	; 254
    3e32:	88 81       	ld	r24, Y
    3e34:	99 81       	ldd	r25, Y+1	; 0x01
    3e36:	aa 81       	ldd	r26, Y+2	; 0x02
    3e38:	bb 81       	ldd	r27, Y+3	; 0x03
    3e3a:	cb 57       	subi	r28, 0x7B	; 123
    3e3c:	d1 40       	sbci	r29, 0x01	; 1
    3e3e:	8d ab       	std	Y+53, r24	; 0x35
    3e40:	9e ab       	std	Y+54, r25	; 0x36
    3e42:	af ab       	std	Y+55, r26	; 0x37
    3e44:	b8 af       	std	Y+56, r27	; 0x38

00003e46 <.Loc.494>:
	if (__tmp < 1.0)
    3e46:	20 e0       	ldi	r18, 0x00	; 0
    3e48:	30 e0       	ldi	r19, 0x00	; 0
    3e4a:	40 e8       	ldi	r20, 0x80	; 128
    3e4c:	5f e3       	ldi	r21, 0x3F	; 63
    3e4e:	6d a9       	ldd	r22, Y+53	; 0x35
    3e50:	7e a9       	ldd	r23, Y+54	; 0x36
    3e52:	8f a9       	ldd	r24, Y+55	; 0x37
    3e54:	98 ad       	ldd	r25, Y+56	; 0x38
    3e56:	0e 94 3c 31 	call	0x6278	; 0x6278 <__cmpsf2>
    3e5a:	88 23       	and	r24, r24
    3e5c:	2c f4       	brge	.+10     	; 0x3e68 <.L348>

00003e5e <.Loc.495>:
		__ticks = 1;
    3e5e:	81 e0       	ldi	r24, 0x01	; 1
    3e60:	90 e0       	ldi	r25, 0x00	; 0
    3e62:	9a af       	std	Y+58, r25	; 0x3a
    3e64:	89 af       	std	Y+57, r24	; 0x39
    3e66:	76 c0       	rjmp	.+236    	; 0x3f54 <.L162>

00003e68 <.L348>:
	else if (__tmp > 65535)
    3e68:	20 e0       	ldi	r18, 0x00	; 0
    3e6a:	3f ef       	ldi	r19, 0xFF	; 255
    3e6c:	4f e7       	ldi	r20, 0x7F	; 127
    3e6e:	57 e4       	ldi	r21, 0x47	; 71
    3e70:	6d a9       	ldd	r22, Y+53	; 0x35
    3e72:	7e a9       	ldd	r23, Y+54	; 0x36
    3e74:	8f a9       	ldd	r24, Y+55	; 0x37
    3e76:	98 ad       	ldd	r25, Y+56	; 0x38
    3e78:	0e 94 9b 32 	call	0x6536	; 0x6536 <__gesf2>
    3e7c:	88 23       	and	r24, r24
    3e7e:	09 f0       	breq	.+2      	; 0x3e82 <L0^A>

00003e80 <L0^A>:
    3e80:	0c f4       	brge	.+2      	; 0x3e84 <.Loc.497>

00003e82 <L0^A>:
    3e82:	52 c0       	rjmp	.+164    	; 0x3f28 <.L349>

00003e84 <.Loc.497>:
		__ticks = (uint16_t) (__ms * 10.0);
    3e84:	20 e0       	ldi	r18, 0x00	; 0
    3e86:	30 e0       	ldi	r19, 0x00	; 0
    3e88:	40 e2       	ldi	r20, 0x20	; 32
    3e8a:	51 e4       	ldi	r21, 0x41	; 65
    3e8c:	69 a9       	ldd	r22, Y+49	; 0x31
    3e8e:	7a a9       	ldd	r23, Y+50	; 0x32
    3e90:	8b a9       	ldd	r24, Y+51	; 0x33
    3e92:	9c a9       	ldd	r25, Y+52	; 0x34
    3e94:	0e 94 a0 32 	call	0x6540	; 0x6540 <__mulsf3>
    3e98:	c1 58       	subi	r28, 0x81	; 129
    3e9a:	de 4f       	sbci	r29, 0xFE	; 254
    3e9c:	68 83       	st	Y, r22
    3e9e:	79 83       	std	Y+1, r23	; 0x01
    3ea0:	8a 83       	std	Y+2, r24	; 0x02
    3ea2:	9b 83       	std	Y+3, r25	; 0x03
    3ea4:	cf 57       	subi	r28, 0x7F	; 127
    3ea6:	d1 40       	sbci	r29, 0x01	; 1
    3ea8:	c1 58       	subi	r28, 0x81	; 129
    3eaa:	de 4f       	sbci	r29, 0xFE	; 254
    3eac:	88 81       	ld	r24, Y
    3eae:	99 81       	ldd	r25, Y+1	; 0x01
    3eb0:	aa 81       	ldd	r26, Y+2	; 0x02
    3eb2:	bb 81       	ldd	r27, Y+3	; 0x03
    3eb4:	cf 57       	subi	r28, 0x7F	; 127
    3eb6:	d1 40       	sbci	r29, 0x01	; 1
    3eb8:	c1 5f       	subi	r28, 0xF1	; 241
    3eba:	de 4f       	sbci	r29, 0xFE	; 254
    3ebc:	88 83       	st	Y, r24
    3ebe:	99 83       	std	Y+1, r25	; 0x01
    3ec0:	aa 83       	std	Y+2, r26	; 0x02
    3ec2:	bb 83       	std	Y+3, r27	; 0x03
    3ec4:	cf 50       	subi	r28, 0x0F	; 15
    3ec6:	d1 40       	sbci	r29, 0x01	; 1

00003ec8 <.Loc.498>:
    3ec8:	c1 5f       	subi	r28, 0xF1	; 241
    3eca:	de 4f       	sbci	r29, 0xFE	; 254
    3ecc:	68 81       	ld	r22, Y
    3ece:	79 81       	ldd	r23, Y+1	; 0x01
    3ed0:	8a 81       	ldd	r24, Y+2	; 0x02
    3ed2:	9b 81       	ldd	r25, Y+3	; 0x03
    3ed4:	cf 50       	subi	r28, 0x0F	; 15
    3ed6:	d1 40       	sbci	r29, 0x01	; 1
    3ed8:	0e 94 ba 31 	call	0x6374	; 0x6374 <__fixunssfsi>
    3edc:	cd 57       	subi	r28, 0x7D	; 125
    3ede:	de 4f       	sbci	r29, 0xFE	; 254
    3ee0:	68 83       	st	Y, r22
    3ee2:	79 83       	std	Y+1, r23	; 0x01
    3ee4:	8a 83       	std	Y+2, r24	; 0x02
    3ee6:	9b 83       	std	Y+3, r25	; 0x03
    3ee8:	c3 58       	subi	r28, 0x83	; 131
    3eea:	d1 40       	sbci	r29, 0x01	; 1
    3eec:	cd 57       	subi	r28, 0x7D	; 125
    3eee:	de 4f       	sbci	r29, 0xFE	; 254
    3ef0:	a8 81       	ld	r26, Y
    3ef2:	b9 81       	ldd	r27, Y+1	; 0x01
    3ef4:	c3 58       	subi	r28, 0x83	; 131
    3ef6:	d1 40       	sbci	r29, 0x01	; 1
    3ef8:	ba af       	std	Y+58, r27	; 0x3a
    3efa:	a9 af       	std	Y+57, r26	; 0x39

00003efc <.Loc.499>:
		while(__ticks)
    3efc:	10 c0       	rjmp	.+32     	; 0x3f1e <.L165>

00003efe <.L166>:
    3efe:	80 e9       	ldi	r24, 0x90	; 144
    3f00:	91 e0       	ldi	r25, 0x01	; 1
    3f02:	9c af       	std	Y+60, r25	; 0x3c
    3f04:	8b af       	std	Y+59, r24	; 0x3b

00003f06 <.LBB173>:
    3f06:	8b ad       	ldd	r24, Y+59	; 0x3b
    3f08:	9c ad       	ldd	r25, Y+60	; 0x3c

00003f0a <.L1^B11>:
    3f0a:	01 97       	sbiw	r24, 0x01	; 1
    3f0c:	f1 f7       	brne	.-4      	; 0x3f0a <.L1^B11>
    3f0e:	9c af       	std	Y+60, r25	; 0x3c
    3f10:	8b af       	std	Y+59, r24	; 0x3b

00003f12 <.Loc.501>:
	...

00003f14 <.LBE173>:
			__ticks --;
    3f14:	89 ad       	ldd	r24, Y+57	; 0x39
    3f16:	9a ad       	ldd	r25, Y+58	; 0x3a
    3f18:	01 97       	sbiw	r24, 0x01	; 1
    3f1a:	9a af       	std	Y+58, r25	; 0x3a
    3f1c:	89 af       	std	Y+57, r24	; 0x39

00003f1e <.L165>:
		while(__ticks)
    3f1e:	89 ad       	ldd	r24, Y+57	; 0x39
    3f20:	9a ad       	ldd	r25, Y+58	; 0x3a
    3f22:	00 97       	sbiw	r24, 0x00	; 0
    3f24:	61 f7       	brne	.-40     	; 0x3efe <.L166>

00003f26 <.Loc.504>:
		return;
    3f26:	21 c0       	rjmp	.+66     	; 0x3f6a <.L167>

00003f28 <.L349>:
		__ticks = (uint16_t)__tmp;
    3f28:	6d a9       	ldd	r22, Y+53	; 0x35
    3f2a:	7e a9       	ldd	r23, Y+54	; 0x36
    3f2c:	8f a9       	ldd	r24, Y+55	; 0x37
    3f2e:	98 ad       	ldd	r25, Y+56	; 0x38
    3f30:	0e 94 ba 31 	call	0x6374	; 0x6374 <__fixunssfsi>
    3f34:	c9 57       	subi	r28, 0x79	; 121
    3f36:	de 4f       	sbci	r29, 0xFE	; 254
    3f38:	68 83       	st	Y, r22
    3f3a:	79 83       	std	Y+1, r23	; 0x01
    3f3c:	8a 83       	std	Y+2, r24	; 0x02
    3f3e:	9b 83       	std	Y+3, r25	; 0x03
    3f40:	c7 58       	subi	r28, 0x87	; 135
    3f42:	d1 40       	sbci	r29, 0x01	; 1
    3f44:	c9 57       	subi	r28, 0x79	; 121
    3f46:	de 4f       	sbci	r29, 0xFE	; 254
    3f48:	e8 81       	ld	r30, Y
    3f4a:	f9 81       	ldd	r31, Y+1	; 0x01
    3f4c:	c7 58       	subi	r28, 0x87	; 135
    3f4e:	d1 40       	sbci	r29, 0x01	; 1
    3f50:	fa af       	std	Y+58, r31	; 0x3a
    3f52:	e9 af       	std	Y+57, r30	; 0x39

00003f54 <.L162>:
    3f54:	89 ad       	ldd	r24, Y+57	; 0x39
    3f56:	9a ad       	ldd	r25, Y+58	; 0x3a
    3f58:	9e af       	std	Y+62, r25	; 0x3e
    3f5a:	8d af       	std	Y+61, r24	; 0x3d

00003f5c <.LBB175>:
    3f5c:	8d ad       	ldd	r24, Y+61	; 0x3d
    3f5e:	9e ad       	ldd	r25, Y+62	; 0x3e

00003f60 <.L1^B12>:
    3f60:	01 97       	sbiw	r24, 0x01	; 1
    3f62:	f1 f7       	brne	.-4      	; 0x3f60 <.L1^B12>
    3f64:	9e af       	std	Y+62, r25	; 0x3e
    3f66:	8d af       	std	Y+61, r24	; 0x3d

00003f68 <.Loc.507>:
	...

00003f6a <.L167>:
                _delay_ms(20);
                aan_Onthouden = 0;
    3f6a:	10 92 35 02 	sts	0x0235, r1	; 0x800235 <aan_Onthouden+0x1>
    3f6e:	10 92 34 02 	sts	0x0234, r1	; 0x800234 <aan_Onthouden>

00003f72 <.Loc.509>:
                uit_Onthouden = 1;
    3f72:	81 e0       	ldi	r24, 0x01	; 1
    3f74:	90 e0       	ldi	r25, 0x00	; 0
    3f76:	90 93 3d 02 	sts	0x023D, r25	; 0x80023d <uit_Onthouden+0x1>
    3f7a:	80 93 3c 02 	sts	0x023C, r24	; 0x80023c <uit_Onthouden>

00003f7e <.Loc.510>:
                state = Uit;
    3f7e:	85 e0       	ldi	r24, 0x05	; 5
    3f80:	90 e0       	ldi	r25, 0x00	; 0
    3f82:	9a 83       	std	Y+2, r25	; 0x02
    3f84:	89 83       	std	Y+1, r24	; 0x01

00003f86 <.Loc.511>:
                break;
    3f86:	0c 94 c5 30 	jmp	0x618a	; 0x618a <.L116>

00003f8a <.L117>:

            break;

        case RouteCorrigeren:

            if(((PINA & (1<<PA2)) != 0) && (noodstop_Onthouden == 0)){
    3f8a:	80 e2       	ldi	r24, 0x20	; 32
    3f8c:	90 e0       	ldi	r25, 0x00	; 0
    3f8e:	dc 01       	movw	r26, r24
    3f90:	8c 91       	ld	r24, X

00003f92 <.Loc.513>:
    3f92:	88 2f       	mov	r24, r24
    3f94:	90 e0       	ldi	r25, 0x00	; 0
    3f96:	84 70       	andi	r24, 0x04	; 4
    3f98:	99 27       	eor	r25, r25

00003f9a <.Loc.514>:
    3f9a:	00 97       	sbiw	r24, 0x00	; 0
    3f9c:	09 f4       	brne	.+2      	; 0x3fa0 <.Loc.515>

00003f9e <L0^A>:
    3f9e:	1d c1       	rjmp	.+570    	; 0x41da <.L168>

00003fa0 <.Loc.515>:
    3fa0:	80 91 36 02 	lds	r24, 0x0236	; 0x800236 <noodstop_Onthouden>
    3fa4:	90 91 37 02 	lds	r25, 0x0237	; 0x800237 <noodstop_Onthouden+0x1>

00003fa8 <.Loc.516>:
    3fa8:	00 97       	sbiw	r24, 0x00	; 0
    3faa:	09 f0       	breq	.+2      	; 0x3fae <L0^A+0x2>

00003fac <L0^A>:
    3fac:	16 c1       	rjmp	.+556    	; 0x41da <.L168>
    3fae:	9e 01       	movw	r18, r28
    3fb0:	21 5c       	subi	r18, 0xC1	; 193
    3fb2:	3f 4f       	sbci	r19, 0xFF	; 255
    3fb4:	80 e0       	ldi	r24, 0x00	; 0
    3fb6:	90 e0       	ldi	r25, 0x00	; 0
    3fb8:	a0 ea       	ldi	r26, 0xA0	; 160
    3fba:	b1 e4       	ldi	r27, 0x41	; 65
    3fbc:	f9 01       	movw	r30, r18
    3fbe:	80 83       	st	Z, r24
    3fc0:	91 83       	std	Z+1, r25	; 0x01
    3fc2:	a2 83       	std	Z+2, r26	; 0x02
    3fc4:	b3 83       	std	Z+3, r27	; 0x03

00003fc6 <.LBB177>:
	__tmp = ((F_CPU) / 4e3) * __ms;
    3fc6:	8e 01       	movw	r16, r28
    3fc8:	0d 5b       	subi	r16, 0xBD	; 189
    3fca:	1f 4f       	sbci	r17, 0xFF	; 255
    3fcc:	ce 01       	movw	r24, r28
    3fce:	cf 96       	adiw	r24, 0x3f	; 63
    3fd0:	20 e0       	ldi	r18, 0x00	; 0
    3fd2:	30 e0       	ldi	r19, 0x00	; 0
    3fd4:	4a e7       	ldi	r20, 0x7A	; 122
    3fd6:	55 e4       	ldi	r21, 0x45	; 69
    3fd8:	dc 01       	movw	r26, r24
    3fda:	6d 91       	ld	r22, X+
    3fdc:	7d 91       	ld	r23, X+
    3fde:	8d 91       	ld	r24, X+
    3fe0:	9c 91       	ld	r25, X
    3fe2:	0e 94 a0 32 	call	0x6540	; 0x6540 <__mulsf3>
    3fe6:	c5 57       	subi	r28, 0x75	; 117
    3fe8:	de 4f       	sbci	r29, 0xFE	; 254
    3fea:	68 83       	st	Y, r22
    3fec:	79 83       	std	Y+1, r23	; 0x01
    3fee:	8a 83       	std	Y+2, r24	; 0x02
    3ff0:	9b 83       	std	Y+3, r25	; 0x03
    3ff2:	cb 58       	subi	r28, 0x8B	; 139
    3ff4:	d1 40       	sbci	r29, 0x01	; 1
    3ff6:	c5 57       	subi	r28, 0x75	; 117
    3ff8:	de 4f       	sbci	r29, 0xFE	; 254
    3ffa:	88 81       	ld	r24, Y
    3ffc:	99 81       	ldd	r25, Y+1	; 0x01
    3ffe:	aa 81       	ldd	r26, Y+2	; 0x02
    4000:	bb 81       	ldd	r27, Y+3	; 0x03
    4002:	cb 58       	subi	r28, 0x8B	; 139
    4004:	d1 40       	sbci	r29, 0x01	; 1
    4006:	f8 01       	movw	r30, r16
    4008:	80 83       	st	Z, r24
    400a:	91 83       	std	Z+1, r25	; 0x01
    400c:	a2 83       	std	Z+2, r26	; 0x02
    400e:	b3 83       	std	Z+3, r27	; 0x03

00004010 <.Loc.518>:
	if (__tmp < 1.0)
    4010:	ce 01       	movw	r24, r28
    4012:	8d 5b       	subi	r24, 0xBD	; 189
    4014:	9f 4f       	sbci	r25, 0xFF	; 255
    4016:	20 e0       	ldi	r18, 0x00	; 0
    4018:	30 e0       	ldi	r19, 0x00	; 0
    401a:	40 e8       	ldi	r20, 0x80	; 128
    401c:	5f e3       	ldi	r21, 0x3F	; 63
    401e:	dc 01       	movw	r26, r24
    4020:	6d 91       	ld	r22, X+
    4022:	7d 91       	ld	r23, X+
    4024:	8d 91       	ld	r24, X+
    4026:	9c 91       	ld	r25, X
    4028:	0e 94 3c 31 	call	0x6278	; 0x6278 <__cmpsf2>
    402c:	88 23       	and	r24, r24
    402e:	4c f4       	brge	.+18     	; 0x4042 <.L350>

00004030 <.Loc.519>:
		__ticks = 1;
    4030:	ce 01       	movw	r24, r28
    4032:	89 5b       	subi	r24, 0xB9	; 185
    4034:	9f 4f       	sbci	r25, 0xFF	; 255
    4036:	21 e0       	ldi	r18, 0x01	; 1
    4038:	30 e0       	ldi	r19, 0x00	; 0
    403a:	fc 01       	movw	r30, r24
    403c:	31 83       	std	Z+1, r19	; 0x01
    403e:	20 83       	st	Z, r18
    4040:	a4 c0       	rjmp	.+328    	; 0x418a <.L171>

00004042 <.L350>:
	else if (__tmp > 65535)
    4042:	ce 01       	movw	r24, r28
    4044:	8d 5b       	subi	r24, 0xBD	; 189
    4046:	9f 4f       	sbci	r25, 0xFF	; 255
    4048:	20 e0       	ldi	r18, 0x00	; 0
    404a:	3f ef       	ldi	r19, 0xFF	; 255
    404c:	4f e7       	ldi	r20, 0x7F	; 127
    404e:	57 e4       	ldi	r21, 0x47	; 71
    4050:	dc 01       	movw	r26, r24
    4052:	6d 91       	ld	r22, X+
    4054:	7d 91       	ld	r23, X+
    4056:	8d 91       	ld	r24, X+
    4058:	9c 91       	ld	r25, X
    405a:	0e 94 9b 32 	call	0x6536	; 0x6536 <__gesf2>
    405e:	88 23       	and	r24, r24
    4060:	09 f0       	breq	.+2      	; 0x4064 <L0^A>

00004062 <L0^A>:
    4062:	0c f4       	brge	.+2      	; 0x4066 <.Loc.521>

00004064 <L0^A>:
    4064:	74 c0       	rjmp	.+232    	; 0x414e <.L351>

00004066 <.Loc.521>:
		__ticks = (uint16_t) (__ms * 10.0);
    4066:	ce 01       	movw	r24, r28
    4068:	cf 96       	adiw	r24, 0x3f	; 63
    406a:	20 e0       	ldi	r18, 0x00	; 0
    406c:	30 e0       	ldi	r19, 0x00	; 0
    406e:	40 e2       	ldi	r20, 0x20	; 32
    4070:	51 e4       	ldi	r21, 0x41	; 65
    4072:	fc 01       	movw	r30, r24
    4074:	60 81       	ld	r22, Z
    4076:	71 81       	ldd	r23, Z+1	; 0x01
    4078:	82 81       	ldd	r24, Z+2	; 0x02
    407a:	93 81       	ldd	r25, Z+3	; 0x03
    407c:	0e 94 a0 32 	call	0x6540	; 0x6540 <__mulsf3>
    4080:	c1 57       	subi	r28, 0x71	; 113
    4082:	de 4f       	sbci	r29, 0xFE	; 254
    4084:	68 83       	st	Y, r22
    4086:	79 83       	std	Y+1, r23	; 0x01
    4088:	8a 83       	std	Y+2, r24	; 0x02
    408a:	9b 83       	std	Y+3, r25	; 0x03
    408c:	cf 58       	subi	r28, 0x8F	; 143
    408e:	d1 40       	sbci	r29, 0x01	; 1
    4090:	c1 57       	subi	r28, 0x71	; 113
    4092:	de 4f       	sbci	r29, 0xFE	; 254
    4094:	88 81       	ld	r24, Y
    4096:	99 81       	ldd	r25, Y+1	; 0x01
    4098:	aa 81       	ldd	r26, Y+2	; 0x02
    409a:	bb 81       	ldd	r27, Y+3	; 0x03
    409c:	cf 58       	subi	r28, 0x8F	; 143
    409e:	d1 40       	sbci	r29, 0x01	; 1
    40a0:	cd 5e       	subi	r28, 0xED	; 237
    40a2:	de 4f       	sbci	r29, 0xFE	; 254
    40a4:	88 83       	st	Y, r24
    40a6:	99 83       	std	Y+1, r25	; 0x01
    40a8:	aa 83       	std	Y+2, r26	; 0x02
    40aa:	bb 83       	std	Y+3, r27	; 0x03
    40ac:	c3 51       	subi	r28, 0x13	; 19
    40ae:	d1 40       	sbci	r29, 0x01	; 1

000040b0 <.Loc.522>:
    40b0:	8e 01       	movw	r16, r28
    40b2:	09 5b       	subi	r16, 0xB9	; 185
    40b4:	1f 4f       	sbci	r17, 0xFF	; 255
    40b6:	cd 5e       	subi	r28, 0xED	; 237
    40b8:	de 4f       	sbci	r29, 0xFE	; 254
    40ba:	68 81       	ld	r22, Y
    40bc:	79 81       	ldd	r23, Y+1	; 0x01
    40be:	8a 81       	ldd	r24, Y+2	; 0x02
    40c0:	9b 81       	ldd	r25, Y+3	; 0x03
    40c2:	c3 51       	subi	r28, 0x13	; 19
    40c4:	d1 40       	sbci	r29, 0x01	; 1
    40c6:	0e 94 ba 31 	call	0x6374	; 0x6374 <__fixunssfsi>
    40ca:	cd 56       	subi	r28, 0x6D	; 109
    40cc:	de 4f       	sbci	r29, 0xFE	; 254
    40ce:	68 83       	st	Y, r22
    40d0:	79 83       	std	Y+1, r23	; 0x01
    40d2:	8a 83       	std	Y+2, r24	; 0x02
    40d4:	9b 83       	std	Y+3, r25	; 0x03
    40d6:	c3 59       	subi	r28, 0x93	; 147
    40d8:	d1 40       	sbci	r29, 0x01	; 1
    40da:	cd 56       	subi	r28, 0x6D	; 109
    40dc:	de 4f       	sbci	r29, 0xFE	; 254
    40de:	e8 81       	ld	r30, Y
    40e0:	f9 81       	ldd	r31, Y+1	; 0x01
    40e2:	c3 59       	subi	r28, 0x93	; 147
    40e4:	d1 40       	sbci	r29, 0x01	; 1
    40e6:	d8 01       	movw	r26, r16
    40e8:	11 96       	adiw	r26, 0x01	; 1
    40ea:	fc 93       	st	X, r31
    40ec:	ee 93       	st	-X, r30

000040ee <.Loc.523>:
		while(__ticks)
    40ee:	26 c0       	rjmp	.+76     	; 0x413c <.L174>

000040f0 <.L175>:
    40f0:	ce 01       	movw	r24, r28
    40f2:	87 5b       	subi	r24, 0xB7	; 183
    40f4:	9f 4f       	sbci	r25, 0xFF	; 255
    40f6:	20 e9       	ldi	r18, 0x90	; 144
    40f8:	31 e0       	ldi	r19, 0x01	; 1
    40fa:	dc 01       	movw	r26, r24
    40fc:	2d 93       	st	X+, r18
    40fe:	3c 93       	st	X, r19

00004100 <.LBB179>:
    4100:	ce 01       	movw	r24, r28
    4102:	87 5b       	subi	r24, 0xB7	; 183
    4104:	9f 4f       	sbci	r25, 0xFF	; 255
    4106:	fc 01       	movw	r30, r24
    4108:	80 81       	ld	r24, Z
    410a:	91 81       	ldd	r25, Z+1	; 0x01

0000410c <.L1^B13>:
    410c:	01 97       	sbiw	r24, 0x01	; 1
    410e:	f1 f7       	brne	.-4      	; 0x410c <.L1^B13>
    4110:	9e 01       	movw	r18, r28
    4112:	27 5b       	subi	r18, 0xB7	; 183
    4114:	3f 4f       	sbci	r19, 0xFF	; 255
    4116:	d9 01       	movw	r26, r18
    4118:	8d 93       	st	X+, r24
    411a:	9c 93       	st	X, r25

0000411c <.Loc.525>:
	...

0000411e <.LBE179>:
			__ticks --;
    411e:	ce 01       	movw	r24, r28
    4120:	89 5b       	subi	r24, 0xB9	; 185
    4122:	9f 4f       	sbci	r25, 0xFF	; 255
    4124:	9e 01       	movw	r18, r28
    4126:	29 5b       	subi	r18, 0xB9	; 185
    4128:	3f 4f       	sbci	r19, 0xFF	; 255
    412a:	f9 01       	movw	r30, r18
    412c:	20 81       	ld	r18, Z
    412e:	31 81       	ldd	r19, Z+1	; 0x01
    4130:	21 50       	subi	r18, 0x01	; 1
    4132:	31 09       	sbc	r19, r1
    4134:	dc 01       	movw	r26, r24
    4136:	11 96       	adiw	r26, 0x01	; 1
    4138:	3c 93       	st	X, r19
    413a:	2e 93       	st	-X, r18

0000413c <.L174>:
		while(__ticks)
    413c:	ce 01       	movw	r24, r28
    413e:	89 5b       	subi	r24, 0xB9	; 185
    4140:	9f 4f       	sbci	r25, 0xFF	; 255
    4142:	fc 01       	movw	r30, r24
    4144:	80 81       	ld	r24, Z
    4146:	91 81       	ldd	r25, Z+1	; 0x01
    4148:	00 97       	sbiw	r24, 0x00	; 0
    414a:	91 f6       	brne	.-92     	; 0x40f0 <.L175>

0000414c <.Loc.528>:
		return;
    414c:	3a c0       	rjmp	.+116    	; 0x41c2 <.L176>

0000414e <.L351>:
		__ticks = (uint16_t)__tmp;
    414e:	8e 01       	movw	r16, r28
    4150:	09 5b       	subi	r16, 0xB9	; 185
    4152:	1f 4f       	sbci	r17, 0xFF	; 255
    4154:	ce 01       	movw	r24, r28
    4156:	8d 5b       	subi	r24, 0xBD	; 189
    4158:	9f 4f       	sbci	r25, 0xFF	; 255
    415a:	dc 01       	movw	r26, r24
    415c:	6d 91       	ld	r22, X+
    415e:	7d 91       	ld	r23, X+
    4160:	8d 91       	ld	r24, X+
    4162:	9c 91       	ld	r25, X
    4164:	0e 94 ba 31 	call	0x6374	; 0x6374 <__fixunssfsi>
    4168:	c9 56       	subi	r28, 0x69	; 105
    416a:	de 4f       	sbci	r29, 0xFE	; 254
    416c:	68 83       	st	Y, r22
    416e:	79 83       	std	Y+1, r23	; 0x01
    4170:	8a 83       	std	Y+2, r24	; 0x02
    4172:	9b 83       	std	Y+3, r25	; 0x03
    4174:	c7 59       	subi	r28, 0x97	; 151
    4176:	d1 40       	sbci	r29, 0x01	; 1
    4178:	c9 56       	subi	r28, 0x69	; 105
    417a:	de 4f       	sbci	r29, 0xFE	; 254
    417c:	88 81       	ld	r24, Y
    417e:	99 81       	ldd	r25, Y+1	; 0x01
    4180:	c7 59       	subi	r28, 0x97	; 151
    4182:	d1 40       	sbci	r29, 0x01	; 1
    4184:	f8 01       	movw	r30, r16
    4186:	91 83       	std	Z+1, r25	; 0x01
    4188:	80 83       	st	Z, r24

0000418a <.L171>:
    418a:	ce 01       	movw	r24, r28
    418c:	85 5b       	subi	r24, 0xB5	; 181
    418e:	9f 4f       	sbci	r25, 0xFF	; 255
    4190:	9e 01       	movw	r18, r28
    4192:	29 5b       	subi	r18, 0xB9	; 185
    4194:	3f 4f       	sbci	r19, 0xFF	; 255
    4196:	d9 01       	movw	r26, r18
    4198:	2d 91       	ld	r18, X+
    419a:	3c 91       	ld	r19, X
    419c:	fc 01       	movw	r30, r24
    419e:	31 83       	std	Z+1, r19	; 0x01
    41a0:	20 83       	st	Z, r18

000041a2 <.LBB181>:
    41a2:	ce 01       	movw	r24, r28
    41a4:	85 5b       	subi	r24, 0xB5	; 181
    41a6:	9f 4f       	sbci	r25, 0xFF	; 255
    41a8:	dc 01       	movw	r26, r24
    41aa:	8d 91       	ld	r24, X+
    41ac:	9c 91       	ld	r25, X
    41ae:	11 97       	sbiw	r26, 0x01	; 1

000041b0 <.L1^B14>:
    41b0:	01 97       	sbiw	r24, 0x01	; 1
    41b2:	f1 f7       	brne	.-4      	; 0x41b0 <.L1^B14>
    41b4:	9e 01       	movw	r18, r28
    41b6:	25 5b       	subi	r18, 0xB5	; 181
    41b8:	3f 4f       	sbci	r19, 0xFF	; 255
    41ba:	f9 01       	movw	r30, r18
    41bc:	91 83       	std	Z+1, r25	; 0x01
    41be:	80 83       	st	Z, r24

000041c0 <.Loc.531>:
	...

000041c2 <.L176>:
                _delay_ms(20);
                noodstop_Onthouden = 1;
    41c2:	81 e0       	ldi	r24, 0x01	; 1
    41c4:	90 e0       	ldi	r25, 0x00	; 0
    41c6:	90 93 37 02 	sts	0x0237, r25	; 0x800237 <noodstop_Onthouden+0x1>
    41ca:	80 93 36 02 	sts	0x0236, r24	; 0x800236 <noodstop_Onthouden>

000041ce <.Loc.533>:
                state = Noodstop;
    41ce:	84 e0       	ldi	r24, 0x04	; 4
    41d0:	90 e0       	ldi	r25, 0x00	; 0
    41d2:	9a 83       	std	Y+2, r25	; 0x02
    41d4:	89 83       	std	Y+1, r24	; 0x01

000041d6 <.Loc.534>:
                break;
    41d6:	0c 94 c5 30 	jmp	0x618a	; 0x618a <.L116>

000041da <.L168>:
            }

            if(latVerschil() > 9)
    41da:	0e 94 09 16 	call	0x2c12	; 0x2c12 <latVerschil>

000041de <.Loc.536>:
    41de:	89 30       	cpi	r24, 0x09	; 9
    41e0:	91 05       	cpc	r25, r1
    41e2:	59 f0       	breq	.+22     	; 0x41fa <.L177>
    41e4:	54 f0       	brlt	.+20     	; 0x41fa <.L177>

000041e6 <.Loc.537>:
            {
                rsnelheid(20);
    41e6:	84 e1       	ldi	r24, 0x14	; 20
    41e8:	90 e0       	ldi	r25, 0x00	; 0
    41ea:	0e 94 e6 1a 	call	0x35cc	; 0x35cc <rsnelheid>

000041ee <.Loc.538>:
                lsnelheid(5);
    41ee:	85 e0       	ldi	r24, 0x05	; 5
    41f0:	90 e0       	ldi	r25, 0x00	; 0
    41f2:	0e 94 ca 1a 	call	0x3594	; 0x3594 <lsnelheid>

000041f6 <.Loc.539>:
            {
                state = Rechtdoorrijden;
                break;
            }

            break;
    41f6:	0c 94 c5 30 	jmp	0x618a	; 0x618a <.L116>

000041fa <.L177>:
            else if(latVerschil() < -9)
    41fa:	0e 94 09 16 	call	0x2c12	; 0x2c12 <latVerschil>

000041fe <.Loc.541>:
    41fe:	87 3f       	cpi	r24, 0xF7	; 247
    4200:	ff ef       	ldi	r31, 0xFF	; 255
    4202:	9f 07       	cpc	r25, r31
    4204:	54 f4       	brge	.+20     	; 0x421a <.L179>

00004206 <.Loc.542>:
                rsnelheid(5);
    4206:	85 e0       	ldi	r24, 0x05	; 5
    4208:	90 e0       	ldi	r25, 0x00	; 0
    420a:	0e 94 e6 1a 	call	0x35cc	; 0x35cc <rsnelheid>

0000420e <.Loc.543>:
                lsnelheid(21);
    420e:	85 e1       	ldi	r24, 0x15	; 21
    4210:	90 e0       	ldi	r25, 0x00	; 0
    4212:	0e 94 ca 1a 	call	0x3594	; 0x3594 <lsnelheid>

00004216 <.Loc.544>:
            break;
    4216:	0c 94 c5 30 	jmp	0x618a	; 0x618a <.L116>

0000421a <.L179>:
                state = Rechtdoorrijden;
    421a:	1a 82       	std	Y+2, r1	; 0x02
    421c:	19 82       	std	Y+1, r1	; 0x01

0000421e <.Loc.546>:
                break;
    421e:	0c 94 c5 30 	jmp	0x618a	; 0x618a <.L116>

00004222 <.L120>:

        case Uit:
            onled(0);
    4222:	80 e0       	ldi	r24, 0x00	; 0
    4224:	90 e0       	ldi	r25, 0x00	; 0
    4226:	0e 94 98 16 	call	0x2d30	; 0x2d30 <onled>

0000422a <.Loc.548>:
            followled(0);
    422a:	80 e0       	ldi	r24, 0x00	; 0
    422c:	90 e0       	ldi	r25, 0x00	; 0
    422e:	0e 94 73 16 	call	0x2ce6	; 0x2ce6 <followled>

00004232 <.Loc.549>:
            noodstopled(0);
    4232:	80 e0       	ldi	r24, 0x00	; 0
    4234:	90 e0       	ldi	r25, 0x00	; 0
    4236:	0e 94 bd 16 	call	0x2d7a	; 0x2d7a <noodstopled>

0000423a <.Loc.550>:

            rsnelheid(0);
    423a:	80 e0       	ldi	r24, 0x00	; 0
    423c:	90 e0       	ldi	r25, 0x00	; 0
    423e:	0e 94 e6 1a 	call	0x35cc	; 0x35cc <rsnelheid>

00004242 <.Loc.551>:
            lsnelheid(0);
    4242:	80 e0       	ldi	r24, 0x00	; 0
    4244:	90 e0       	ldi	r25, 0x00	; 0
    4246:	0e 94 ca 1a 	call	0x3594	; 0x3594 <lsnelheid>

0000424a <.Loc.552>:

            lrichting(0);
    424a:	80 e0       	ldi	r24, 0x00	; 0
    424c:	90 e0       	ldi	r25, 0x00	; 0
    424e:	0e 94 93 1a 	call	0x3526	; 0x3526 <lrichting>

00004252 <.Loc.553>:
            rrichting(0);
    4252:	80 e0       	ldi	r24, 0x00	; 0
    4254:	90 e0       	ldi	r25, 0x00	; 0
    4256:	0e 94 5c 1a 	call	0x34b8	; 0x34b8 <rrichting>

0000425a <.Loc.554>:
                state = Noodstop;
                break;
            }
            */

            if((uitVolgen) && (!leestaanknopuit()))
    425a:	80 91 3e 02 	lds	r24, 0x023E	; 0x80023e <uitVolgen>
    425e:	90 91 3f 02 	lds	r25, 0x023F	; 0x80023f <uitVolgen+0x1>

00004262 <.Loc.555>:
    4262:	00 97       	sbiw	r24, 0x00	; 0
    4264:	09 f4       	brne	.+2      	; 0x4268 <.Loc.556>

00004266 <L0^A>:
    4266:	14 c1       	rjmp	.+552    	; 0x4490 <.L180>

00004268 <.Loc.556>:
    4268:	0e 94 28 17 	call	0x2e50	; 0x2e50 <leestaanknopuit>

0000426c <.Loc.557>:
    426c:	00 97       	sbiw	r24, 0x00	; 0
    426e:	09 f0       	breq	.+2      	; 0x4272 <L0^A+0x2>

00004270 <L0^A>:
    4270:	0f c1       	rjmp	.+542    	; 0x4490 <.L180>
    4272:	9e 01       	movw	r18, r28
    4274:	23 5b       	subi	r18, 0xB3	; 179
    4276:	3f 4f       	sbci	r19, 0xFF	; 255
    4278:	80 e0       	ldi	r24, 0x00	; 0
    427a:	90 e0       	ldi	r25, 0x00	; 0
    427c:	a0 ea       	ldi	r26, 0xA0	; 160
    427e:	b1 e4       	ldi	r27, 0x41	; 65
    4280:	f9 01       	movw	r30, r18
    4282:	80 83       	st	Z, r24
    4284:	91 83       	std	Z+1, r25	; 0x01
    4286:	a2 83       	std	Z+2, r26	; 0x02
    4288:	b3 83       	std	Z+3, r27	; 0x03

0000428a <.LBB183>:
	__tmp = ((F_CPU) / 4e3) * __ms;
    428a:	8e 01       	movw	r16, r28
    428c:	0f 5a       	subi	r16, 0xAF	; 175
    428e:	1f 4f       	sbci	r17, 0xFF	; 255
    4290:	ce 01       	movw	r24, r28
    4292:	83 5b       	subi	r24, 0xB3	; 179
    4294:	9f 4f       	sbci	r25, 0xFF	; 255
    4296:	20 e0       	ldi	r18, 0x00	; 0
    4298:	30 e0       	ldi	r19, 0x00	; 0
    429a:	4a e7       	ldi	r20, 0x7A	; 122
    429c:	55 e4       	ldi	r21, 0x45	; 69
    429e:	dc 01       	movw	r26, r24
    42a0:	6d 91       	ld	r22, X+
    42a2:	7d 91       	ld	r23, X+
    42a4:	8d 91       	ld	r24, X+
    42a6:	9c 91       	ld	r25, X
    42a8:	0e 94 a0 32 	call	0x6540	; 0x6540 <__mulsf3>
    42ac:	c5 56       	subi	r28, 0x65	; 101
    42ae:	de 4f       	sbci	r29, 0xFE	; 254
    42b0:	68 83       	st	Y, r22
    42b2:	79 83       	std	Y+1, r23	; 0x01
    42b4:	8a 83       	std	Y+2, r24	; 0x02
    42b6:	9b 83       	std	Y+3, r25	; 0x03
    42b8:	cb 59       	subi	r28, 0x9B	; 155
    42ba:	d1 40       	sbci	r29, 0x01	; 1
    42bc:	c5 56       	subi	r28, 0x65	; 101
    42be:	de 4f       	sbci	r29, 0xFE	; 254
    42c0:	88 81       	ld	r24, Y
    42c2:	99 81       	ldd	r25, Y+1	; 0x01
    42c4:	aa 81       	ldd	r26, Y+2	; 0x02
    42c6:	bb 81       	ldd	r27, Y+3	; 0x03
    42c8:	cb 59       	subi	r28, 0x9B	; 155
    42ca:	d1 40       	sbci	r29, 0x01	; 1
    42cc:	f8 01       	movw	r30, r16
    42ce:	80 83       	st	Z, r24
    42d0:	91 83       	std	Z+1, r25	; 0x01
    42d2:	a2 83       	std	Z+2, r26	; 0x02
    42d4:	b3 83       	std	Z+3, r27	; 0x03

000042d6 <.Loc.559>:
	if (__tmp < 1.0)
    42d6:	ce 01       	movw	r24, r28
    42d8:	8f 5a       	subi	r24, 0xAF	; 175
    42da:	9f 4f       	sbci	r25, 0xFF	; 255
    42dc:	20 e0       	ldi	r18, 0x00	; 0
    42de:	30 e0       	ldi	r19, 0x00	; 0
    42e0:	40 e8       	ldi	r20, 0x80	; 128
    42e2:	5f e3       	ldi	r21, 0x3F	; 63
    42e4:	dc 01       	movw	r26, r24
    42e6:	6d 91       	ld	r22, X+
    42e8:	7d 91       	ld	r23, X+
    42ea:	8d 91       	ld	r24, X+
    42ec:	9c 91       	ld	r25, X
    42ee:	0e 94 3c 31 	call	0x6278	; 0x6278 <__cmpsf2>
    42f2:	88 23       	and	r24, r24
    42f4:	4c f4       	brge	.+18     	; 0x4308 <.L352>

000042f6 <.Loc.560>:
		__ticks = 1;
    42f6:	ce 01       	movw	r24, r28
    42f8:	8b 5a       	subi	r24, 0xAB	; 171
    42fa:	9f 4f       	sbci	r25, 0xFF	; 255
    42fc:	21 e0       	ldi	r18, 0x01	; 1
    42fe:	30 e0       	ldi	r19, 0x00	; 0
    4300:	fc 01       	movw	r30, r24
    4302:	31 83       	std	Z+1, r19	; 0x01
    4304:	20 83       	st	Z, r18
    4306:	a5 c0       	rjmp	.+330    	; 0x4452 <.L183>

00004308 <.L352>:
	else if (__tmp > 65535)
    4308:	ce 01       	movw	r24, r28
    430a:	8f 5a       	subi	r24, 0xAF	; 175
    430c:	9f 4f       	sbci	r25, 0xFF	; 255
    430e:	20 e0       	ldi	r18, 0x00	; 0
    4310:	3f ef       	ldi	r19, 0xFF	; 255
    4312:	4f e7       	ldi	r20, 0x7F	; 127
    4314:	57 e4       	ldi	r21, 0x47	; 71
    4316:	dc 01       	movw	r26, r24
    4318:	6d 91       	ld	r22, X+
    431a:	7d 91       	ld	r23, X+
    431c:	8d 91       	ld	r24, X+
    431e:	9c 91       	ld	r25, X
    4320:	0e 94 9b 32 	call	0x6536	; 0x6536 <__gesf2>
    4324:	88 23       	and	r24, r24
    4326:	09 f0       	breq	.+2      	; 0x432a <L0^A>

00004328 <L0^A>:
    4328:	0c f4       	brge	.+2      	; 0x432c <.Loc.562>

0000432a <L0^A>:
    432a:	75 c0       	rjmp	.+234    	; 0x4416 <.L353>

0000432c <.Loc.562>:
		__ticks = (uint16_t) (__ms * 10.0);
    432c:	ce 01       	movw	r24, r28
    432e:	83 5b       	subi	r24, 0xB3	; 179
    4330:	9f 4f       	sbci	r25, 0xFF	; 255
    4332:	20 e0       	ldi	r18, 0x00	; 0
    4334:	30 e0       	ldi	r19, 0x00	; 0
    4336:	40 e2       	ldi	r20, 0x20	; 32
    4338:	51 e4       	ldi	r21, 0x41	; 65
    433a:	fc 01       	movw	r30, r24
    433c:	60 81       	ld	r22, Z
    433e:	71 81       	ldd	r23, Z+1	; 0x01
    4340:	82 81       	ldd	r24, Z+2	; 0x02
    4342:	93 81       	ldd	r25, Z+3	; 0x03
    4344:	0e 94 a0 32 	call	0x6540	; 0x6540 <__mulsf3>
    4348:	c1 56       	subi	r28, 0x61	; 97
    434a:	de 4f       	sbci	r29, 0xFE	; 254
    434c:	68 83       	st	Y, r22
    434e:	79 83       	std	Y+1, r23	; 0x01
    4350:	8a 83       	std	Y+2, r24	; 0x02
    4352:	9b 83       	std	Y+3, r25	; 0x03
    4354:	cf 59       	subi	r28, 0x9F	; 159
    4356:	d1 40       	sbci	r29, 0x01	; 1
    4358:	c1 56       	subi	r28, 0x61	; 97
    435a:	de 4f       	sbci	r29, 0xFE	; 254
    435c:	88 81       	ld	r24, Y
    435e:	99 81       	ldd	r25, Y+1	; 0x01
    4360:	aa 81       	ldd	r26, Y+2	; 0x02
    4362:	bb 81       	ldd	r27, Y+3	; 0x03
    4364:	cf 59       	subi	r28, 0x9F	; 159
    4366:	d1 40       	sbci	r29, 0x01	; 1
    4368:	c9 5e       	subi	r28, 0xE9	; 233
    436a:	de 4f       	sbci	r29, 0xFE	; 254
    436c:	88 83       	st	Y, r24
    436e:	99 83       	std	Y+1, r25	; 0x01
    4370:	aa 83       	std	Y+2, r26	; 0x02
    4372:	bb 83       	std	Y+3, r27	; 0x03
    4374:	c7 51       	subi	r28, 0x17	; 23
    4376:	d1 40       	sbci	r29, 0x01	; 1

00004378 <.Loc.563>:
    4378:	8e 01       	movw	r16, r28
    437a:	0b 5a       	subi	r16, 0xAB	; 171
    437c:	1f 4f       	sbci	r17, 0xFF	; 255
    437e:	c9 5e       	subi	r28, 0xE9	; 233
    4380:	de 4f       	sbci	r29, 0xFE	; 254
    4382:	68 81       	ld	r22, Y
    4384:	79 81       	ldd	r23, Y+1	; 0x01
    4386:	8a 81       	ldd	r24, Y+2	; 0x02
    4388:	9b 81       	ldd	r25, Y+3	; 0x03
    438a:	c7 51       	subi	r28, 0x17	; 23
    438c:	d1 40       	sbci	r29, 0x01	; 1
    438e:	0e 94 ba 31 	call	0x6374	; 0x6374 <__fixunssfsi>
    4392:	cd 55       	subi	r28, 0x5D	; 93
    4394:	de 4f       	sbci	r29, 0xFE	; 254
    4396:	68 83       	st	Y, r22
    4398:	79 83       	std	Y+1, r23	; 0x01
    439a:	8a 83       	std	Y+2, r24	; 0x02
    439c:	9b 83       	std	Y+3, r25	; 0x03
    439e:	c3 5a       	subi	r28, 0xA3	; 163
    43a0:	d1 40       	sbci	r29, 0x01	; 1
    43a2:	cd 55       	subi	r28, 0x5D	; 93
    43a4:	de 4f       	sbci	r29, 0xFE	; 254
    43a6:	e8 81       	ld	r30, Y
    43a8:	f9 81       	ldd	r31, Y+1	; 0x01
    43aa:	c3 5a       	subi	r28, 0xA3	; 163
    43ac:	d1 40       	sbci	r29, 0x01	; 1
    43ae:	d8 01       	movw	r26, r16
    43b0:	11 96       	adiw	r26, 0x01	; 1
    43b2:	fc 93       	st	X, r31
    43b4:	ee 93       	st	-X, r30

000043b6 <.Loc.564>:
		while(__ticks)
    43b6:	26 c0       	rjmp	.+76     	; 0x4404 <.L186>

000043b8 <.L187>:
    43b8:	ce 01       	movw	r24, r28
    43ba:	89 5a       	subi	r24, 0xA9	; 169
    43bc:	9f 4f       	sbci	r25, 0xFF	; 255
    43be:	20 e9       	ldi	r18, 0x90	; 144
    43c0:	31 e0       	ldi	r19, 0x01	; 1
    43c2:	dc 01       	movw	r26, r24
    43c4:	2d 93       	st	X+, r18
    43c6:	3c 93       	st	X, r19

000043c8 <.LBB185>:
    43c8:	ce 01       	movw	r24, r28
    43ca:	89 5a       	subi	r24, 0xA9	; 169
    43cc:	9f 4f       	sbci	r25, 0xFF	; 255
    43ce:	fc 01       	movw	r30, r24
    43d0:	80 81       	ld	r24, Z
    43d2:	91 81       	ldd	r25, Z+1	; 0x01

000043d4 <.L1^B15>:
    43d4:	01 97       	sbiw	r24, 0x01	; 1
    43d6:	f1 f7       	brne	.-4      	; 0x43d4 <.L1^B15>
    43d8:	9e 01       	movw	r18, r28
    43da:	29 5a       	subi	r18, 0xA9	; 169
    43dc:	3f 4f       	sbci	r19, 0xFF	; 255
    43de:	d9 01       	movw	r26, r18
    43e0:	8d 93       	st	X+, r24
    43e2:	9c 93       	st	X, r25

000043e4 <.Loc.566>:
	...

000043e6 <.LBE185>:
			__ticks --;
    43e6:	ce 01       	movw	r24, r28
    43e8:	8b 5a       	subi	r24, 0xAB	; 171
    43ea:	9f 4f       	sbci	r25, 0xFF	; 255
    43ec:	9e 01       	movw	r18, r28
    43ee:	2b 5a       	subi	r18, 0xAB	; 171
    43f0:	3f 4f       	sbci	r19, 0xFF	; 255
    43f2:	f9 01       	movw	r30, r18
    43f4:	20 81       	ld	r18, Z
    43f6:	31 81       	ldd	r19, Z+1	; 0x01
    43f8:	21 50       	subi	r18, 0x01	; 1
    43fa:	31 09       	sbc	r19, r1
    43fc:	dc 01       	movw	r26, r24
    43fe:	11 96       	adiw	r26, 0x01	; 1
    4400:	3c 93       	st	X, r19
    4402:	2e 93       	st	-X, r18

00004404 <.L186>:
		while(__ticks)
    4404:	ce 01       	movw	r24, r28
    4406:	8b 5a       	subi	r24, 0xAB	; 171
    4408:	9f 4f       	sbci	r25, 0xFF	; 255
    440a:	fc 01       	movw	r30, r24
    440c:	80 81       	ld	r24, Z
    440e:	91 81       	ldd	r25, Z+1	; 0x01
    4410:	00 97       	sbiw	r24, 0x00	; 0
    4412:	91 f6       	brne	.-92     	; 0x43b8 <.L187>

00004414 <.Loc.569>:
		return;
    4414:	39 c0       	rjmp	.+114    	; 0x4488 <.L188>

00004416 <.L353>:
		__ticks = (uint16_t)__tmp;
    4416:	8e 01       	movw	r16, r28
    4418:	0b 5a       	subi	r16, 0xAB	; 171
    441a:	1f 4f       	sbci	r17, 0xFF	; 255
    441c:	ce 01       	movw	r24, r28
    441e:	8f 5a       	subi	r24, 0xAF	; 175
    4420:	9f 4f       	sbci	r25, 0xFF	; 255
    4422:	dc 01       	movw	r26, r24
    4424:	6d 91       	ld	r22, X+
    4426:	7d 91       	ld	r23, X+
    4428:	8d 91       	ld	r24, X+
    442a:	9c 91       	ld	r25, X
    442c:	0e 94 ba 31 	call	0x6374	; 0x6374 <__fixunssfsi>
    4430:	c9 55       	subi	r28, 0x59	; 89
    4432:	de 4f       	sbci	r29, 0xFE	; 254
    4434:	68 83       	st	Y, r22
    4436:	79 83       	std	Y+1, r23	; 0x01
    4438:	8a 83       	std	Y+2, r24	; 0x02
    443a:	9b 83       	std	Y+3, r25	; 0x03
    443c:	c7 5a       	subi	r28, 0xA7	; 167
    443e:	d1 40       	sbci	r29, 0x01	; 1
    4440:	c9 55       	subi	r28, 0x59	; 89
    4442:	de 4f       	sbci	r29, 0xFE	; 254
    4444:	88 81       	ld	r24, Y
    4446:	99 81       	ldd	r25, Y+1	; 0x01
    4448:	c7 5a       	subi	r28, 0xA7	; 167
    444a:	d1 40       	sbci	r29, 0x01	; 1
    444c:	f8 01       	movw	r30, r16
    444e:	91 83       	std	Z+1, r25	; 0x01
    4450:	80 83       	st	Z, r24

00004452 <.L183>:
    4452:	ce 01       	movw	r24, r28
    4454:	87 5a       	subi	r24, 0xA7	; 167
    4456:	9f 4f       	sbci	r25, 0xFF	; 255
    4458:	9e 01       	movw	r18, r28
    445a:	2b 5a       	subi	r18, 0xAB	; 171
    445c:	3f 4f       	sbci	r19, 0xFF	; 255
    445e:	d9 01       	movw	r26, r18
    4460:	2d 91       	ld	r18, X+
    4462:	3c 91       	ld	r19, X
    4464:	fc 01       	movw	r30, r24
    4466:	31 83       	std	Z+1, r19	; 0x01
    4468:	20 83       	st	Z, r18

0000446a <.LBB187>:
    446a:	ce 01       	movw	r24, r28
    446c:	87 5a       	subi	r24, 0xA7	; 167
    446e:	9f 4f       	sbci	r25, 0xFF	; 255
    4470:	dc 01       	movw	r26, r24
    4472:	8d 91       	ld	r24, X+
    4474:	9c 91       	ld	r25, X

00004476 <.L1^B16>:
    4476:	01 97       	sbiw	r24, 0x01	; 1
    4478:	f1 f7       	brne	.-4      	; 0x4476 <.L1^B16>
    447a:	9e 01       	movw	r18, r28
    447c:	27 5a       	subi	r18, 0xA7	; 167
    447e:	3f 4f       	sbci	r19, 0xFF	; 255
    4480:	f9 01       	movw	r30, r18
    4482:	91 83       	std	Z+1, r25	; 0x01
    4484:	80 83       	st	Z, r24

00004486 <.Loc.572>:
	...

00004488 <.L188>:
            {
                _delay_ms(20);
                uitVolgen = 0;
    4488:	10 92 3f 02 	sts	0x023F, r1	; 0x80023f <uitVolgen+0x1>
    448c:	10 92 3e 02 	sts	0x023E, r1	; 0x80023e <uitVolgen>

00004490 <.L180>:
            }

            if(!(leestaanknopuit()) && (uit_Onthouden))
    4490:	0e 94 28 17 	call	0x2e50	; 0x2e50 <leestaanknopuit>

00004494 <.Loc.575>:
    4494:	00 97       	sbiw	r24, 0x00	; 0
    4496:	09 f0       	breq	.+2      	; 0x449a <.Loc.576>

00004498 <L0^A>:
    4498:	16 c1       	rjmp	.+556    	; 0x46c6 <.L189>

0000449a <.Loc.576>:
    449a:	80 91 3c 02 	lds	r24, 0x023C	; 0x80023c <uit_Onthouden>
    449e:	90 91 3d 02 	lds	r25, 0x023D	; 0x80023d <uit_Onthouden+0x1>
    44a2:	00 97       	sbiw	r24, 0x00	; 0
    44a4:	09 f4       	brne	.+2      	; 0x44a8 <L0^A+0x2>

000044a6 <L0^A>:
    44a6:	0f c1       	rjmp	.+542    	; 0x46c6 <.L189>
    44a8:	9e 01       	movw	r18, r28
    44aa:	25 5a       	subi	r18, 0xA5	; 165
    44ac:	3f 4f       	sbci	r19, 0xFF	; 255
    44ae:	80 e0       	ldi	r24, 0x00	; 0
    44b0:	90 e0       	ldi	r25, 0x00	; 0
    44b2:	a0 ea       	ldi	r26, 0xA0	; 160
    44b4:	b1 e4       	ldi	r27, 0x41	; 65
    44b6:	f9 01       	movw	r30, r18
    44b8:	80 83       	st	Z, r24
    44ba:	91 83       	std	Z+1, r25	; 0x01
    44bc:	a2 83       	std	Z+2, r26	; 0x02
    44be:	b3 83       	std	Z+3, r27	; 0x03

000044c0 <.LBB189>:
	__tmp = ((F_CPU) / 4e3) * __ms;
    44c0:	8e 01       	movw	r16, r28
    44c2:	01 5a       	subi	r16, 0xA1	; 161
    44c4:	1f 4f       	sbci	r17, 0xFF	; 255
    44c6:	ce 01       	movw	r24, r28
    44c8:	85 5a       	subi	r24, 0xA5	; 165
    44ca:	9f 4f       	sbci	r25, 0xFF	; 255
    44cc:	20 e0       	ldi	r18, 0x00	; 0
    44ce:	30 e0       	ldi	r19, 0x00	; 0
    44d0:	4a e7       	ldi	r20, 0x7A	; 122
    44d2:	55 e4       	ldi	r21, 0x45	; 69
    44d4:	dc 01       	movw	r26, r24
    44d6:	6d 91       	ld	r22, X+
    44d8:	7d 91       	ld	r23, X+
    44da:	8d 91       	ld	r24, X+
    44dc:	9c 91       	ld	r25, X
    44de:	0e 94 a0 32 	call	0x6540	; 0x6540 <__mulsf3>
    44e2:	c5 55       	subi	r28, 0x55	; 85
    44e4:	de 4f       	sbci	r29, 0xFE	; 254
    44e6:	68 83       	st	Y, r22
    44e8:	79 83       	std	Y+1, r23	; 0x01
    44ea:	8a 83       	std	Y+2, r24	; 0x02
    44ec:	9b 83       	std	Y+3, r25	; 0x03
    44ee:	cb 5a       	subi	r28, 0xAB	; 171
    44f0:	d1 40       	sbci	r29, 0x01	; 1
    44f2:	c5 55       	subi	r28, 0x55	; 85
    44f4:	de 4f       	sbci	r29, 0xFE	; 254
    44f6:	88 81       	ld	r24, Y
    44f8:	99 81       	ldd	r25, Y+1	; 0x01
    44fa:	aa 81       	ldd	r26, Y+2	; 0x02
    44fc:	bb 81       	ldd	r27, Y+3	; 0x03
    44fe:	cb 5a       	subi	r28, 0xAB	; 171
    4500:	d1 40       	sbci	r29, 0x01	; 1
    4502:	f8 01       	movw	r30, r16
    4504:	80 83       	st	Z, r24
    4506:	91 83       	std	Z+1, r25	; 0x01
    4508:	a2 83       	std	Z+2, r26	; 0x02
    450a:	b3 83       	std	Z+3, r27	; 0x03

0000450c <.Loc.578>:
	if (__tmp < 1.0)
    450c:	ce 01       	movw	r24, r28
    450e:	81 5a       	subi	r24, 0xA1	; 161
    4510:	9f 4f       	sbci	r25, 0xFF	; 255
    4512:	20 e0       	ldi	r18, 0x00	; 0
    4514:	30 e0       	ldi	r19, 0x00	; 0
    4516:	40 e8       	ldi	r20, 0x80	; 128
    4518:	5f e3       	ldi	r21, 0x3F	; 63
    451a:	dc 01       	movw	r26, r24
    451c:	6d 91       	ld	r22, X+
    451e:	7d 91       	ld	r23, X+
    4520:	8d 91       	ld	r24, X+
    4522:	9c 91       	ld	r25, X
    4524:	0e 94 3c 31 	call	0x6278	; 0x6278 <__cmpsf2>
    4528:	88 23       	and	r24, r24
    452a:	4c f4       	brge	.+18     	; 0x453e <.L354>

0000452c <.Loc.579>:
		__ticks = 1;
    452c:	ce 01       	movw	r24, r28
    452e:	8d 59       	subi	r24, 0x9D	; 157
    4530:	9f 4f       	sbci	r25, 0xFF	; 255
    4532:	21 e0       	ldi	r18, 0x01	; 1
    4534:	30 e0       	ldi	r19, 0x00	; 0
    4536:	fc 01       	movw	r30, r24
    4538:	31 83       	std	Z+1, r19	; 0x01
    453a:	20 83       	st	Z, r18
    453c:	a5 c0       	rjmp	.+330    	; 0x4688 <.L192>

0000453e <.L354>:
	else if (__tmp > 65535)
    453e:	ce 01       	movw	r24, r28
    4540:	81 5a       	subi	r24, 0xA1	; 161
    4542:	9f 4f       	sbci	r25, 0xFF	; 255
    4544:	20 e0       	ldi	r18, 0x00	; 0
    4546:	3f ef       	ldi	r19, 0xFF	; 255
    4548:	4f e7       	ldi	r20, 0x7F	; 127
    454a:	57 e4       	ldi	r21, 0x47	; 71
    454c:	dc 01       	movw	r26, r24
    454e:	6d 91       	ld	r22, X+
    4550:	7d 91       	ld	r23, X+
    4552:	8d 91       	ld	r24, X+
    4554:	9c 91       	ld	r25, X
    4556:	0e 94 9b 32 	call	0x6536	; 0x6536 <__gesf2>
    455a:	88 23       	and	r24, r24
    455c:	09 f0       	breq	.+2      	; 0x4560 <L0^A>

0000455e <L0^A>:
    455e:	0c f4       	brge	.+2      	; 0x4562 <.Loc.581>

00004560 <L0^A>:
    4560:	75 c0       	rjmp	.+234    	; 0x464c <.L355>

00004562 <.Loc.581>:
		__ticks = (uint16_t) (__ms * 10.0);
    4562:	ce 01       	movw	r24, r28
    4564:	85 5a       	subi	r24, 0xA5	; 165
    4566:	9f 4f       	sbci	r25, 0xFF	; 255
    4568:	20 e0       	ldi	r18, 0x00	; 0
    456a:	30 e0       	ldi	r19, 0x00	; 0
    456c:	40 e2       	ldi	r20, 0x20	; 32
    456e:	51 e4       	ldi	r21, 0x41	; 65
    4570:	fc 01       	movw	r30, r24
    4572:	60 81       	ld	r22, Z
    4574:	71 81       	ldd	r23, Z+1	; 0x01
    4576:	82 81       	ldd	r24, Z+2	; 0x02
    4578:	93 81       	ldd	r25, Z+3	; 0x03
    457a:	0e 94 a0 32 	call	0x6540	; 0x6540 <__mulsf3>
    457e:	c1 55       	subi	r28, 0x51	; 81
    4580:	de 4f       	sbci	r29, 0xFE	; 254
    4582:	68 83       	st	Y, r22
    4584:	79 83       	std	Y+1, r23	; 0x01
    4586:	8a 83       	std	Y+2, r24	; 0x02
    4588:	9b 83       	std	Y+3, r25	; 0x03
    458a:	cf 5a       	subi	r28, 0xAF	; 175
    458c:	d1 40       	sbci	r29, 0x01	; 1
    458e:	c1 55       	subi	r28, 0x51	; 81
    4590:	de 4f       	sbci	r29, 0xFE	; 254
    4592:	88 81       	ld	r24, Y
    4594:	99 81       	ldd	r25, Y+1	; 0x01
    4596:	aa 81       	ldd	r26, Y+2	; 0x02
    4598:	bb 81       	ldd	r27, Y+3	; 0x03
    459a:	cf 5a       	subi	r28, 0xAF	; 175
    459c:	d1 40       	sbci	r29, 0x01	; 1
    459e:	c5 5e       	subi	r28, 0xE5	; 229
    45a0:	de 4f       	sbci	r29, 0xFE	; 254
    45a2:	88 83       	st	Y, r24
    45a4:	99 83       	std	Y+1, r25	; 0x01
    45a6:	aa 83       	std	Y+2, r26	; 0x02
    45a8:	bb 83       	std	Y+3, r27	; 0x03
    45aa:	cb 51       	subi	r28, 0x1B	; 27
    45ac:	d1 40       	sbci	r29, 0x01	; 1

000045ae <.Loc.582>:
    45ae:	8e 01       	movw	r16, r28
    45b0:	0d 59       	subi	r16, 0x9D	; 157
    45b2:	1f 4f       	sbci	r17, 0xFF	; 255
    45b4:	c5 5e       	subi	r28, 0xE5	; 229
    45b6:	de 4f       	sbci	r29, 0xFE	; 254
    45b8:	68 81       	ld	r22, Y
    45ba:	79 81       	ldd	r23, Y+1	; 0x01
    45bc:	8a 81       	ldd	r24, Y+2	; 0x02
    45be:	9b 81       	ldd	r25, Y+3	; 0x03
    45c0:	cb 51       	subi	r28, 0x1B	; 27
    45c2:	d1 40       	sbci	r29, 0x01	; 1
    45c4:	0e 94 ba 31 	call	0x6374	; 0x6374 <__fixunssfsi>
    45c8:	cd 54       	subi	r28, 0x4D	; 77
    45ca:	de 4f       	sbci	r29, 0xFE	; 254
    45cc:	68 83       	st	Y, r22
    45ce:	79 83       	std	Y+1, r23	; 0x01
    45d0:	8a 83       	std	Y+2, r24	; 0x02
    45d2:	9b 83       	std	Y+3, r25	; 0x03
    45d4:	c3 5b       	subi	r28, 0xB3	; 179
    45d6:	d1 40       	sbci	r29, 0x01	; 1
    45d8:	cd 54       	subi	r28, 0x4D	; 77
    45da:	de 4f       	sbci	r29, 0xFE	; 254
    45dc:	e8 81       	ld	r30, Y
    45de:	f9 81       	ldd	r31, Y+1	; 0x01
    45e0:	c3 5b       	subi	r28, 0xB3	; 179
    45e2:	d1 40       	sbci	r29, 0x01	; 1
    45e4:	d8 01       	movw	r26, r16
    45e6:	11 96       	adiw	r26, 0x01	; 1
    45e8:	fc 93       	st	X, r31
    45ea:	ee 93       	st	-X, r30

000045ec <.Loc.583>:
		while(__ticks)
    45ec:	26 c0       	rjmp	.+76     	; 0x463a <.L195>

000045ee <.L196>:
    45ee:	ce 01       	movw	r24, r28
    45f0:	8b 59       	subi	r24, 0x9B	; 155
    45f2:	9f 4f       	sbci	r25, 0xFF	; 255
    45f4:	20 e9       	ldi	r18, 0x90	; 144
    45f6:	31 e0       	ldi	r19, 0x01	; 1
    45f8:	dc 01       	movw	r26, r24
    45fa:	2d 93       	st	X+, r18
    45fc:	3c 93       	st	X, r19

000045fe <.LBB191>:
    45fe:	ce 01       	movw	r24, r28
    4600:	8b 59       	subi	r24, 0x9B	; 155
    4602:	9f 4f       	sbci	r25, 0xFF	; 255
    4604:	fc 01       	movw	r30, r24
    4606:	80 81       	ld	r24, Z
    4608:	91 81       	ldd	r25, Z+1	; 0x01

0000460a <.L1^B17>:
    460a:	01 97       	sbiw	r24, 0x01	; 1
    460c:	f1 f7       	brne	.-4      	; 0x460a <.L1^B17>
    460e:	9e 01       	movw	r18, r28
    4610:	2b 59       	subi	r18, 0x9B	; 155
    4612:	3f 4f       	sbci	r19, 0xFF	; 255
    4614:	d9 01       	movw	r26, r18
    4616:	8d 93       	st	X+, r24
    4618:	9c 93       	st	X, r25

0000461a <.Loc.585>:
	...

0000461c <.LBE191>:
			__ticks --;
    461c:	ce 01       	movw	r24, r28
    461e:	8d 59       	subi	r24, 0x9D	; 157
    4620:	9f 4f       	sbci	r25, 0xFF	; 255
    4622:	9e 01       	movw	r18, r28
    4624:	2d 59       	subi	r18, 0x9D	; 157
    4626:	3f 4f       	sbci	r19, 0xFF	; 255
    4628:	f9 01       	movw	r30, r18
    462a:	20 81       	ld	r18, Z
    462c:	31 81       	ldd	r19, Z+1	; 0x01
    462e:	21 50       	subi	r18, 0x01	; 1
    4630:	31 09       	sbc	r19, r1
    4632:	dc 01       	movw	r26, r24
    4634:	11 96       	adiw	r26, 0x01	; 1
    4636:	3c 93       	st	X, r19
    4638:	2e 93       	st	-X, r18

0000463a <.L195>:
		while(__ticks)
    463a:	ce 01       	movw	r24, r28
    463c:	8d 59       	subi	r24, 0x9D	; 157
    463e:	9f 4f       	sbci	r25, 0xFF	; 255
    4640:	fc 01       	movw	r30, r24
    4642:	80 81       	ld	r24, Z
    4644:	91 81       	ldd	r25, Z+1	; 0x01
    4646:	00 97       	sbiw	r24, 0x00	; 0
    4648:	91 f6       	brne	.-92     	; 0x45ee <.L196>

0000464a <.Loc.588>:
		return;
    464a:	39 c0       	rjmp	.+114    	; 0x46be <.L197>

0000464c <.L355>:
		__ticks = (uint16_t)__tmp;
    464c:	8e 01       	movw	r16, r28
    464e:	0d 59       	subi	r16, 0x9D	; 157
    4650:	1f 4f       	sbci	r17, 0xFF	; 255
    4652:	ce 01       	movw	r24, r28
    4654:	81 5a       	subi	r24, 0xA1	; 161
    4656:	9f 4f       	sbci	r25, 0xFF	; 255
    4658:	dc 01       	movw	r26, r24
    465a:	6d 91       	ld	r22, X+
    465c:	7d 91       	ld	r23, X+
    465e:	8d 91       	ld	r24, X+
    4660:	9c 91       	ld	r25, X
    4662:	0e 94 ba 31 	call	0x6374	; 0x6374 <__fixunssfsi>
    4666:	c9 54       	subi	r28, 0x49	; 73
    4668:	de 4f       	sbci	r29, 0xFE	; 254
    466a:	68 83       	st	Y, r22
    466c:	79 83       	std	Y+1, r23	; 0x01
    466e:	8a 83       	std	Y+2, r24	; 0x02
    4670:	9b 83       	std	Y+3, r25	; 0x03
    4672:	c7 5b       	subi	r28, 0xB7	; 183
    4674:	d1 40       	sbci	r29, 0x01	; 1
    4676:	c9 54       	subi	r28, 0x49	; 73
    4678:	de 4f       	sbci	r29, 0xFE	; 254
    467a:	88 81       	ld	r24, Y
    467c:	99 81       	ldd	r25, Y+1	; 0x01
    467e:	c7 5b       	subi	r28, 0xB7	; 183
    4680:	d1 40       	sbci	r29, 0x01	; 1
    4682:	f8 01       	movw	r30, r16
    4684:	91 83       	std	Z+1, r25	; 0x01
    4686:	80 83       	st	Z, r24

00004688 <.L192>:
    4688:	ce 01       	movw	r24, r28
    468a:	89 59       	subi	r24, 0x99	; 153
    468c:	9f 4f       	sbci	r25, 0xFF	; 255
    468e:	9e 01       	movw	r18, r28
    4690:	2d 59       	subi	r18, 0x9D	; 157
    4692:	3f 4f       	sbci	r19, 0xFF	; 255
    4694:	d9 01       	movw	r26, r18
    4696:	2d 91       	ld	r18, X+
    4698:	3c 91       	ld	r19, X
    469a:	fc 01       	movw	r30, r24
    469c:	31 83       	std	Z+1, r19	; 0x01
    469e:	20 83       	st	Z, r18

000046a0 <.LBB193>:
    46a0:	ce 01       	movw	r24, r28
    46a2:	89 59       	subi	r24, 0x99	; 153
    46a4:	9f 4f       	sbci	r25, 0xFF	; 255
    46a6:	dc 01       	movw	r26, r24
    46a8:	8d 91       	ld	r24, X+
    46aa:	9c 91       	ld	r25, X

000046ac <.L1^B18>:
    46ac:	01 97       	sbiw	r24, 0x01	; 1
    46ae:	f1 f7       	brne	.-4      	; 0x46ac <.L1^B18>
    46b0:	9e 01       	movw	r18, r28
    46b2:	29 59       	subi	r18, 0x99	; 153
    46b4:	3f 4f       	sbci	r19, 0xFF	; 255
    46b6:	f9 01       	movw	r30, r18
    46b8:	91 83       	std	Z+1, r25	; 0x01
    46ba:	80 83       	st	Z, r24

000046bc <.Loc.591>:
	...

000046be <.L197>:
            {
                _delay_ms(20);
                uit_Onthouden = 0;
    46be:	10 92 3d 02 	sts	0x023D, r1	; 0x80023d <uit_Onthouden+0x1>
    46c2:	10 92 3c 02 	sts	0x023C, r1	; 0x80023c <uit_Onthouden>

000046c6 <.L189>:
            }

            if((leestaanknopuit()) && (aan_Onthouden == 0) && (!uitVolgen) && (!uit_Onthouden)){
    46c6:	0e 94 28 17 	call	0x2e50	; 0x2e50 <leestaanknopuit>

000046ca <.Loc.594>:
    46ca:	00 97       	sbiw	r24, 0x00	; 0
    46cc:	09 f4       	brne	.+2      	; 0x46d0 <.Loc.595>

000046ce <L0^A>:
    46ce:	31 c1       	rjmp	.+610    	; 0x4932 <.L198>

000046d0 <.Loc.595>:
    46d0:	80 91 34 02 	lds	r24, 0x0234	; 0x800234 <aan_Onthouden>
    46d4:	90 91 35 02 	lds	r25, 0x0235	; 0x800235 <aan_Onthouden+0x1>

000046d8 <.Loc.596>:
    46d8:	00 97       	sbiw	r24, 0x00	; 0
    46da:	09 f0       	breq	.+2      	; 0x46de <.Loc.597>

000046dc <L0^A>:
    46dc:	2a c1       	rjmp	.+596    	; 0x4932 <.L198>

000046de <.Loc.597>:
    46de:	80 91 3e 02 	lds	r24, 0x023E	; 0x80023e <uitVolgen>
    46e2:	90 91 3f 02 	lds	r25, 0x023F	; 0x80023f <uitVolgen+0x1>

000046e6 <.Loc.598>:
    46e6:	00 97       	sbiw	r24, 0x00	; 0
    46e8:	09 f0       	breq	.+2      	; 0x46ec <.Loc.599>

000046ea <L0^A>:
    46ea:	23 c1       	rjmp	.+582    	; 0x4932 <.L198>

000046ec <.Loc.599>:
    46ec:	80 91 3c 02 	lds	r24, 0x023C	; 0x80023c <uit_Onthouden>
    46f0:	90 91 3d 02 	lds	r25, 0x023D	; 0x80023d <uit_Onthouden+0x1>

000046f4 <.Loc.600>:
    46f4:	00 97       	sbiw	r24, 0x00	; 0
    46f6:	09 f0       	breq	.+2      	; 0x46fa <L0^A+0x2>

000046f8 <L0^A>:
    46f8:	1c c1       	rjmp	.+568    	; 0x4932 <.L198>
    46fa:	9e 01       	movw	r18, r28
    46fc:	27 59       	subi	r18, 0x97	; 151
    46fe:	3f 4f       	sbci	r19, 0xFF	; 255
    4700:	80 e0       	ldi	r24, 0x00	; 0
    4702:	90 e0       	ldi	r25, 0x00	; 0
    4704:	a0 ea       	ldi	r26, 0xA0	; 160
    4706:	b1 e4       	ldi	r27, 0x41	; 65
    4708:	f9 01       	movw	r30, r18
    470a:	80 83       	st	Z, r24
    470c:	91 83       	std	Z+1, r25	; 0x01
    470e:	a2 83       	std	Z+2, r26	; 0x02
    4710:	b3 83       	std	Z+3, r27	; 0x03

00004712 <.LBB195>:
	__tmp = ((F_CPU) / 4e3) * __ms;
    4712:	8e 01       	movw	r16, r28
    4714:	03 59       	subi	r16, 0x93	; 147
    4716:	1f 4f       	sbci	r17, 0xFF	; 255
    4718:	ce 01       	movw	r24, r28
    471a:	87 59       	subi	r24, 0x97	; 151
    471c:	9f 4f       	sbci	r25, 0xFF	; 255
    471e:	20 e0       	ldi	r18, 0x00	; 0
    4720:	30 e0       	ldi	r19, 0x00	; 0
    4722:	4a e7       	ldi	r20, 0x7A	; 122
    4724:	55 e4       	ldi	r21, 0x45	; 69
    4726:	dc 01       	movw	r26, r24
    4728:	6d 91       	ld	r22, X+
    472a:	7d 91       	ld	r23, X+
    472c:	8d 91       	ld	r24, X+
    472e:	9c 91       	ld	r25, X
    4730:	0e 94 a0 32 	call	0x6540	; 0x6540 <__mulsf3>
    4734:	c5 54       	subi	r28, 0x45	; 69
    4736:	de 4f       	sbci	r29, 0xFE	; 254
    4738:	68 83       	st	Y, r22
    473a:	79 83       	std	Y+1, r23	; 0x01
    473c:	8a 83       	std	Y+2, r24	; 0x02
    473e:	9b 83       	std	Y+3, r25	; 0x03
    4740:	cb 5b       	subi	r28, 0xBB	; 187
    4742:	d1 40       	sbci	r29, 0x01	; 1
    4744:	c5 54       	subi	r28, 0x45	; 69
    4746:	de 4f       	sbci	r29, 0xFE	; 254
    4748:	88 81       	ld	r24, Y
    474a:	99 81       	ldd	r25, Y+1	; 0x01
    474c:	aa 81       	ldd	r26, Y+2	; 0x02
    474e:	bb 81       	ldd	r27, Y+3	; 0x03
    4750:	cb 5b       	subi	r28, 0xBB	; 187
    4752:	d1 40       	sbci	r29, 0x01	; 1
    4754:	f8 01       	movw	r30, r16
    4756:	80 83       	st	Z, r24
    4758:	91 83       	std	Z+1, r25	; 0x01
    475a:	a2 83       	std	Z+2, r26	; 0x02
    475c:	b3 83       	std	Z+3, r27	; 0x03

0000475e <.Loc.602>:
	if (__tmp < 1.0)
    475e:	ce 01       	movw	r24, r28
    4760:	83 59       	subi	r24, 0x93	; 147
    4762:	9f 4f       	sbci	r25, 0xFF	; 255
    4764:	20 e0       	ldi	r18, 0x00	; 0
    4766:	30 e0       	ldi	r19, 0x00	; 0
    4768:	40 e8       	ldi	r20, 0x80	; 128
    476a:	5f e3       	ldi	r21, 0x3F	; 63
    476c:	dc 01       	movw	r26, r24
    476e:	6d 91       	ld	r22, X+
    4770:	7d 91       	ld	r23, X+
    4772:	8d 91       	ld	r24, X+
    4774:	9c 91       	ld	r25, X
    4776:	0e 94 3c 31 	call	0x6278	; 0x6278 <__cmpsf2>
    477a:	88 23       	and	r24, r24
    477c:	4c f4       	brge	.+18     	; 0x4790 <.L356>

0000477e <.Loc.603>:
		__ticks = 1;
    477e:	ce 01       	movw	r24, r28
    4780:	8f 58       	subi	r24, 0x8F	; 143
    4782:	9f 4f       	sbci	r25, 0xFF	; 255
    4784:	21 e0       	ldi	r18, 0x01	; 1
    4786:	30 e0       	ldi	r19, 0x00	; 0
    4788:	fc 01       	movw	r30, r24
    478a:	31 83       	std	Z+1, r19	; 0x01
    478c:	20 83       	st	Z, r18
    478e:	a5 c0       	rjmp	.+330    	; 0x48da <.L201>

00004790 <.L356>:
	else if (__tmp > 65535)
    4790:	ce 01       	movw	r24, r28
    4792:	83 59       	subi	r24, 0x93	; 147
    4794:	9f 4f       	sbci	r25, 0xFF	; 255
    4796:	20 e0       	ldi	r18, 0x00	; 0
    4798:	3f ef       	ldi	r19, 0xFF	; 255
    479a:	4f e7       	ldi	r20, 0x7F	; 127
    479c:	57 e4       	ldi	r21, 0x47	; 71
    479e:	dc 01       	movw	r26, r24
    47a0:	6d 91       	ld	r22, X+
    47a2:	7d 91       	ld	r23, X+
    47a4:	8d 91       	ld	r24, X+
    47a6:	9c 91       	ld	r25, X
    47a8:	0e 94 9b 32 	call	0x6536	; 0x6536 <__gesf2>
    47ac:	88 23       	and	r24, r24
    47ae:	09 f0       	breq	.+2      	; 0x47b2 <L0^A>

000047b0 <L0^A>:
    47b0:	0c f4       	brge	.+2      	; 0x47b4 <.Loc.605>

000047b2 <L0^A>:
    47b2:	75 c0       	rjmp	.+234    	; 0x489e <.L357>

000047b4 <.Loc.605>:
		__ticks = (uint16_t) (__ms * 10.0);
    47b4:	ce 01       	movw	r24, r28
    47b6:	87 59       	subi	r24, 0x97	; 151
    47b8:	9f 4f       	sbci	r25, 0xFF	; 255
    47ba:	20 e0       	ldi	r18, 0x00	; 0
    47bc:	30 e0       	ldi	r19, 0x00	; 0
    47be:	40 e2       	ldi	r20, 0x20	; 32
    47c0:	51 e4       	ldi	r21, 0x41	; 65
    47c2:	fc 01       	movw	r30, r24
    47c4:	60 81       	ld	r22, Z
    47c6:	71 81       	ldd	r23, Z+1	; 0x01
    47c8:	82 81       	ldd	r24, Z+2	; 0x02
    47ca:	93 81       	ldd	r25, Z+3	; 0x03
    47cc:	0e 94 a0 32 	call	0x6540	; 0x6540 <__mulsf3>
    47d0:	c1 54       	subi	r28, 0x41	; 65
    47d2:	de 4f       	sbci	r29, 0xFE	; 254
    47d4:	68 83       	st	Y, r22
    47d6:	79 83       	std	Y+1, r23	; 0x01
    47d8:	8a 83       	std	Y+2, r24	; 0x02
    47da:	9b 83       	std	Y+3, r25	; 0x03
    47dc:	cf 5b       	subi	r28, 0xBF	; 191
    47de:	d1 40       	sbci	r29, 0x01	; 1
    47e0:	c1 54       	subi	r28, 0x41	; 65
    47e2:	de 4f       	sbci	r29, 0xFE	; 254
    47e4:	88 81       	ld	r24, Y
    47e6:	99 81       	ldd	r25, Y+1	; 0x01
    47e8:	aa 81       	ldd	r26, Y+2	; 0x02
    47ea:	bb 81       	ldd	r27, Y+3	; 0x03
    47ec:	cf 5b       	subi	r28, 0xBF	; 191
    47ee:	d1 40       	sbci	r29, 0x01	; 1
    47f0:	c1 5e       	subi	r28, 0xE1	; 225
    47f2:	de 4f       	sbci	r29, 0xFE	; 254
    47f4:	88 83       	st	Y, r24
    47f6:	99 83       	std	Y+1, r25	; 0x01
    47f8:	aa 83       	std	Y+2, r26	; 0x02
    47fa:	bb 83       	std	Y+3, r27	; 0x03
    47fc:	cf 51       	subi	r28, 0x1F	; 31
    47fe:	d1 40       	sbci	r29, 0x01	; 1

00004800 <.Loc.606>:
    4800:	8e 01       	movw	r16, r28
    4802:	0f 58       	subi	r16, 0x8F	; 143
    4804:	1f 4f       	sbci	r17, 0xFF	; 255
    4806:	c1 5e       	subi	r28, 0xE1	; 225
    4808:	de 4f       	sbci	r29, 0xFE	; 254
    480a:	68 81       	ld	r22, Y
    480c:	79 81       	ldd	r23, Y+1	; 0x01
    480e:	8a 81       	ldd	r24, Y+2	; 0x02
    4810:	9b 81       	ldd	r25, Y+3	; 0x03
    4812:	cf 51       	subi	r28, 0x1F	; 31
    4814:	d1 40       	sbci	r29, 0x01	; 1
    4816:	0e 94 ba 31 	call	0x6374	; 0x6374 <__fixunssfsi>
    481a:	cd 53       	subi	r28, 0x3D	; 61
    481c:	de 4f       	sbci	r29, 0xFE	; 254
    481e:	68 83       	st	Y, r22
    4820:	79 83       	std	Y+1, r23	; 0x01
    4822:	8a 83       	std	Y+2, r24	; 0x02
    4824:	9b 83       	std	Y+3, r25	; 0x03
    4826:	c3 5c       	subi	r28, 0xC3	; 195
    4828:	d1 40       	sbci	r29, 0x01	; 1
    482a:	cd 53       	subi	r28, 0x3D	; 61
    482c:	de 4f       	sbci	r29, 0xFE	; 254
    482e:	e8 81       	ld	r30, Y
    4830:	f9 81       	ldd	r31, Y+1	; 0x01
    4832:	c3 5c       	subi	r28, 0xC3	; 195
    4834:	d1 40       	sbci	r29, 0x01	; 1
    4836:	d8 01       	movw	r26, r16
    4838:	11 96       	adiw	r26, 0x01	; 1
    483a:	fc 93       	st	X, r31
    483c:	ee 93       	st	-X, r30

0000483e <.Loc.607>:
		while(__ticks)
    483e:	26 c0       	rjmp	.+76     	; 0x488c <.L204>

00004840 <.L205>:
    4840:	ce 01       	movw	r24, r28
    4842:	8d 58       	subi	r24, 0x8D	; 141
    4844:	9f 4f       	sbci	r25, 0xFF	; 255
    4846:	20 e9       	ldi	r18, 0x90	; 144
    4848:	31 e0       	ldi	r19, 0x01	; 1
    484a:	dc 01       	movw	r26, r24
    484c:	2d 93       	st	X+, r18
    484e:	3c 93       	st	X, r19

00004850 <.LBB197>:
    4850:	ce 01       	movw	r24, r28
    4852:	8d 58       	subi	r24, 0x8D	; 141
    4854:	9f 4f       	sbci	r25, 0xFF	; 255
    4856:	fc 01       	movw	r30, r24
    4858:	80 81       	ld	r24, Z
    485a:	91 81       	ldd	r25, Z+1	; 0x01

0000485c <.L1^B19>:
    485c:	01 97       	sbiw	r24, 0x01	; 1
    485e:	f1 f7       	brne	.-4      	; 0x485c <.L1^B19>
    4860:	9e 01       	movw	r18, r28
    4862:	2d 58       	subi	r18, 0x8D	; 141
    4864:	3f 4f       	sbci	r19, 0xFF	; 255
    4866:	d9 01       	movw	r26, r18
    4868:	8d 93       	st	X+, r24
    486a:	9c 93       	st	X, r25

0000486c <.Loc.609>:
	...

0000486e <.LBE197>:
			__ticks --;
    486e:	ce 01       	movw	r24, r28
    4870:	8f 58       	subi	r24, 0x8F	; 143
    4872:	9f 4f       	sbci	r25, 0xFF	; 255
    4874:	9e 01       	movw	r18, r28
    4876:	2f 58       	subi	r18, 0x8F	; 143
    4878:	3f 4f       	sbci	r19, 0xFF	; 255
    487a:	f9 01       	movw	r30, r18
    487c:	20 81       	ld	r18, Z
    487e:	31 81       	ldd	r19, Z+1	; 0x01
    4880:	21 50       	subi	r18, 0x01	; 1
    4882:	31 09       	sbc	r19, r1
    4884:	dc 01       	movw	r26, r24
    4886:	11 96       	adiw	r26, 0x01	; 1
    4888:	3c 93       	st	X, r19
    488a:	2e 93       	st	-X, r18

0000488c <.L204>:
		while(__ticks)
    488c:	ce 01       	movw	r24, r28
    488e:	8f 58       	subi	r24, 0x8F	; 143
    4890:	9f 4f       	sbci	r25, 0xFF	; 255
    4892:	fc 01       	movw	r30, r24
    4894:	80 81       	ld	r24, Z
    4896:	91 81       	ldd	r25, Z+1	; 0x01
    4898:	00 97       	sbiw	r24, 0x00	; 0
    489a:	91 f6       	brne	.-92     	; 0x4840 <.L205>

0000489c <.Loc.612>:
		return;
    489c:	3a c0       	rjmp	.+116    	; 0x4912 <.L206>

0000489e <.L357>:
		__ticks = (uint16_t)__tmp;
    489e:	8e 01       	movw	r16, r28
    48a0:	0f 58       	subi	r16, 0x8F	; 143
    48a2:	1f 4f       	sbci	r17, 0xFF	; 255
    48a4:	ce 01       	movw	r24, r28
    48a6:	83 59       	subi	r24, 0x93	; 147
    48a8:	9f 4f       	sbci	r25, 0xFF	; 255
    48aa:	dc 01       	movw	r26, r24
    48ac:	6d 91       	ld	r22, X+
    48ae:	7d 91       	ld	r23, X+
    48b0:	8d 91       	ld	r24, X+
    48b2:	9c 91       	ld	r25, X
    48b4:	0e 94 ba 31 	call	0x6374	; 0x6374 <__fixunssfsi>
    48b8:	c9 53       	subi	r28, 0x39	; 57
    48ba:	de 4f       	sbci	r29, 0xFE	; 254
    48bc:	68 83       	st	Y, r22
    48be:	79 83       	std	Y+1, r23	; 0x01
    48c0:	8a 83       	std	Y+2, r24	; 0x02
    48c2:	9b 83       	std	Y+3, r25	; 0x03
    48c4:	c7 5c       	subi	r28, 0xC7	; 199
    48c6:	d1 40       	sbci	r29, 0x01	; 1
    48c8:	c9 53       	subi	r28, 0x39	; 57
    48ca:	de 4f       	sbci	r29, 0xFE	; 254
    48cc:	88 81       	ld	r24, Y
    48ce:	99 81       	ldd	r25, Y+1	; 0x01
    48d0:	c7 5c       	subi	r28, 0xC7	; 199
    48d2:	d1 40       	sbci	r29, 0x01	; 1
    48d4:	f8 01       	movw	r30, r16
    48d6:	91 83       	std	Z+1, r25	; 0x01
    48d8:	80 83       	st	Z, r24

000048da <.L201>:
    48da:	ce 01       	movw	r24, r28
    48dc:	8b 58       	subi	r24, 0x8B	; 139
    48de:	9f 4f       	sbci	r25, 0xFF	; 255
    48e0:	9e 01       	movw	r18, r28
    48e2:	2f 58       	subi	r18, 0x8F	; 143
    48e4:	3f 4f       	sbci	r19, 0xFF	; 255
    48e6:	d9 01       	movw	r26, r18
    48e8:	2d 91       	ld	r18, X+
    48ea:	3c 91       	ld	r19, X
    48ec:	fc 01       	movw	r30, r24
    48ee:	31 83       	std	Z+1, r19	; 0x01
    48f0:	20 83       	st	Z, r18

000048f2 <.LBB199>:
    48f2:	ce 01       	movw	r24, r28
    48f4:	8b 58       	subi	r24, 0x8B	; 139
    48f6:	9f 4f       	sbci	r25, 0xFF	; 255
    48f8:	dc 01       	movw	r26, r24
    48fa:	8d 91       	ld	r24, X+
    48fc:	9c 91       	ld	r25, X
    48fe:	11 97       	sbiw	r26, 0x01	; 1

00004900 <.L1^B20>:
    4900:	01 97       	sbiw	r24, 0x01	; 1
    4902:	f1 f7       	brne	.-4      	; 0x4900 <.L1^B20>
    4904:	9e 01       	movw	r18, r28
    4906:	2b 58       	subi	r18, 0x8B	; 139
    4908:	3f 4f       	sbci	r19, 0xFF	; 255
    490a:	f9 01       	movw	r30, r18
    490c:	91 83       	std	Z+1, r25	; 0x01
    490e:	80 83       	st	Z, r24

00004910 <.Loc.615>:
	...

00004912 <.L206>:
                _delay_ms(20);
                aan_Onthouden = 1;
    4912:	81 e0       	ldi	r24, 0x01	; 1
    4914:	90 e0       	ldi	r25, 0x00	; 0
    4916:	90 93 35 02 	sts	0x0235, r25	; 0x800235 <aan_Onthouden+0x1>
    491a:	80 93 34 02 	sts	0x0234, r24	; 0x800234 <aan_Onthouden>

0000491e <.Loc.617>:
                uit_Onthouden = 1;
    491e:	81 e0       	ldi	r24, 0x01	; 1
    4920:	90 e0       	ldi	r25, 0x00	; 0
    4922:	90 93 3d 02 	sts	0x023D, r25	; 0x80023d <uit_Onthouden+0x1>
    4926:	80 93 3c 02 	sts	0x023C, r24	; 0x80023c <uit_Onthouden>

0000492a <.Loc.618>:
                state = Rechtdoorrijden;
    492a:	1a 82       	std	Y+2, r1	; 0x02
    492c:	19 82       	std	Y+1, r1	; 0x01

0000492e <.Loc.619>:
                break;
    492e:	0c 94 c5 30 	jmp	0x618a	; 0x618a <.L116>

00004932 <.L198>:
            }

            if(leestfollowknopuit() && (volgen_Onthouden == 0)){
    4932:	0e 94 49 17 	call	0x2e92	; 0x2e92 <leestfollowknopuit>

00004936 <.Loc.621>:
    4936:	00 97       	sbiw	r24, 0x00	; 0
    4938:	11 f4       	brne	.+4      	; 0x493e <.Loc.622>

0000493a <L0^A>:
    493a:	0c 94 bb 30 	jmp	0x6176	; 0x6176 <.L380>

0000493e <.Loc.622>:
    493e:	80 91 38 02 	lds	r24, 0x0238	; 0x800238 <volgen_Onthouden>
    4942:	90 91 39 02 	lds	r25, 0x0239	; 0x800239 <volgen_Onthouden+0x1>

00004946 <.Loc.623>:
    4946:	00 97       	sbiw	r24, 0x00	; 0
    4948:	11 f0       	breq	.+4      	; 0x494e <L0^A+0x4>

0000494a <L0^A>:
    494a:	0c 94 bb 30 	jmp	0x6176	; 0x6176 <.L380>
    494e:	9e 01       	movw	r18, r28
    4950:	29 58       	subi	r18, 0x89	; 137
    4952:	3f 4f       	sbci	r19, 0xFF	; 255
    4954:	80 e0       	ldi	r24, 0x00	; 0
    4956:	90 e0       	ldi	r25, 0x00	; 0
    4958:	a0 ea       	ldi	r26, 0xA0	; 160
    495a:	b1 e4       	ldi	r27, 0x41	; 65
    495c:	f9 01       	movw	r30, r18
    495e:	80 83       	st	Z, r24
    4960:	91 83       	std	Z+1, r25	; 0x01
    4962:	a2 83       	std	Z+2, r26	; 0x02
    4964:	b3 83       	std	Z+3, r27	; 0x03

00004966 <.LBB201>:
	__tmp = ((F_CPU) / 4e3) * __ms;
    4966:	8e 01       	movw	r16, r28
    4968:	05 58       	subi	r16, 0x85	; 133
    496a:	1f 4f       	sbci	r17, 0xFF	; 255
    496c:	ce 01       	movw	r24, r28
    496e:	89 58       	subi	r24, 0x89	; 137
    4970:	9f 4f       	sbci	r25, 0xFF	; 255
    4972:	20 e0       	ldi	r18, 0x00	; 0
    4974:	30 e0       	ldi	r19, 0x00	; 0
    4976:	4a e7       	ldi	r20, 0x7A	; 122
    4978:	55 e4       	ldi	r21, 0x45	; 69
    497a:	dc 01       	movw	r26, r24
    497c:	6d 91       	ld	r22, X+
    497e:	7d 91       	ld	r23, X+
    4980:	8d 91       	ld	r24, X+
    4982:	9c 91       	ld	r25, X
    4984:	0e 94 a0 32 	call	0x6540	; 0x6540 <__mulsf3>
    4988:	c5 53       	subi	r28, 0x35	; 53
    498a:	de 4f       	sbci	r29, 0xFE	; 254
    498c:	68 83       	st	Y, r22
    498e:	79 83       	std	Y+1, r23	; 0x01
    4990:	8a 83       	std	Y+2, r24	; 0x02
    4992:	9b 83       	std	Y+3, r25	; 0x03
    4994:	cb 5c       	subi	r28, 0xCB	; 203
    4996:	d1 40       	sbci	r29, 0x01	; 1
    4998:	c5 53       	subi	r28, 0x35	; 53
    499a:	de 4f       	sbci	r29, 0xFE	; 254
    499c:	88 81       	ld	r24, Y
    499e:	99 81       	ldd	r25, Y+1	; 0x01
    49a0:	aa 81       	ldd	r26, Y+2	; 0x02
    49a2:	bb 81       	ldd	r27, Y+3	; 0x03
    49a4:	cb 5c       	subi	r28, 0xCB	; 203
    49a6:	d1 40       	sbci	r29, 0x01	; 1
    49a8:	f8 01       	movw	r30, r16
    49aa:	80 83       	st	Z, r24
    49ac:	91 83       	std	Z+1, r25	; 0x01
    49ae:	a2 83       	std	Z+2, r26	; 0x02
    49b0:	b3 83       	std	Z+3, r27	; 0x03

000049b2 <.Loc.625>:
	if (__tmp < 1.0)
    49b2:	ce 01       	movw	r24, r28
    49b4:	85 58       	subi	r24, 0x85	; 133
    49b6:	9f 4f       	sbci	r25, 0xFF	; 255
    49b8:	20 e0       	ldi	r18, 0x00	; 0
    49ba:	30 e0       	ldi	r19, 0x00	; 0
    49bc:	40 e8       	ldi	r20, 0x80	; 128
    49be:	5f e3       	ldi	r21, 0x3F	; 63
    49c0:	dc 01       	movw	r26, r24
    49c2:	6d 91       	ld	r22, X+
    49c4:	7d 91       	ld	r23, X+
    49c6:	8d 91       	ld	r24, X+
    49c8:	9c 91       	ld	r25, X
    49ca:	0e 94 3c 31 	call	0x6278	; 0x6278 <__cmpsf2>
    49ce:	88 23       	and	r24, r24
    49d0:	4c f4       	brge	.+18     	; 0x49e4 <.L358>

000049d2 <.Loc.626>:
		__ticks = 1;
    49d2:	ce 01       	movw	r24, r28
    49d4:	81 58       	subi	r24, 0x81	; 129
    49d6:	9f 4f       	sbci	r25, 0xFF	; 255
    49d8:	21 e0       	ldi	r18, 0x01	; 1
    49da:	30 e0       	ldi	r19, 0x00	; 0
    49dc:	fc 01       	movw	r30, r24
    49de:	31 83       	std	Z+1, r19	; 0x01
    49e0:	20 83       	st	Z, r18
    49e2:	a5 c0       	rjmp	.+330    	; 0x4b2e <.L210>

000049e4 <.L358>:
	else if (__tmp > 65535)
    49e4:	ce 01       	movw	r24, r28
    49e6:	85 58       	subi	r24, 0x85	; 133
    49e8:	9f 4f       	sbci	r25, 0xFF	; 255
    49ea:	20 e0       	ldi	r18, 0x00	; 0
    49ec:	3f ef       	ldi	r19, 0xFF	; 255
    49ee:	4f e7       	ldi	r20, 0x7F	; 127
    49f0:	57 e4       	ldi	r21, 0x47	; 71
    49f2:	dc 01       	movw	r26, r24
    49f4:	6d 91       	ld	r22, X+
    49f6:	7d 91       	ld	r23, X+
    49f8:	8d 91       	ld	r24, X+
    49fa:	9c 91       	ld	r25, X
    49fc:	0e 94 9b 32 	call	0x6536	; 0x6536 <__gesf2>
    4a00:	88 23       	and	r24, r24
    4a02:	09 f0       	breq	.+2      	; 0x4a06 <L0^A>

00004a04 <L0^A>:
    4a04:	0c f4       	brge	.+2      	; 0x4a08 <.Loc.628>

00004a06 <L0^A>:
    4a06:	75 c0       	rjmp	.+234    	; 0x4af2 <.L359>

00004a08 <.Loc.628>:
		__ticks = (uint16_t) (__ms * 10.0);
    4a08:	ce 01       	movw	r24, r28
    4a0a:	89 58       	subi	r24, 0x89	; 137
    4a0c:	9f 4f       	sbci	r25, 0xFF	; 255
    4a0e:	20 e0       	ldi	r18, 0x00	; 0
    4a10:	30 e0       	ldi	r19, 0x00	; 0
    4a12:	40 e2       	ldi	r20, 0x20	; 32
    4a14:	51 e4       	ldi	r21, 0x41	; 65
    4a16:	fc 01       	movw	r30, r24
    4a18:	60 81       	ld	r22, Z
    4a1a:	71 81       	ldd	r23, Z+1	; 0x01
    4a1c:	82 81       	ldd	r24, Z+2	; 0x02
    4a1e:	93 81       	ldd	r25, Z+3	; 0x03
    4a20:	0e 94 a0 32 	call	0x6540	; 0x6540 <__mulsf3>
    4a24:	c1 53       	subi	r28, 0x31	; 49
    4a26:	de 4f       	sbci	r29, 0xFE	; 254
    4a28:	68 83       	st	Y, r22
    4a2a:	79 83       	std	Y+1, r23	; 0x01
    4a2c:	8a 83       	std	Y+2, r24	; 0x02
    4a2e:	9b 83       	std	Y+3, r25	; 0x03
    4a30:	cf 5c       	subi	r28, 0xCF	; 207
    4a32:	d1 40       	sbci	r29, 0x01	; 1
    4a34:	c1 53       	subi	r28, 0x31	; 49
    4a36:	de 4f       	sbci	r29, 0xFE	; 254
    4a38:	88 81       	ld	r24, Y
    4a3a:	99 81       	ldd	r25, Y+1	; 0x01
    4a3c:	aa 81       	ldd	r26, Y+2	; 0x02
    4a3e:	bb 81       	ldd	r27, Y+3	; 0x03
    4a40:	cf 5c       	subi	r28, 0xCF	; 207
    4a42:	d1 40       	sbci	r29, 0x01	; 1
    4a44:	cd 5d       	subi	r28, 0xDD	; 221
    4a46:	de 4f       	sbci	r29, 0xFE	; 254
    4a48:	88 83       	st	Y, r24
    4a4a:	99 83       	std	Y+1, r25	; 0x01
    4a4c:	aa 83       	std	Y+2, r26	; 0x02
    4a4e:	bb 83       	std	Y+3, r27	; 0x03
    4a50:	c3 52       	subi	r28, 0x23	; 35
    4a52:	d1 40       	sbci	r29, 0x01	; 1

00004a54 <.Loc.629>:
    4a54:	8e 01       	movw	r16, r28
    4a56:	01 58       	subi	r16, 0x81	; 129
    4a58:	1f 4f       	sbci	r17, 0xFF	; 255
    4a5a:	cd 5d       	subi	r28, 0xDD	; 221
    4a5c:	de 4f       	sbci	r29, 0xFE	; 254
    4a5e:	68 81       	ld	r22, Y
    4a60:	79 81       	ldd	r23, Y+1	; 0x01
    4a62:	8a 81       	ldd	r24, Y+2	; 0x02
    4a64:	9b 81       	ldd	r25, Y+3	; 0x03
    4a66:	c3 52       	subi	r28, 0x23	; 35
    4a68:	d1 40       	sbci	r29, 0x01	; 1
    4a6a:	0e 94 ba 31 	call	0x6374	; 0x6374 <__fixunssfsi>
    4a6e:	cd 52       	subi	r28, 0x2D	; 45
    4a70:	de 4f       	sbci	r29, 0xFE	; 254
    4a72:	68 83       	st	Y, r22
    4a74:	79 83       	std	Y+1, r23	; 0x01
    4a76:	8a 83       	std	Y+2, r24	; 0x02
    4a78:	9b 83       	std	Y+3, r25	; 0x03
    4a7a:	c3 5d       	subi	r28, 0xD3	; 211
    4a7c:	d1 40       	sbci	r29, 0x01	; 1
    4a7e:	cd 52       	subi	r28, 0x2D	; 45
    4a80:	de 4f       	sbci	r29, 0xFE	; 254
    4a82:	e8 81       	ld	r30, Y
    4a84:	f9 81       	ldd	r31, Y+1	; 0x01
    4a86:	c3 5d       	subi	r28, 0xD3	; 211
    4a88:	d1 40       	sbci	r29, 0x01	; 1
    4a8a:	d8 01       	movw	r26, r16
    4a8c:	11 96       	adiw	r26, 0x01	; 1
    4a8e:	fc 93       	st	X, r31
    4a90:	ee 93       	st	-X, r30

00004a92 <.Loc.630>:
		while(__ticks)
    4a92:	26 c0       	rjmp	.+76     	; 0x4ae0 <.L213>

00004a94 <.L214>:
    4a94:	ce 01       	movw	r24, r28
    4a96:	8f 57       	subi	r24, 0x7F	; 127
    4a98:	9f 4f       	sbci	r25, 0xFF	; 255
    4a9a:	20 e9       	ldi	r18, 0x90	; 144
    4a9c:	31 e0       	ldi	r19, 0x01	; 1
    4a9e:	dc 01       	movw	r26, r24
    4aa0:	2d 93       	st	X+, r18
    4aa2:	3c 93       	st	X, r19

00004aa4 <.LBB203>:
    4aa4:	ce 01       	movw	r24, r28
    4aa6:	8f 57       	subi	r24, 0x7F	; 127
    4aa8:	9f 4f       	sbci	r25, 0xFF	; 255
    4aaa:	fc 01       	movw	r30, r24
    4aac:	80 81       	ld	r24, Z
    4aae:	91 81       	ldd	r25, Z+1	; 0x01

00004ab0 <.L1^B21>:
    4ab0:	01 97       	sbiw	r24, 0x01	; 1
    4ab2:	f1 f7       	brne	.-4      	; 0x4ab0 <.L1^B21>
    4ab4:	9e 01       	movw	r18, r28
    4ab6:	2f 57       	subi	r18, 0x7F	; 127
    4ab8:	3f 4f       	sbci	r19, 0xFF	; 255
    4aba:	d9 01       	movw	r26, r18
    4abc:	8d 93       	st	X+, r24
    4abe:	9c 93       	st	X, r25

00004ac0 <.Loc.632>:
	...

00004ac2 <.LBE203>:
			__ticks --;
    4ac2:	ce 01       	movw	r24, r28
    4ac4:	81 58       	subi	r24, 0x81	; 129
    4ac6:	9f 4f       	sbci	r25, 0xFF	; 255
    4ac8:	9e 01       	movw	r18, r28
    4aca:	21 58       	subi	r18, 0x81	; 129
    4acc:	3f 4f       	sbci	r19, 0xFF	; 255
    4ace:	f9 01       	movw	r30, r18
    4ad0:	20 81       	ld	r18, Z
    4ad2:	31 81       	ldd	r19, Z+1	; 0x01
    4ad4:	21 50       	subi	r18, 0x01	; 1
    4ad6:	31 09       	sbc	r19, r1
    4ad8:	dc 01       	movw	r26, r24
    4ada:	11 96       	adiw	r26, 0x01	; 1
    4adc:	3c 93       	st	X, r19
    4ade:	2e 93       	st	-X, r18

00004ae0 <.L213>:
		while(__ticks)
    4ae0:	ce 01       	movw	r24, r28
    4ae2:	81 58       	subi	r24, 0x81	; 129
    4ae4:	9f 4f       	sbci	r25, 0xFF	; 255
    4ae6:	fc 01       	movw	r30, r24
    4ae8:	80 81       	ld	r24, Z
    4aea:	91 81       	ldd	r25, Z+1	; 0x01
    4aec:	00 97       	sbiw	r24, 0x00	; 0
    4aee:	91 f6       	brne	.-92     	; 0x4a94 <.L214>

00004af0 <.Loc.635>:
		return;
    4af0:	3a c0       	rjmp	.+116    	; 0x4b66 <.L215>

00004af2 <.L359>:
		__ticks = (uint16_t)__tmp;
    4af2:	8e 01       	movw	r16, r28
    4af4:	01 58       	subi	r16, 0x81	; 129
    4af6:	1f 4f       	sbci	r17, 0xFF	; 255
    4af8:	ce 01       	movw	r24, r28
    4afa:	85 58       	subi	r24, 0x85	; 133
    4afc:	9f 4f       	sbci	r25, 0xFF	; 255
    4afe:	dc 01       	movw	r26, r24
    4b00:	6d 91       	ld	r22, X+
    4b02:	7d 91       	ld	r23, X+
    4b04:	8d 91       	ld	r24, X+
    4b06:	9c 91       	ld	r25, X
    4b08:	0e 94 ba 31 	call	0x6374	; 0x6374 <__fixunssfsi>
    4b0c:	c9 52       	subi	r28, 0x29	; 41
    4b0e:	de 4f       	sbci	r29, 0xFE	; 254
    4b10:	68 83       	st	Y, r22
    4b12:	79 83       	std	Y+1, r23	; 0x01
    4b14:	8a 83       	std	Y+2, r24	; 0x02
    4b16:	9b 83       	std	Y+3, r25	; 0x03
    4b18:	c7 5d       	subi	r28, 0xD7	; 215
    4b1a:	d1 40       	sbci	r29, 0x01	; 1
    4b1c:	c9 52       	subi	r28, 0x29	; 41
    4b1e:	de 4f       	sbci	r29, 0xFE	; 254
    4b20:	88 81       	ld	r24, Y
    4b22:	99 81       	ldd	r25, Y+1	; 0x01
    4b24:	c7 5d       	subi	r28, 0xD7	; 215
    4b26:	d1 40       	sbci	r29, 0x01	; 1
    4b28:	f8 01       	movw	r30, r16
    4b2a:	91 83       	std	Z+1, r25	; 0x01
    4b2c:	80 83       	st	Z, r24

00004b2e <.L210>:
    4b2e:	ce 01       	movw	r24, r28
    4b30:	8d 57       	subi	r24, 0x7D	; 125
    4b32:	9f 4f       	sbci	r25, 0xFF	; 255
    4b34:	9e 01       	movw	r18, r28
    4b36:	21 58       	subi	r18, 0x81	; 129
    4b38:	3f 4f       	sbci	r19, 0xFF	; 255
    4b3a:	d9 01       	movw	r26, r18
    4b3c:	2d 91       	ld	r18, X+
    4b3e:	3c 91       	ld	r19, X
    4b40:	fc 01       	movw	r30, r24
    4b42:	31 83       	std	Z+1, r19	; 0x01
    4b44:	20 83       	st	Z, r18

00004b46 <.LBB205>:
    4b46:	ce 01       	movw	r24, r28
    4b48:	8d 57       	subi	r24, 0x7D	; 125
    4b4a:	9f 4f       	sbci	r25, 0xFF	; 255
    4b4c:	dc 01       	movw	r26, r24
    4b4e:	8d 91       	ld	r24, X+
    4b50:	9c 91       	ld	r25, X
    4b52:	11 97       	sbiw	r26, 0x01	; 1

00004b54 <.L1^B22>:
    4b54:	01 97       	sbiw	r24, 0x01	; 1
    4b56:	f1 f7       	brne	.-4      	; 0x4b54 <.L1^B22>
    4b58:	9e 01       	movw	r18, r28
    4b5a:	2d 57       	subi	r18, 0x7D	; 125
    4b5c:	3f 4f       	sbci	r19, 0xFF	; 255
    4b5e:	f9 01       	movw	r30, r18
    4b60:	91 83       	std	Z+1, r25	; 0x01
    4b62:	80 83       	st	Z, r24

00004b64 <.Loc.638>:
	...

00004b66 <.L215>:
                _delay_ms(20);
                volgen_Onthouden = 1;
    4b66:	81 e0       	ldi	r24, 0x01	; 1
    4b68:	90 e0       	ldi	r25, 0x00	; 0
    4b6a:	90 93 39 02 	sts	0x0239, r25	; 0x800239 <volgen_Onthouden+0x1>
    4b6e:	80 93 38 02 	sts	0x0238, r24	; 0x800238 <volgen_Onthouden>

00004b72 <.Loc.640>:
                state = Volgen;
    4b72:	83 e0       	ldi	r24, 0x03	; 3
    4b74:	90 e0       	ldi	r25, 0x00	; 0
    4b76:	9a 83       	std	Y+2, r25	; 0x02
    4b78:	89 83       	std	Y+1, r24	; 0x01

00004b7a <.Loc.641>:
                break;
    4b7a:	0c 94 c5 30 	jmp	0x618a	; 0x618a <.L116>

00004b7e <.L124>:
            break;

        case DraaienR:

            // Laten draaien
            rsnelheid(10);
    4b7e:	8a e0       	ldi	r24, 0x0A	; 10
    4b80:	90 e0       	ldi	r25, 0x00	; 0
    4b82:	0e 94 e6 1a 	call	0x35cc	; 0x35cc <rsnelheid>

00004b86 <.Loc.643>:
            lsnelheid(21);
    4b86:	85 e1       	ldi	r24, 0x15	; 21
    4b88:	90 e0       	ldi	r25, 0x00	; 0
    4b8a:	0e 94 ca 1a 	call	0x3594	; 0x3594 <lsnelheid>

00004b8e <.Loc.644>:

            // uit state als sonar rechts minder dan 50 mm
            // Dan rechtdoor
            if(leessonaruit(2) < 30){
    4b8e:	82 e0       	ldi	r24, 0x02	; 2
    4b90:	90 e0       	ldi	r25, 0x00	; 0
    4b92:	0e 94 ee 17 	call	0x2fdc	; 0x2fdc <leessonaruit>

00004b96 <.Loc.645>:
    4b96:	8d 31       	cpi	r24, 0x1D	; 29
    4b98:	91 05       	cpc	r25, r1
    4b9a:	09 f0       	breq	.+2      	; 0x4b9e <.Loc.646>

00004b9c <L0^A>:
    4b9c:	8c f4       	brge	.+34     	; 0x4bc0 <.L216>

00004b9e <.Loc.646>:
                draaienR_Onthouden = 0;
    4b9e:	10 92 43 02 	sts	0x0243, r1	; 0x800243 <draaienR_Onthouden+0x1>
    4ba2:	10 92 42 02 	sts	0x0242, r1	; 0x800242 <draaienR_Onthouden>

00004ba6 <.Loc.647>:
                rijstrook += 1;
    4ba6:	80 91 02 02 	lds	r24, 0x0202	; 0x800202 <rijstrook>
    4baa:	90 91 03 02 	lds	r25, 0x0203	; 0x800203 <rijstrook+0x1>
    4bae:	01 96       	adiw	r24, 0x01	; 1
    4bb0:	90 93 03 02 	sts	0x0203, r25	; 0x800203 <rijstrook+0x1>
    4bb4:	80 93 02 02 	sts	0x0202, r24	; 0x800202 <rijstrook>

00004bb8 <.Loc.648>:
                state = Rechtdoorrijden;
    4bb8:	1a 82       	std	Y+2, r1	; 0x02
    4bba:	19 82       	std	Y+1, r1	; 0x01

00004bbc <.Loc.649>:
                break;
    4bbc:	0c 94 c5 30 	jmp	0x618a	; 0x618a <.L116>

00004bc0 <.L216>:
            }

            if(((PINA & (1<<PA2)) != 0) && (noodstop_Onthouden == 0)){
    4bc0:	80 e2       	ldi	r24, 0x20	; 32
    4bc2:	90 e0       	ldi	r25, 0x00	; 0
    4bc4:	dc 01       	movw	r26, r24
    4bc6:	8c 91       	ld	r24, X

00004bc8 <.Loc.651>:
    4bc8:	88 2f       	mov	r24, r24
    4bca:	90 e0       	ldi	r25, 0x00	; 0
    4bcc:	84 70       	andi	r24, 0x04	; 4
    4bce:	99 27       	eor	r25, r25

00004bd0 <.Loc.652>:
    4bd0:	00 97       	sbiw	r24, 0x00	; 0
    4bd2:	11 f4       	brne	.+4      	; 0x4bd8 <.Loc.653>

00004bd4 <L0^A>:
    4bd4:	0c 94 be 30 	jmp	0x617c	; 0x617c <.L381>

00004bd8 <.Loc.653>:
    4bd8:	80 91 36 02 	lds	r24, 0x0236	; 0x800236 <noodstop_Onthouden>
    4bdc:	90 91 37 02 	lds	r25, 0x0237	; 0x800237 <noodstop_Onthouden+0x1>

00004be0 <.Loc.654>:
    4be0:	00 97       	sbiw	r24, 0x00	; 0
    4be2:	11 f0       	breq	.+4      	; 0x4be8 <L0^A+0x4>

00004be4 <L0^A>:
    4be4:	0c 94 be 30 	jmp	0x617c	; 0x617c <.L381>
    4be8:	9e 01       	movw	r18, r28
    4bea:	2b 57       	subi	r18, 0x7B	; 123
    4bec:	3f 4f       	sbci	r19, 0xFF	; 255
    4bee:	80 e0       	ldi	r24, 0x00	; 0
    4bf0:	90 e0       	ldi	r25, 0x00	; 0
    4bf2:	a0 ea       	ldi	r26, 0xA0	; 160
    4bf4:	b1 e4       	ldi	r27, 0x41	; 65
    4bf6:	f9 01       	movw	r30, r18
    4bf8:	80 83       	st	Z, r24
    4bfa:	91 83       	std	Z+1, r25	; 0x01
    4bfc:	a2 83       	std	Z+2, r26	; 0x02
    4bfe:	b3 83       	std	Z+3, r27	; 0x03

00004c00 <.LBB207>:
	__tmp = ((F_CPU) / 4e3) * __ms;
    4c00:	8e 01       	movw	r16, r28
    4c02:	07 57       	subi	r16, 0x77	; 119
    4c04:	1f 4f       	sbci	r17, 0xFF	; 255
    4c06:	ce 01       	movw	r24, r28
    4c08:	8b 57       	subi	r24, 0x7B	; 123
    4c0a:	9f 4f       	sbci	r25, 0xFF	; 255
    4c0c:	20 e0       	ldi	r18, 0x00	; 0
    4c0e:	30 e0       	ldi	r19, 0x00	; 0
    4c10:	4a e7       	ldi	r20, 0x7A	; 122
    4c12:	55 e4       	ldi	r21, 0x45	; 69
    4c14:	dc 01       	movw	r26, r24
    4c16:	6d 91       	ld	r22, X+
    4c18:	7d 91       	ld	r23, X+
    4c1a:	8d 91       	ld	r24, X+
    4c1c:	9c 91       	ld	r25, X
    4c1e:	0e 94 a0 32 	call	0x6540	; 0x6540 <__mulsf3>
    4c22:	c5 52       	subi	r28, 0x25	; 37
    4c24:	de 4f       	sbci	r29, 0xFE	; 254
    4c26:	68 83       	st	Y, r22
    4c28:	79 83       	std	Y+1, r23	; 0x01
    4c2a:	8a 83       	std	Y+2, r24	; 0x02
    4c2c:	9b 83       	std	Y+3, r25	; 0x03
    4c2e:	cb 5d       	subi	r28, 0xDB	; 219
    4c30:	d1 40       	sbci	r29, 0x01	; 1
    4c32:	c5 52       	subi	r28, 0x25	; 37
    4c34:	de 4f       	sbci	r29, 0xFE	; 254
    4c36:	88 81       	ld	r24, Y
    4c38:	99 81       	ldd	r25, Y+1	; 0x01
    4c3a:	aa 81       	ldd	r26, Y+2	; 0x02
    4c3c:	bb 81       	ldd	r27, Y+3	; 0x03
    4c3e:	cb 5d       	subi	r28, 0xDB	; 219
    4c40:	d1 40       	sbci	r29, 0x01	; 1
    4c42:	f8 01       	movw	r30, r16
    4c44:	80 83       	st	Z, r24
    4c46:	91 83       	std	Z+1, r25	; 0x01
    4c48:	a2 83       	std	Z+2, r26	; 0x02
    4c4a:	b3 83       	std	Z+3, r27	; 0x03

00004c4c <.Loc.656>:
	if (__tmp < 1.0)
    4c4c:	ce 01       	movw	r24, r28
    4c4e:	87 57       	subi	r24, 0x77	; 119
    4c50:	9f 4f       	sbci	r25, 0xFF	; 255
    4c52:	20 e0       	ldi	r18, 0x00	; 0
    4c54:	30 e0       	ldi	r19, 0x00	; 0
    4c56:	40 e8       	ldi	r20, 0x80	; 128
    4c58:	5f e3       	ldi	r21, 0x3F	; 63
    4c5a:	dc 01       	movw	r26, r24
    4c5c:	6d 91       	ld	r22, X+
    4c5e:	7d 91       	ld	r23, X+
    4c60:	8d 91       	ld	r24, X+
    4c62:	9c 91       	ld	r25, X
    4c64:	0e 94 3c 31 	call	0x6278	; 0x6278 <__cmpsf2>
    4c68:	88 23       	and	r24, r24
    4c6a:	4c f4       	brge	.+18     	; 0x4c7e <.L360>

00004c6c <.Loc.657>:
		__ticks = 1;
    4c6c:	ce 01       	movw	r24, r28
    4c6e:	83 57       	subi	r24, 0x73	; 115
    4c70:	9f 4f       	sbci	r25, 0xFF	; 255
    4c72:	21 e0       	ldi	r18, 0x01	; 1
    4c74:	30 e0       	ldi	r19, 0x00	; 0
    4c76:	fc 01       	movw	r30, r24
    4c78:	31 83       	std	Z+1, r19	; 0x01
    4c7a:	20 83       	st	Z, r18
    4c7c:	a5 c0       	rjmp	.+330    	; 0x4dc8 <.L220>

00004c7e <.L360>:
	else if (__tmp > 65535)
    4c7e:	ce 01       	movw	r24, r28
    4c80:	87 57       	subi	r24, 0x77	; 119
    4c82:	9f 4f       	sbci	r25, 0xFF	; 255
    4c84:	20 e0       	ldi	r18, 0x00	; 0
    4c86:	3f ef       	ldi	r19, 0xFF	; 255
    4c88:	4f e7       	ldi	r20, 0x7F	; 127
    4c8a:	57 e4       	ldi	r21, 0x47	; 71
    4c8c:	dc 01       	movw	r26, r24
    4c8e:	6d 91       	ld	r22, X+
    4c90:	7d 91       	ld	r23, X+
    4c92:	8d 91       	ld	r24, X+
    4c94:	9c 91       	ld	r25, X
    4c96:	0e 94 9b 32 	call	0x6536	; 0x6536 <__gesf2>
    4c9a:	88 23       	and	r24, r24
    4c9c:	09 f0       	breq	.+2      	; 0x4ca0 <L0^A>

00004c9e <L0^A>:
    4c9e:	0c f4       	brge	.+2      	; 0x4ca2 <.Loc.659>

00004ca0 <L0^A>:
    4ca0:	75 c0       	rjmp	.+234    	; 0x4d8c <.L361>

00004ca2 <.Loc.659>:
		__ticks = (uint16_t) (__ms * 10.0);
    4ca2:	ce 01       	movw	r24, r28
    4ca4:	8b 57       	subi	r24, 0x7B	; 123
    4ca6:	9f 4f       	sbci	r25, 0xFF	; 255
    4ca8:	20 e0       	ldi	r18, 0x00	; 0
    4caa:	30 e0       	ldi	r19, 0x00	; 0
    4cac:	40 e2       	ldi	r20, 0x20	; 32
    4cae:	51 e4       	ldi	r21, 0x41	; 65
    4cb0:	fc 01       	movw	r30, r24
    4cb2:	60 81       	ld	r22, Z
    4cb4:	71 81       	ldd	r23, Z+1	; 0x01
    4cb6:	82 81       	ldd	r24, Z+2	; 0x02
    4cb8:	93 81       	ldd	r25, Z+3	; 0x03
    4cba:	0e 94 a0 32 	call	0x6540	; 0x6540 <__mulsf3>
    4cbe:	c1 52       	subi	r28, 0x21	; 33
    4cc0:	de 4f       	sbci	r29, 0xFE	; 254
    4cc2:	68 83       	st	Y, r22
    4cc4:	79 83       	std	Y+1, r23	; 0x01
    4cc6:	8a 83       	std	Y+2, r24	; 0x02
    4cc8:	9b 83       	std	Y+3, r25	; 0x03
    4cca:	cf 5d       	subi	r28, 0xDF	; 223
    4ccc:	d1 40       	sbci	r29, 0x01	; 1
    4cce:	c1 52       	subi	r28, 0x21	; 33
    4cd0:	de 4f       	sbci	r29, 0xFE	; 254
    4cd2:	88 81       	ld	r24, Y
    4cd4:	99 81       	ldd	r25, Y+1	; 0x01
    4cd6:	aa 81       	ldd	r26, Y+2	; 0x02
    4cd8:	bb 81       	ldd	r27, Y+3	; 0x03
    4cda:	cf 5d       	subi	r28, 0xDF	; 223
    4cdc:	d1 40       	sbci	r29, 0x01	; 1
    4cde:	c9 5d       	subi	r28, 0xD9	; 217
    4ce0:	de 4f       	sbci	r29, 0xFE	; 254
    4ce2:	88 83       	st	Y, r24
    4ce4:	99 83       	std	Y+1, r25	; 0x01
    4ce6:	aa 83       	std	Y+2, r26	; 0x02
    4ce8:	bb 83       	std	Y+3, r27	; 0x03
    4cea:	c7 52       	subi	r28, 0x27	; 39
    4cec:	d1 40       	sbci	r29, 0x01	; 1

00004cee <.Loc.660>:
    4cee:	8e 01       	movw	r16, r28
    4cf0:	03 57       	subi	r16, 0x73	; 115
    4cf2:	1f 4f       	sbci	r17, 0xFF	; 255
    4cf4:	c9 5d       	subi	r28, 0xD9	; 217
    4cf6:	de 4f       	sbci	r29, 0xFE	; 254
    4cf8:	68 81       	ld	r22, Y
    4cfa:	79 81       	ldd	r23, Y+1	; 0x01
    4cfc:	8a 81       	ldd	r24, Y+2	; 0x02
    4cfe:	9b 81       	ldd	r25, Y+3	; 0x03
    4d00:	c7 52       	subi	r28, 0x27	; 39
    4d02:	d1 40       	sbci	r29, 0x01	; 1
    4d04:	0e 94 ba 31 	call	0x6374	; 0x6374 <__fixunssfsi>
    4d08:	cd 51       	subi	r28, 0x1D	; 29
    4d0a:	de 4f       	sbci	r29, 0xFE	; 254
    4d0c:	68 83       	st	Y, r22
    4d0e:	79 83       	std	Y+1, r23	; 0x01
    4d10:	8a 83       	std	Y+2, r24	; 0x02
    4d12:	9b 83       	std	Y+3, r25	; 0x03
    4d14:	c3 5e       	subi	r28, 0xE3	; 227
    4d16:	d1 40       	sbci	r29, 0x01	; 1
    4d18:	cd 51       	subi	r28, 0x1D	; 29
    4d1a:	de 4f       	sbci	r29, 0xFE	; 254
    4d1c:	e8 81       	ld	r30, Y
    4d1e:	f9 81       	ldd	r31, Y+1	; 0x01
    4d20:	c3 5e       	subi	r28, 0xE3	; 227
    4d22:	d1 40       	sbci	r29, 0x01	; 1
    4d24:	d8 01       	movw	r26, r16
    4d26:	11 96       	adiw	r26, 0x01	; 1
    4d28:	fc 93       	st	X, r31
    4d2a:	ee 93       	st	-X, r30

00004d2c <.Loc.661>:
		while(__ticks)
    4d2c:	26 c0       	rjmp	.+76     	; 0x4d7a <.L223>

00004d2e <.L224>:
    4d2e:	ce 01       	movw	r24, r28
    4d30:	81 57       	subi	r24, 0x71	; 113
    4d32:	9f 4f       	sbci	r25, 0xFF	; 255
    4d34:	20 e9       	ldi	r18, 0x90	; 144
    4d36:	31 e0       	ldi	r19, 0x01	; 1
    4d38:	dc 01       	movw	r26, r24
    4d3a:	2d 93       	st	X+, r18
    4d3c:	3c 93       	st	X, r19

00004d3e <.LBB209>:
    4d3e:	ce 01       	movw	r24, r28
    4d40:	81 57       	subi	r24, 0x71	; 113
    4d42:	9f 4f       	sbci	r25, 0xFF	; 255
    4d44:	fc 01       	movw	r30, r24
    4d46:	80 81       	ld	r24, Z
    4d48:	91 81       	ldd	r25, Z+1	; 0x01

00004d4a <.L1^B23>:
    4d4a:	01 97       	sbiw	r24, 0x01	; 1
    4d4c:	f1 f7       	brne	.-4      	; 0x4d4a <.L1^B23>
    4d4e:	9e 01       	movw	r18, r28
    4d50:	21 57       	subi	r18, 0x71	; 113
    4d52:	3f 4f       	sbci	r19, 0xFF	; 255
    4d54:	d9 01       	movw	r26, r18
    4d56:	8d 93       	st	X+, r24
    4d58:	9c 93       	st	X, r25

00004d5a <.Loc.663>:
	...

00004d5c <.LBE209>:
			__ticks --;
    4d5c:	ce 01       	movw	r24, r28
    4d5e:	83 57       	subi	r24, 0x73	; 115
    4d60:	9f 4f       	sbci	r25, 0xFF	; 255
    4d62:	9e 01       	movw	r18, r28
    4d64:	23 57       	subi	r18, 0x73	; 115
    4d66:	3f 4f       	sbci	r19, 0xFF	; 255
    4d68:	f9 01       	movw	r30, r18
    4d6a:	20 81       	ld	r18, Z
    4d6c:	31 81       	ldd	r19, Z+1	; 0x01
    4d6e:	21 50       	subi	r18, 0x01	; 1
    4d70:	31 09       	sbc	r19, r1
    4d72:	dc 01       	movw	r26, r24
    4d74:	11 96       	adiw	r26, 0x01	; 1
    4d76:	3c 93       	st	X, r19
    4d78:	2e 93       	st	-X, r18

00004d7a <.L223>:
		while(__ticks)
    4d7a:	ce 01       	movw	r24, r28
    4d7c:	83 57       	subi	r24, 0x73	; 115
    4d7e:	9f 4f       	sbci	r25, 0xFF	; 255
    4d80:	fc 01       	movw	r30, r24
    4d82:	80 81       	ld	r24, Z
    4d84:	91 81       	ldd	r25, Z+1	; 0x01
    4d86:	00 97       	sbiw	r24, 0x00	; 0
    4d88:	91 f6       	brne	.-92     	; 0x4d2e <.L224>

00004d8a <.Loc.666>:
		return;
    4d8a:	3a c0       	rjmp	.+116    	; 0x4e00 <.L225>

00004d8c <.L361>:
		__ticks = (uint16_t)__tmp;
    4d8c:	8e 01       	movw	r16, r28
    4d8e:	03 57       	subi	r16, 0x73	; 115
    4d90:	1f 4f       	sbci	r17, 0xFF	; 255
    4d92:	ce 01       	movw	r24, r28
    4d94:	87 57       	subi	r24, 0x77	; 119
    4d96:	9f 4f       	sbci	r25, 0xFF	; 255
    4d98:	dc 01       	movw	r26, r24
    4d9a:	6d 91       	ld	r22, X+
    4d9c:	7d 91       	ld	r23, X+
    4d9e:	8d 91       	ld	r24, X+
    4da0:	9c 91       	ld	r25, X
    4da2:	0e 94 ba 31 	call	0x6374	; 0x6374 <__fixunssfsi>
    4da6:	c9 51       	subi	r28, 0x19	; 25
    4da8:	de 4f       	sbci	r29, 0xFE	; 254
    4daa:	68 83       	st	Y, r22
    4dac:	79 83       	std	Y+1, r23	; 0x01
    4dae:	8a 83       	std	Y+2, r24	; 0x02
    4db0:	9b 83       	std	Y+3, r25	; 0x03
    4db2:	c7 5e       	subi	r28, 0xE7	; 231
    4db4:	d1 40       	sbci	r29, 0x01	; 1
    4db6:	c9 51       	subi	r28, 0x19	; 25
    4db8:	de 4f       	sbci	r29, 0xFE	; 254
    4dba:	88 81       	ld	r24, Y
    4dbc:	99 81       	ldd	r25, Y+1	; 0x01
    4dbe:	c7 5e       	subi	r28, 0xE7	; 231
    4dc0:	d1 40       	sbci	r29, 0x01	; 1
    4dc2:	f8 01       	movw	r30, r16
    4dc4:	91 83       	std	Z+1, r25	; 0x01
    4dc6:	80 83       	st	Z, r24

00004dc8 <.L220>:
    4dc8:	ce 01       	movw	r24, r28
    4dca:	8f 56       	subi	r24, 0x6F	; 111
    4dcc:	9f 4f       	sbci	r25, 0xFF	; 255
    4dce:	9e 01       	movw	r18, r28
    4dd0:	23 57       	subi	r18, 0x73	; 115
    4dd2:	3f 4f       	sbci	r19, 0xFF	; 255
    4dd4:	d9 01       	movw	r26, r18
    4dd6:	2d 91       	ld	r18, X+
    4dd8:	3c 91       	ld	r19, X
    4dda:	fc 01       	movw	r30, r24
    4ddc:	31 83       	std	Z+1, r19	; 0x01
    4dde:	20 83       	st	Z, r18

00004de0 <.LBB211>:
    4de0:	ce 01       	movw	r24, r28
    4de2:	8f 56       	subi	r24, 0x6F	; 111
    4de4:	9f 4f       	sbci	r25, 0xFF	; 255
    4de6:	dc 01       	movw	r26, r24
    4de8:	8d 91       	ld	r24, X+
    4dea:	9c 91       	ld	r25, X
    4dec:	11 97       	sbiw	r26, 0x01	; 1

00004dee <.L1^B24>:
    4dee:	01 97       	sbiw	r24, 0x01	; 1
    4df0:	f1 f7       	brne	.-4      	; 0x4dee <.L1^B24>
    4df2:	9e 01       	movw	r18, r28
    4df4:	2f 56       	subi	r18, 0x6F	; 111
    4df6:	3f 4f       	sbci	r19, 0xFF	; 255
    4df8:	f9 01       	movw	r30, r18
    4dfa:	91 83       	std	Z+1, r25	; 0x01
    4dfc:	80 83       	st	Z, r24

00004dfe <.Loc.669>:
	...

00004e00 <.L225>:
                _delay_ms(20);
                noodstop_Onthouden = 1;
    4e00:	81 e0       	ldi	r24, 0x01	; 1
    4e02:	90 e0       	ldi	r25, 0x00	; 0
    4e04:	90 93 37 02 	sts	0x0237, r25	; 0x800237 <noodstop_Onthouden+0x1>
    4e08:	80 93 36 02 	sts	0x0236, r24	; 0x800236 <noodstop_Onthouden>

00004e0c <.Loc.671>:
                state = Noodstop;
    4e0c:	84 e0       	ldi	r24, 0x04	; 4
    4e0e:	90 e0       	ldi	r25, 0x00	; 0
    4e10:	9a 83       	std	Y+2, r25	; 0x02
    4e12:	89 83       	std	Y+1, r24	; 0x01

00004e14 <.Loc.672>:
                break;
    4e14:	0c 94 c5 30 	jmp	0x618a	; 0x618a <.L116>

00004e18 <.L123>:
            break;

        case DraaienL:

            // Laten rijden
            rsnelheid(20);
    4e18:	84 e1       	ldi	r24, 0x14	; 20
    4e1a:	90 e0       	ldi	r25, 0x00	; 0
    4e1c:	0e 94 e6 1a 	call	0x35cc	; 0x35cc <rsnelheid>

00004e20 <.Loc.674>:
            lsnelheid(10);
    4e20:	8a e0       	ldi	r24, 0x0A	; 10
    4e22:	90 e0       	ldi	r25, 0x00	; 0
    4e24:	0e 94 ca 1a 	call	0x3594	; 0x3594 <lsnelheid>

00004e28 <.Loc.675>:

            // uit state als sonar links minder dan 50 mm
            // Daarna weer rechtdoor rijden
            if(leessonaruit(1) < 30){
    4e28:	81 e0       	ldi	r24, 0x01	; 1
    4e2a:	90 e0       	ldi	r25, 0x00	; 0
    4e2c:	0e 94 ee 17 	call	0x2fdc	; 0x2fdc <leessonaruit>

00004e30 <.Loc.676>:
    4e30:	8d 31       	cpi	r24, 0x1D	; 29
    4e32:	91 05       	cpc	r25, r1
    4e34:	09 f0       	breq	.+2      	; 0x4e38 <.Loc.677>

00004e36 <L0^A>:
    4e36:	8c f4       	brge	.+34     	; 0x4e5a <.L226>

00004e38 <.Loc.677>:
                draaienL_Onthouden = 0;
    4e38:	10 92 41 02 	sts	0x0241, r1	; 0x800241 <draaienL_Onthouden+0x1>
    4e3c:	10 92 40 02 	sts	0x0240, r1	; 0x800240 <draaienL_Onthouden>

00004e40 <.Loc.678>:
                rijstrook += 1;
    4e40:	80 91 02 02 	lds	r24, 0x0202	; 0x800202 <rijstrook>
    4e44:	90 91 03 02 	lds	r25, 0x0203	; 0x800203 <rijstrook+0x1>
    4e48:	01 96       	adiw	r24, 0x01	; 1
    4e4a:	90 93 03 02 	sts	0x0203, r25	; 0x800203 <rijstrook+0x1>
    4e4e:	80 93 02 02 	sts	0x0202, r24	; 0x800202 <rijstrook>

00004e52 <.Loc.679>:
                state = Rechtdoorrijden;
    4e52:	1a 82       	std	Y+2, r1	; 0x02
    4e54:	19 82       	std	Y+1, r1	; 0x01

00004e56 <.Loc.680>:
                break;
    4e56:	0c 94 c5 30 	jmp	0x618a	; 0x618a <.L116>

00004e5a <.L226>:
            }

            if(((PINA & (1<<PA2)) != 0) && (noodstop_Onthouden == 0)){
    4e5a:	80 e2       	ldi	r24, 0x20	; 32
    4e5c:	90 e0       	ldi	r25, 0x00	; 0
    4e5e:	dc 01       	movw	r26, r24
    4e60:	8c 91       	ld	r24, X

00004e62 <.Loc.682>:
    4e62:	88 2f       	mov	r24, r24
    4e64:	90 e0       	ldi	r25, 0x00	; 0
    4e66:	84 70       	andi	r24, 0x04	; 4
    4e68:	99 27       	eor	r25, r25

00004e6a <.Loc.683>:
    4e6a:	00 97       	sbiw	r24, 0x00	; 0
    4e6c:	11 f4       	brne	.+4      	; 0x4e72 <.Loc.684>

00004e6e <L0^A>:
    4e6e:	0c 94 c1 30 	jmp	0x6182	; 0x6182 <.L382>

00004e72 <.Loc.684>:
    4e72:	80 91 36 02 	lds	r24, 0x0236	; 0x800236 <noodstop_Onthouden>
    4e76:	90 91 37 02 	lds	r25, 0x0237	; 0x800237 <noodstop_Onthouden+0x1>

00004e7a <.Loc.685>:
    4e7a:	00 97       	sbiw	r24, 0x00	; 0
    4e7c:	11 f0       	breq	.+4      	; 0x4e82 <L0^A+0x4>

00004e7e <L0^A>:
    4e7e:	0c 94 c1 30 	jmp	0x6182	; 0x6182 <.L382>
    4e82:	9e 01       	movw	r18, r28
    4e84:	2d 56       	subi	r18, 0x6D	; 109
    4e86:	3f 4f       	sbci	r19, 0xFF	; 255
    4e88:	80 e0       	ldi	r24, 0x00	; 0
    4e8a:	90 e0       	ldi	r25, 0x00	; 0
    4e8c:	a0 ea       	ldi	r26, 0xA0	; 160
    4e8e:	b1 e4       	ldi	r27, 0x41	; 65
    4e90:	f9 01       	movw	r30, r18
    4e92:	80 83       	st	Z, r24
    4e94:	91 83       	std	Z+1, r25	; 0x01
    4e96:	a2 83       	std	Z+2, r26	; 0x02
    4e98:	b3 83       	std	Z+3, r27	; 0x03

00004e9a <.LBB213>:
	__tmp = ((F_CPU) / 4e3) * __ms;
    4e9a:	8e 01       	movw	r16, r28
    4e9c:	09 56       	subi	r16, 0x69	; 105
    4e9e:	1f 4f       	sbci	r17, 0xFF	; 255
    4ea0:	ce 01       	movw	r24, r28
    4ea2:	8d 56       	subi	r24, 0x6D	; 109
    4ea4:	9f 4f       	sbci	r25, 0xFF	; 255
    4ea6:	20 e0       	ldi	r18, 0x00	; 0
    4ea8:	30 e0       	ldi	r19, 0x00	; 0
    4eaa:	4a e7       	ldi	r20, 0x7A	; 122
    4eac:	55 e4       	ldi	r21, 0x45	; 69
    4eae:	dc 01       	movw	r26, r24
    4eb0:	6d 91       	ld	r22, X+
    4eb2:	7d 91       	ld	r23, X+
    4eb4:	8d 91       	ld	r24, X+
    4eb6:	9c 91       	ld	r25, X
    4eb8:	0e 94 a0 32 	call	0x6540	; 0x6540 <__mulsf3>
    4ebc:	c5 51       	subi	r28, 0x15	; 21
    4ebe:	de 4f       	sbci	r29, 0xFE	; 254
    4ec0:	68 83       	st	Y, r22
    4ec2:	79 83       	std	Y+1, r23	; 0x01
    4ec4:	8a 83       	std	Y+2, r24	; 0x02
    4ec6:	9b 83       	std	Y+3, r25	; 0x03
    4ec8:	cb 5e       	subi	r28, 0xEB	; 235
    4eca:	d1 40       	sbci	r29, 0x01	; 1
    4ecc:	c5 51       	subi	r28, 0x15	; 21
    4ece:	de 4f       	sbci	r29, 0xFE	; 254
    4ed0:	88 81       	ld	r24, Y
    4ed2:	99 81       	ldd	r25, Y+1	; 0x01
    4ed4:	aa 81       	ldd	r26, Y+2	; 0x02
    4ed6:	bb 81       	ldd	r27, Y+3	; 0x03
    4ed8:	cb 5e       	subi	r28, 0xEB	; 235
    4eda:	d1 40       	sbci	r29, 0x01	; 1
    4edc:	f8 01       	movw	r30, r16
    4ede:	80 83       	st	Z, r24
    4ee0:	91 83       	std	Z+1, r25	; 0x01
    4ee2:	a2 83       	std	Z+2, r26	; 0x02
    4ee4:	b3 83       	std	Z+3, r27	; 0x03

00004ee6 <.Loc.687>:
	if (__tmp < 1.0)
    4ee6:	ce 01       	movw	r24, r28
    4ee8:	89 56       	subi	r24, 0x69	; 105
    4eea:	9f 4f       	sbci	r25, 0xFF	; 255
    4eec:	20 e0       	ldi	r18, 0x00	; 0
    4eee:	30 e0       	ldi	r19, 0x00	; 0
    4ef0:	40 e8       	ldi	r20, 0x80	; 128
    4ef2:	5f e3       	ldi	r21, 0x3F	; 63
    4ef4:	dc 01       	movw	r26, r24
    4ef6:	6d 91       	ld	r22, X+
    4ef8:	7d 91       	ld	r23, X+
    4efa:	8d 91       	ld	r24, X+
    4efc:	9c 91       	ld	r25, X
    4efe:	0e 94 3c 31 	call	0x6278	; 0x6278 <__cmpsf2>
    4f02:	88 23       	and	r24, r24
    4f04:	4c f4       	brge	.+18     	; 0x4f18 <.L362>

00004f06 <.Loc.688>:
		__ticks = 1;
    4f06:	ce 01       	movw	r24, r28
    4f08:	85 56       	subi	r24, 0x65	; 101
    4f0a:	9f 4f       	sbci	r25, 0xFF	; 255
    4f0c:	21 e0       	ldi	r18, 0x01	; 1
    4f0e:	30 e0       	ldi	r19, 0x00	; 0
    4f10:	fc 01       	movw	r30, r24
    4f12:	31 83       	std	Z+1, r19	; 0x01
    4f14:	20 83       	st	Z, r18
    4f16:	a5 c0       	rjmp	.+330    	; 0x5062 <.L230>

00004f18 <.L362>:
	else if (__tmp > 65535)
    4f18:	ce 01       	movw	r24, r28
    4f1a:	89 56       	subi	r24, 0x69	; 105
    4f1c:	9f 4f       	sbci	r25, 0xFF	; 255
    4f1e:	20 e0       	ldi	r18, 0x00	; 0
    4f20:	3f ef       	ldi	r19, 0xFF	; 255
    4f22:	4f e7       	ldi	r20, 0x7F	; 127
    4f24:	57 e4       	ldi	r21, 0x47	; 71
    4f26:	dc 01       	movw	r26, r24
    4f28:	6d 91       	ld	r22, X+
    4f2a:	7d 91       	ld	r23, X+
    4f2c:	8d 91       	ld	r24, X+
    4f2e:	9c 91       	ld	r25, X
    4f30:	0e 94 9b 32 	call	0x6536	; 0x6536 <__gesf2>
    4f34:	88 23       	and	r24, r24
    4f36:	09 f0       	breq	.+2      	; 0x4f3a <L0^A>

00004f38 <L0^A>:
    4f38:	0c f4       	brge	.+2      	; 0x4f3c <.Loc.690>

00004f3a <L0^A>:
    4f3a:	75 c0       	rjmp	.+234    	; 0x5026 <.L363>

00004f3c <.Loc.690>:
		__ticks = (uint16_t) (__ms * 10.0);
    4f3c:	ce 01       	movw	r24, r28
    4f3e:	8d 56       	subi	r24, 0x6D	; 109
    4f40:	9f 4f       	sbci	r25, 0xFF	; 255
    4f42:	20 e0       	ldi	r18, 0x00	; 0
    4f44:	30 e0       	ldi	r19, 0x00	; 0
    4f46:	40 e2       	ldi	r20, 0x20	; 32
    4f48:	51 e4       	ldi	r21, 0x41	; 65
    4f4a:	fc 01       	movw	r30, r24
    4f4c:	60 81       	ld	r22, Z
    4f4e:	71 81       	ldd	r23, Z+1	; 0x01
    4f50:	82 81       	ldd	r24, Z+2	; 0x02
    4f52:	93 81       	ldd	r25, Z+3	; 0x03
    4f54:	0e 94 a0 32 	call	0x6540	; 0x6540 <__mulsf3>
    4f58:	c1 51       	subi	r28, 0x11	; 17
    4f5a:	de 4f       	sbci	r29, 0xFE	; 254
    4f5c:	68 83       	st	Y, r22
    4f5e:	79 83       	std	Y+1, r23	; 0x01
    4f60:	8a 83       	std	Y+2, r24	; 0x02
    4f62:	9b 83       	std	Y+3, r25	; 0x03
    4f64:	cf 5e       	subi	r28, 0xEF	; 239
    4f66:	d1 40       	sbci	r29, 0x01	; 1
    4f68:	c1 51       	subi	r28, 0x11	; 17
    4f6a:	de 4f       	sbci	r29, 0xFE	; 254
    4f6c:	88 81       	ld	r24, Y
    4f6e:	99 81       	ldd	r25, Y+1	; 0x01
    4f70:	aa 81       	ldd	r26, Y+2	; 0x02
    4f72:	bb 81       	ldd	r27, Y+3	; 0x03
    4f74:	cf 5e       	subi	r28, 0xEF	; 239
    4f76:	d1 40       	sbci	r29, 0x01	; 1
    4f78:	c5 5d       	subi	r28, 0xD5	; 213
    4f7a:	de 4f       	sbci	r29, 0xFE	; 254
    4f7c:	88 83       	st	Y, r24
    4f7e:	99 83       	std	Y+1, r25	; 0x01
    4f80:	aa 83       	std	Y+2, r26	; 0x02
    4f82:	bb 83       	std	Y+3, r27	; 0x03
    4f84:	cb 52       	subi	r28, 0x2B	; 43
    4f86:	d1 40       	sbci	r29, 0x01	; 1

00004f88 <.Loc.691>:
    4f88:	8e 01       	movw	r16, r28
    4f8a:	05 56       	subi	r16, 0x65	; 101
    4f8c:	1f 4f       	sbci	r17, 0xFF	; 255
    4f8e:	c5 5d       	subi	r28, 0xD5	; 213
    4f90:	de 4f       	sbci	r29, 0xFE	; 254
    4f92:	68 81       	ld	r22, Y
    4f94:	79 81       	ldd	r23, Y+1	; 0x01
    4f96:	8a 81       	ldd	r24, Y+2	; 0x02
    4f98:	9b 81       	ldd	r25, Y+3	; 0x03
    4f9a:	cb 52       	subi	r28, 0x2B	; 43
    4f9c:	d1 40       	sbci	r29, 0x01	; 1
    4f9e:	0e 94 ba 31 	call	0x6374	; 0x6374 <__fixunssfsi>
    4fa2:	cd 50       	subi	r28, 0x0D	; 13
    4fa4:	de 4f       	sbci	r29, 0xFE	; 254
    4fa6:	68 83       	st	Y, r22
    4fa8:	79 83       	std	Y+1, r23	; 0x01
    4faa:	8a 83       	std	Y+2, r24	; 0x02
    4fac:	9b 83       	std	Y+3, r25	; 0x03
    4fae:	c3 5f       	subi	r28, 0xF3	; 243
    4fb0:	d1 40       	sbci	r29, 0x01	; 1
    4fb2:	cd 50       	subi	r28, 0x0D	; 13
    4fb4:	de 4f       	sbci	r29, 0xFE	; 254
    4fb6:	e8 81       	ld	r30, Y
    4fb8:	f9 81       	ldd	r31, Y+1	; 0x01
    4fba:	c3 5f       	subi	r28, 0xF3	; 243
    4fbc:	d1 40       	sbci	r29, 0x01	; 1
    4fbe:	d8 01       	movw	r26, r16
    4fc0:	11 96       	adiw	r26, 0x01	; 1
    4fc2:	fc 93       	st	X, r31
    4fc4:	ee 93       	st	-X, r30

00004fc6 <.Loc.692>:
		while(__ticks)
    4fc6:	26 c0       	rjmp	.+76     	; 0x5014 <.L233>

00004fc8 <.L234>:
    4fc8:	ce 01       	movw	r24, r28
    4fca:	83 56       	subi	r24, 0x63	; 99
    4fcc:	9f 4f       	sbci	r25, 0xFF	; 255
    4fce:	20 e9       	ldi	r18, 0x90	; 144
    4fd0:	31 e0       	ldi	r19, 0x01	; 1
    4fd2:	dc 01       	movw	r26, r24
    4fd4:	2d 93       	st	X+, r18
    4fd6:	3c 93       	st	X, r19

00004fd8 <.LBB215>:
    4fd8:	ce 01       	movw	r24, r28
    4fda:	83 56       	subi	r24, 0x63	; 99
    4fdc:	9f 4f       	sbci	r25, 0xFF	; 255
    4fde:	fc 01       	movw	r30, r24
    4fe0:	80 81       	ld	r24, Z
    4fe2:	91 81       	ldd	r25, Z+1	; 0x01

00004fe4 <.L1^B25>:
    4fe4:	01 97       	sbiw	r24, 0x01	; 1
    4fe6:	f1 f7       	brne	.-4      	; 0x4fe4 <.L1^B25>
    4fe8:	9e 01       	movw	r18, r28
    4fea:	23 56       	subi	r18, 0x63	; 99
    4fec:	3f 4f       	sbci	r19, 0xFF	; 255
    4fee:	d9 01       	movw	r26, r18
    4ff0:	8d 93       	st	X+, r24
    4ff2:	9c 93       	st	X, r25

00004ff4 <.Loc.694>:
	...

00004ff6 <.LBE215>:
			__ticks --;
    4ff6:	ce 01       	movw	r24, r28
    4ff8:	85 56       	subi	r24, 0x65	; 101
    4ffa:	9f 4f       	sbci	r25, 0xFF	; 255
    4ffc:	9e 01       	movw	r18, r28
    4ffe:	25 56       	subi	r18, 0x65	; 101
    5000:	3f 4f       	sbci	r19, 0xFF	; 255
    5002:	f9 01       	movw	r30, r18
    5004:	20 81       	ld	r18, Z
    5006:	31 81       	ldd	r19, Z+1	; 0x01
    5008:	21 50       	subi	r18, 0x01	; 1
    500a:	31 09       	sbc	r19, r1
    500c:	dc 01       	movw	r26, r24
    500e:	11 96       	adiw	r26, 0x01	; 1
    5010:	3c 93       	st	X, r19
    5012:	2e 93       	st	-X, r18

00005014 <.L233>:
		while(__ticks)
    5014:	ce 01       	movw	r24, r28
    5016:	85 56       	subi	r24, 0x65	; 101
    5018:	9f 4f       	sbci	r25, 0xFF	; 255
    501a:	fc 01       	movw	r30, r24
    501c:	80 81       	ld	r24, Z
    501e:	91 81       	ldd	r25, Z+1	; 0x01
    5020:	00 97       	sbiw	r24, 0x00	; 0
    5022:	91 f6       	brne	.-92     	; 0x4fc8 <.L234>

00005024 <.Loc.697>:
		return;
    5024:	3a c0       	rjmp	.+116    	; 0x509a <.L235>

00005026 <.L363>:
		__ticks = (uint16_t)__tmp;
    5026:	8e 01       	movw	r16, r28
    5028:	05 56       	subi	r16, 0x65	; 101
    502a:	1f 4f       	sbci	r17, 0xFF	; 255
    502c:	ce 01       	movw	r24, r28
    502e:	89 56       	subi	r24, 0x69	; 105
    5030:	9f 4f       	sbci	r25, 0xFF	; 255
    5032:	dc 01       	movw	r26, r24
    5034:	6d 91       	ld	r22, X+
    5036:	7d 91       	ld	r23, X+
    5038:	8d 91       	ld	r24, X+
    503a:	9c 91       	ld	r25, X
    503c:	0e 94 ba 31 	call	0x6374	; 0x6374 <__fixunssfsi>
    5040:	c9 50       	subi	r28, 0x09	; 9
    5042:	de 4f       	sbci	r29, 0xFE	; 254
    5044:	68 83       	st	Y, r22
    5046:	79 83       	std	Y+1, r23	; 0x01
    5048:	8a 83       	std	Y+2, r24	; 0x02
    504a:	9b 83       	std	Y+3, r25	; 0x03
    504c:	c7 5f       	subi	r28, 0xF7	; 247
    504e:	d1 40       	sbci	r29, 0x01	; 1
    5050:	c9 50       	subi	r28, 0x09	; 9
    5052:	de 4f       	sbci	r29, 0xFE	; 254
    5054:	88 81       	ld	r24, Y
    5056:	99 81       	ldd	r25, Y+1	; 0x01
    5058:	c7 5f       	subi	r28, 0xF7	; 247
    505a:	d1 40       	sbci	r29, 0x01	; 1
    505c:	f8 01       	movw	r30, r16
    505e:	91 83       	std	Z+1, r25	; 0x01
    5060:	80 83       	st	Z, r24

00005062 <.L230>:
    5062:	ce 01       	movw	r24, r28
    5064:	81 56       	subi	r24, 0x61	; 97
    5066:	9f 4f       	sbci	r25, 0xFF	; 255
    5068:	9e 01       	movw	r18, r28
    506a:	25 56       	subi	r18, 0x65	; 101
    506c:	3f 4f       	sbci	r19, 0xFF	; 255
    506e:	d9 01       	movw	r26, r18
    5070:	2d 91       	ld	r18, X+
    5072:	3c 91       	ld	r19, X
    5074:	fc 01       	movw	r30, r24
    5076:	31 83       	std	Z+1, r19	; 0x01
    5078:	20 83       	st	Z, r18

0000507a <.LBB217>:
    507a:	ce 01       	movw	r24, r28
    507c:	81 56       	subi	r24, 0x61	; 97
    507e:	9f 4f       	sbci	r25, 0xFF	; 255
    5080:	dc 01       	movw	r26, r24
    5082:	8d 91       	ld	r24, X+
    5084:	9c 91       	ld	r25, X
    5086:	11 97       	sbiw	r26, 0x01	; 1

00005088 <.L1^B26>:
    5088:	01 97       	sbiw	r24, 0x01	; 1
    508a:	f1 f7       	brne	.-4      	; 0x5088 <.L1^B26>
    508c:	9e 01       	movw	r18, r28
    508e:	21 56       	subi	r18, 0x61	; 97
    5090:	3f 4f       	sbci	r19, 0xFF	; 255
    5092:	f9 01       	movw	r30, r18
    5094:	91 83       	std	Z+1, r25	; 0x01
    5096:	80 83       	st	Z, r24

00005098 <.Loc.700>:
	...

0000509a <.L235>:
                _delay_ms(20);
                noodstop_Onthouden = 1;
    509a:	81 e0       	ldi	r24, 0x01	; 1
    509c:	90 e0       	ldi	r25, 0x00	; 0
    509e:	90 93 37 02 	sts	0x0237, r25	; 0x800237 <noodstop_Onthouden+0x1>
    50a2:	80 93 36 02 	sts	0x0236, r24	; 0x800236 <noodstop_Onthouden>

000050a6 <.Loc.702>:
                state = Noodstop;
    50a6:	84 e0       	ldi	r24, 0x04	; 4
    50a8:	90 e0       	ldi	r25, 0x00	; 0
    50aa:	9a 83       	std	Y+2, r25	; 0x02
    50ac:	89 83       	std	Y+1, r24	; 0x01

000050ae <.Loc.703>:
                break;
    50ae:	0c 94 c5 30 	jmp	0x618a	; 0x618a <.L116>

000050b2 <.L122>:
            }
            break;

        case Volgen:
            followled(1);
    50b2:	81 e0       	ldi	r24, 0x01	; 1
    50b4:	90 e0       	ldi	r25, 0x00	; 0
    50b6:	0e 94 73 16 	call	0x2ce6	; 0x2ce6 <followled>

000050ba <.Loc.705>:

            // In deze toestand rijdt hij niet, omdat het (nog) niet geprogrammeerd is
            rsnelheid(0);
    50ba:	80 e0       	ldi	r24, 0x00	; 0
    50bc:	90 e0       	ldi	r25, 0x00	; 0
    50be:	0e 94 e6 1a 	call	0x35cc	; 0x35cc <rsnelheid>

000050c2 <.Loc.706>:
            lsnelheid(0);
    50c2:	80 e0       	ldi	r24, 0x00	; 0
    50c4:	90 e0       	ldi	r25, 0x00	; 0
    50c6:	0e 94 ca 1a 	call	0x3594	; 0x3594 <lsnelheid>

000050ca <.Loc.707>:

            if(leestaanknopuit()){
    50ca:	0e 94 28 17 	call	0x2e50	; 0x2e50 <leestaanknopuit>

000050ce <.Loc.708>:
    50ce:	00 97       	sbiw	r24, 0x00	; 0
    50d0:	09 f4       	brne	.+2      	; 0x50d4 <L0^A+0x2>

000050d2 <L0^A>:
    50d2:	1b c1       	rjmp	.+566    	; 0x530a <.L236>
    50d4:	9e 01       	movw	r18, r28
    50d6:	2f 55       	subi	r18, 0x5F	; 95
    50d8:	3f 4f       	sbci	r19, 0xFF	; 255
    50da:	80 e0       	ldi	r24, 0x00	; 0
    50dc:	90 e0       	ldi	r25, 0x00	; 0
    50de:	a0 ea       	ldi	r26, 0xA0	; 160
    50e0:	b1 e4       	ldi	r27, 0x41	; 65
    50e2:	f9 01       	movw	r30, r18
    50e4:	80 83       	st	Z, r24
    50e6:	91 83       	std	Z+1, r25	; 0x01
    50e8:	a2 83       	std	Z+2, r26	; 0x02
    50ea:	b3 83       	std	Z+3, r27	; 0x03

000050ec <.LBB219>:
	__tmp = ((F_CPU) / 4e3) * __ms;
    50ec:	8e 01       	movw	r16, r28
    50ee:	0b 55       	subi	r16, 0x5B	; 91
    50f0:	1f 4f       	sbci	r17, 0xFF	; 255
    50f2:	ce 01       	movw	r24, r28
    50f4:	8f 55       	subi	r24, 0x5F	; 95
    50f6:	9f 4f       	sbci	r25, 0xFF	; 255
    50f8:	20 e0       	ldi	r18, 0x00	; 0
    50fa:	30 e0       	ldi	r19, 0x00	; 0
    50fc:	4a e7       	ldi	r20, 0x7A	; 122
    50fe:	55 e4       	ldi	r21, 0x45	; 69
    5100:	dc 01       	movw	r26, r24
    5102:	6d 91       	ld	r22, X+
    5104:	7d 91       	ld	r23, X+
    5106:	8d 91       	ld	r24, X+
    5108:	9c 91       	ld	r25, X
    510a:	0e 94 a0 32 	call	0x6540	; 0x6540 <__mulsf3>
    510e:	c5 50       	subi	r28, 0x05	; 5
    5110:	de 4f       	sbci	r29, 0xFE	; 254
    5112:	68 83       	st	Y, r22
    5114:	79 83       	std	Y+1, r23	; 0x01
    5116:	8a 83       	std	Y+2, r24	; 0x02
    5118:	9b 83       	std	Y+3, r25	; 0x03
    511a:	cb 5f       	subi	r28, 0xFB	; 251
    511c:	d1 40       	sbci	r29, 0x01	; 1
    511e:	c5 50       	subi	r28, 0x05	; 5
    5120:	de 4f       	sbci	r29, 0xFE	; 254
    5122:	88 81       	ld	r24, Y
    5124:	99 81       	ldd	r25, Y+1	; 0x01
    5126:	aa 81       	ldd	r26, Y+2	; 0x02
    5128:	bb 81       	ldd	r27, Y+3	; 0x03
    512a:	cb 5f       	subi	r28, 0xFB	; 251
    512c:	d1 40       	sbci	r29, 0x01	; 1
    512e:	f8 01       	movw	r30, r16
    5130:	80 83       	st	Z, r24
    5132:	91 83       	std	Z+1, r25	; 0x01
    5134:	a2 83       	std	Z+2, r26	; 0x02
    5136:	b3 83       	std	Z+3, r27	; 0x03

00005138 <.Loc.710>:
	if (__tmp < 1.0)
    5138:	ce 01       	movw	r24, r28
    513a:	8b 55       	subi	r24, 0x5B	; 91
    513c:	9f 4f       	sbci	r25, 0xFF	; 255
    513e:	20 e0       	ldi	r18, 0x00	; 0
    5140:	30 e0       	ldi	r19, 0x00	; 0
    5142:	40 e8       	ldi	r20, 0x80	; 128
    5144:	5f e3       	ldi	r21, 0x3F	; 63
    5146:	dc 01       	movw	r26, r24
    5148:	6d 91       	ld	r22, X+
    514a:	7d 91       	ld	r23, X+
    514c:	8d 91       	ld	r24, X+
    514e:	9c 91       	ld	r25, X
    5150:	0e 94 3c 31 	call	0x6278	; 0x6278 <__cmpsf2>
    5154:	88 23       	and	r24, r24
    5156:	4c f4       	brge	.+18     	; 0x516a <.L364>

00005158 <.Loc.711>:
		__ticks = 1;
    5158:	ce 01       	movw	r24, r28
    515a:	87 55       	subi	r24, 0x57	; 87
    515c:	9f 4f       	sbci	r25, 0xFF	; 255
    515e:	21 e0       	ldi	r18, 0x01	; 1
    5160:	30 e0       	ldi	r19, 0x00	; 0
    5162:	fc 01       	movw	r30, r24
    5164:	31 83       	std	Z+1, r19	; 0x01
    5166:	20 83       	st	Z, r18
    5168:	a5 c0       	rjmp	.+330    	; 0x52b4 <.L239>

0000516a <.L364>:
	else if (__tmp > 65535)
    516a:	ce 01       	movw	r24, r28
    516c:	8b 55       	subi	r24, 0x5B	; 91
    516e:	9f 4f       	sbci	r25, 0xFF	; 255
    5170:	20 e0       	ldi	r18, 0x00	; 0
    5172:	3f ef       	ldi	r19, 0xFF	; 255
    5174:	4f e7       	ldi	r20, 0x7F	; 127
    5176:	57 e4       	ldi	r21, 0x47	; 71
    5178:	dc 01       	movw	r26, r24
    517a:	6d 91       	ld	r22, X+
    517c:	7d 91       	ld	r23, X+
    517e:	8d 91       	ld	r24, X+
    5180:	9c 91       	ld	r25, X
    5182:	0e 94 9b 32 	call	0x6536	; 0x6536 <__gesf2>
    5186:	88 23       	and	r24, r24
    5188:	09 f0       	breq	.+2      	; 0x518c <L0^A>

0000518a <L0^A>:
    518a:	0c f4       	brge	.+2      	; 0x518e <.Loc.713>

0000518c <L0^A>:
    518c:	75 c0       	rjmp	.+234    	; 0x5278 <.L365>

0000518e <.Loc.713>:
		__ticks = (uint16_t) (__ms * 10.0);
    518e:	ce 01       	movw	r24, r28
    5190:	8f 55       	subi	r24, 0x5F	; 95
    5192:	9f 4f       	sbci	r25, 0xFF	; 255
    5194:	20 e0       	ldi	r18, 0x00	; 0
    5196:	30 e0       	ldi	r19, 0x00	; 0
    5198:	40 e2       	ldi	r20, 0x20	; 32
    519a:	51 e4       	ldi	r21, 0x41	; 65
    519c:	fc 01       	movw	r30, r24
    519e:	60 81       	ld	r22, Z
    51a0:	71 81       	ldd	r23, Z+1	; 0x01
    51a2:	82 81       	ldd	r24, Z+2	; 0x02
    51a4:	93 81       	ldd	r25, Z+3	; 0x03
    51a6:	0e 94 a0 32 	call	0x6540	; 0x6540 <__mulsf3>
    51aa:	c1 50       	subi	r28, 0x01	; 1
    51ac:	de 4f       	sbci	r29, 0xFE	; 254
    51ae:	68 83       	st	Y, r22
    51b0:	79 83       	std	Y+1, r23	; 0x01
    51b2:	8a 83       	std	Y+2, r24	; 0x02
    51b4:	9b 83       	std	Y+3, r25	; 0x03
    51b6:	cf 5f       	subi	r28, 0xFF	; 255
    51b8:	d1 40       	sbci	r29, 0x01	; 1
    51ba:	c1 50       	subi	r28, 0x01	; 1
    51bc:	de 4f       	sbci	r29, 0xFE	; 254
    51be:	88 81       	ld	r24, Y
    51c0:	99 81       	ldd	r25, Y+1	; 0x01
    51c2:	aa 81       	ldd	r26, Y+2	; 0x02
    51c4:	bb 81       	ldd	r27, Y+3	; 0x03
    51c6:	cf 5f       	subi	r28, 0xFF	; 255
    51c8:	d1 40       	sbci	r29, 0x01	; 1
    51ca:	c1 5d       	subi	r28, 0xD1	; 209
    51cc:	de 4f       	sbci	r29, 0xFE	; 254
    51ce:	88 83       	st	Y, r24
    51d0:	99 83       	std	Y+1, r25	; 0x01
    51d2:	aa 83       	std	Y+2, r26	; 0x02
    51d4:	bb 83       	std	Y+3, r27	; 0x03
    51d6:	cf 52       	subi	r28, 0x2F	; 47
    51d8:	d1 40       	sbci	r29, 0x01	; 1

000051da <.Loc.714>:
    51da:	8e 01       	movw	r16, r28
    51dc:	07 55       	subi	r16, 0x57	; 87
    51de:	1f 4f       	sbci	r17, 0xFF	; 255
    51e0:	c1 5d       	subi	r28, 0xD1	; 209
    51e2:	de 4f       	sbci	r29, 0xFE	; 254
    51e4:	68 81       	ld	r22, Y
    51e6:	79 81       	ldd	r23, Y+1	; 0x01
    51e8:	8a 81       	ldd	r24, Y+2	; 0x02
    51ea:	9b 81       	ldd	r25, Y+3	; 0x03
    51ec:	cf 52       	subi	r28, 0x2F	; 47
    51ee:	d1 40       	sbci	r29, 0x01	; 1
    51f0:	0e 94 ba 31 	call	0x6374	; 0x6374 <__fixunssfsi>
    51f4:	cd 5f       	subi	r28, 0xFD	; 253
    51f6:	dd 4f       	sbci	r29, 0xFD	; 253
    51f8:	68 83       	st	Y, r22
    51fa:	79 83       	std	Y+1, r23	; 0x01
    51fc:	8a 83       	std	Y+2, r24	; 0x02
    51fe:	9b 83       	std	Y+3, r25	; 0x03
    5200:	c3 50       	subi	r28, 0x03	; 3
    5202:	d2 40       	sbci	r29, 0x02	; 2
    5204:	cd 5f       	subi	r28, 0xFD	; 253
    5206:	dd 4f       	sbci	r29, 0xFD	; 253
    5208:	e8 81       	ld	r30, Y
    520a:	f9 81       	ldd	r31, Y+1	; 0x01
    520c:	c3 50       	subi	r28, 0x03	; 3
    520e:	d2 40       	sbci	r29, 0x02	; 2
    5210:	d8 01       	movw	r26, r16
    5212:	11 96       	adiw	r26, 0x01	; 1
    5214:	fc 93       	st	X, r31
    5216:	ee 93       	st	-X, r30

00005218 <.Loc.715>:
		while(__ticks)
    5218:	26 c0       	rjmp	.+76     	; 0x5266 <.L242>

0000521a <.L243>:
    521a:	ce 01       	movw	r24, r28
    521c:	85 55       	subi	r24, 0x55	; 85
    521e:	9f 4f       	sbci	r25, 0xFF	; 255
    5220:	20 e9       	ldi	r18, 0x90	; 144
    5222:	31 e0       	ldi	r19, 0x01	; 1
    5224:	dc 01       	movw	r26, r24
    5226:	2d 93       	st	X+, r18
    5228:	3c 93       	st	X, r19

0000522a <.LBB221>:
    522a:	ce 01       	movw	r24, r28
    522c:	85 55       	subi	r24, 0x55	; 85
    522e:	9f 4f       	sbci	r25, 0xFF	; 255
    5230:	fc 01       	movw	r30, r24
    5232:	80 81       	ld	r24, Z
    5234:	91 81       	ldd	r25, Z+1	; 0x01

00005236 <.L1^B27>:
    5236:	01 97       	sbiw	r24, 0x01	; 1
    5238:	f1 f7       	brne	.-4      	; 0x5236 <.L1^B27>
    523a:	9e 01       	movw	r18, r28
    523c:	25 55       	subi	r18, 0x55	; 85
    523e:	3f 4f       	sbci	r19, 0xFF	; 255
    5240:	d9 01       	movw	r26, r18
    5242:	8d 93       	st	X+, r24
    5244:	9c 93       	st	X, r25

00005246 <.Loc.717>:
	...

00005248 <.LBE221>:
			__ticks --;
    5248:	ce 01       	movw	r24, r28
    524a:	87 55       	subi	r24, 0x57	; 87
    524c:	9f 4f       	sbci	r25, 0xFF	; 255
    524e:	9e 01       	movw	r18, r28
    5250:	27 55       	subi	r18, 0x57	; 87
    5252:	3f 4f       	sbci	r19, 0xFF	; 255
    5254:	f9 01       	movw	r30, r18
    5256:	20 81       	ld	r18, Z
    5258:	31 81       	ldd	r19, Z+1	; 0x01
    525a:	21 50       	subi	r18, 0x01	; 1
    525c:	31 09       	sbc	r19, r1
    525e:	dc 01       	movw	r26, r24
    5260:	11 96       	adiw	r26, 0x01	; 1
    5262:	3c 93       	st	X, r19
    5264:	2e 93       	st	-X, r18

00005266 <.L242>:
		while(__ticks)
    5266:	ce 01       	movw	r24, r28
    5268:	87 55       	subi	r24, 0x57	; 87
    526a:	9f 4f       	sbci	r25, 0xFF	; 255
    526c:	fc 01       	movw	r30, r24
    526e:	80 81       	ld	r24, Z
    5270:	91 81       	ldd	r25, Z+1	; 0x01
    5272:	00 97       	sbiw	r24, 0x00	; 0
    5274:	91 f6       	brne	.-92     	; 0x521a <.L243>

00005276 <.Loc.720>:
		return;
    5276:	3a c0       	rjmp	.+116    	; 0x52ec <.L244>

00005278 <.L365>:
		__ticks = (uint16_t)__tmp;
    5278:	8e 01       	movw	r16, r28
    527a:	07 55       	subi	r16, 0x57	; 87
    527c:	1f 4f       	sbci	r17, 0xFF	; 255
    527e:	ce 01       	movw	r24, r28
    5280:	8b 55       	subi	r24, 0x5B	; 91
    5282:	9f 4f       	sbci	r25, 0xFF	; 255
    5284:	dc 01       	movw	r26, r24
    5286:	6d 91       	ld	r22, X+
    5288:	7d 91       	ld	r23, X+
    528a:	8d 91       	ld	r24, X+
    528c:	9c 91       	ld	r25, X
    528e:	0e 94 ba 31 	call	0x6374	; 0x6374 <__fixunssfsi>
    5292:	c9 5f       	subi	r28, 0xF9	; 249
    5294:	dd 4f       	sbci	r29, 0xFD	; 253
    5296:	68 83       	st	Y, r22
    5298:	79 83       	std	Y+1, r23	; 0x01
    529a:	8a 83       	std	Y+2, r24	; 0x02
    529c:	9b 83       	std	Y+3, r25	; 0x03
    529e:	c7 50       	subi	r28, 0x07	; 7
    52a0:	d2 40       	sbci	r29, 0x02	; 2
    52a2:	c9 5f       	subi	r28, 0xF9	; 249
    52a4:	dd 4f       	sbci	r29, 0xFD	; 253
    52a6:	88 81       	ld	r24, Y
    52a8:	99 81       	ldd	r25, Y+1	; 0x01
    52aa:	c7 50       	subi	r28, 0x07	; 7
    52ac:	d2 40       	sbci	r29, 0x02	; 2
    52ae:	f8 01       	movw	r30, r16
    52b0:	91 83       	std	Z+1, r25	; 0x01
    52b2:	80 83       	st	Z, r24

000052b4 <.L239>:
    52b4:	ce 01       	movw	r24, r28
    52b6:	83 55       	subi	r24, 0x53	; 83
    52b8:	9f 4f       	sbci	r25, 0xFF	; 255
    52ba:	9e 01       	movw	r18, r28
    52bc:	27 55       	subi	r18, 0x57	; 87
    52be:	3f 4f       	sbci	r19, 0xFF	; 255
    52c0:	d9 01       	movw	r26, r18
    52c2:	2d 91       	ld	r18, X+
    52c4:	3c 91       	ld	r19, X
    52c6:	fc 01       	movw	r30, r24
    52c8:	31 83       	std	Z+1, r19	; 0x01
    52ca:	20 83       	st	Z, r18

000052cc <.LBB223>:
    52cc:	ce 01       	movw	r24, r28
    52ce:	83 55       	subi	r24, 0x53	; 83
    52d0:	9f 4f       	sbci	r25, 0xFF	; 255
    52d2:	dc 01       	movw	r26, r24
    52d4:	8d 91       	ld	r24, X+
    52d6:	9c 91       	ld	r25, X
    52d8:	11 97       	sbiw	r26, 0x01	; 1

000052da <.L1^B28>:
    52da:	01 97       	sbiw	r24, 0x01	; 1
    52dc:	f1 f7       	brne	.-4      	; 0x52da <.L1^B28>
    52de:	9e 01       	movw	r18, r28
    52e0:	23 55       	subi	r18, 0x53	; 83
    52e2:	3f 4f       	sbci	r19, 0xFF	; 255
    52e4:	f9 01       	movw	r30, r18
    52e6:	91 83       	std	Z+1, r25	; 0x01
    52e8:	80 83       	st	Z, r24

000052ea <.Loc.723>:
	...

000052ec <.L244>:
                _delay_ms(20);
                volgen_Onthouden = 0;
    52ec:	10 92 39 02 	sts	0x0239, r1	; 0x800239 <volgen_Onthouden+0x1>
    52f0:	10 92 38 02 	sts	0x0238, r1	; 0x800238 <volgen_Onthouden>

000052f4 <.Loc.725>:
                uitVolgen = 1;
    52f4:	81 e0       	ldi	r24, 0x01	; 1
    52f6:	90 e0       	ldi	r25, 0x00	; 0
    52f8:	90 93 3f 02 	sts	0x023F, r25	; 0x80023f <uitVolgen+0x1>
    52fc:	80 93 3e 02 	sts	0x023E, r24	; 0x80023e <uitVolgen>

00005300 <.Loc.726>:
                state = Uit;
    5300:	85 e0       	ldi	r24, 0x05	; 5
    5302:	90 e0       	ldi	r25, 0x00	; 0
    5304:	9a 83       	std	Y+2, r25	; 0x02
    5306:	89 83       	std	Y+1, r24	; 0x01

00005308 <.Loc.727>:
                break;
    5308:	40 c7       	rjmp	.+3712   	; 0x618a <.L116>

0000530a <.L236>:
            }

            if(((PINA & (1<<PA2)) != 0) && (noodstop_Onthouden == 0)){
    530a:	80 e2       	ldi	r24, 0x20	; 32
    530c:	90 e0       	ldi	r25, 0x00	; 0
    530e:	dc 01       	movw	r26, r24
    5310:	8c 91       	ld	r24, X

00005312 <.Loc.729>:
    5312:	88 2f       	mov	r24, r24
    5314:	90 e0       	ldi	r25, 0x00	; 0
    5316:	84 70       	andi	r24, 0x04	; 4
    5318:	99 27       	eor	r25, r25

0000531a <.Loc.730>:
    531a:	00 97       	sbiw	r24, 0x00	; 0
    531c:	09 f4       	brne	.+2      	; 0x5320 <.Loc.731>

0000531e <L0^A>:
    531e:	34 c7       	rjmp	.+3688   	; 0x6188 <.L383>

00005320 <.Loc.731>:
    5320:	80 91 36 02 	lds	r24, 0x0236	; 0x800236 <noodstop_Onthouden>
    5324:	90 91 37 02 	lds	r25, 0x0237	; 0x800237 <noodstop_Onthouden+0x1>

00005328 <.Loc.732>:
    5328:	00 97       	sbiw	r24, 0x00	; 0
    532a:	09 f0       	breq	.+2      	; 0x532e <L0^A+0x2>

0000532c <L0^A>:
    532c:	2d c7       	rjmp	.+3674   	; 0x6188 <.L383>
    532e:	9e 01       	movw	r18, r28
    5330:	21 55       	subi	r18, 0x51	; 81
    5332:	3f 4f       	sbci	r19, 0xFF	; 255
    5334:	80 e0       	ldi	r24, 0x00	; 0
    5336:	90 e0       	ldi	r25, 0x00	; 0
    5338:	a0 ea       	ldi	r26, 0xA0	; 160
    533a:	b1 e4       	ldi	r27, 0x41	; 65
    533c:	f9 01       	movw	r30, r18
    533e:	80 83       	st	Z, r24
    5340:	91 83       	std	Z+1, r25	; 0x01
    5342:	a2 83       	std	Z+2, r26	; 0x02
    5344:	b3 83       	std	Z+3, r27	; 0x03

00005346 <.LBB225>:
	__tmp = ((F_CPU) / 4e3) * __ms;
    5346:	8e 01       	movw	r16, r28
    5348:	0d 54       	subi	r16, 0x4D	; 77
    534a:	1f 4f       	sbci	r17, 0xFF	; 255
    534c:	ce 01       	movw	r24, r28
    534e:	81 55       	subi	r24, 0x51	; 81
    5350:	9f 4f       	sbci	r25, 0xFF	; 255
    5352:	20 e0       	ldi	r18, 0x00	; 0
    5354:	30 e0       	ldi	r19, 0x00	; 0
    5356:	4a e7       	ldi	r20, 0x7A	; 122
    5358:	55 e4       	ldi	r21, 0x45	; 69
    535a:	dc 01       	movw	r26, r24
    535c:	6d 91       	ld	r22, X+
    535e:	7d 91       	ld	r23, X+
    5360:	8d 91       	ld	r24, X+
    5362:	9c 91       	ld	r25, X
    5364:	0e 94 a0 32 	call	0x6540	; 0x6540 <__mulsf3>
    5368:	c5 5f       	subi	r28, 0xF5	; 245
    536a:	dd 4f       	sbci	r29, 0xFD	; 253
    536c:	68 83       	st	Y, r22
    536e:	79 83       	std	Y+1, r23	; 0x01
    5370:	8a 83       	std	Y+2, r24	; 0x02
    5372:	9b 83       	std	Y+3, r25	; 0x03
    5374:	cb 50       	subi	r28, 0x0B	; 11
    5376:	d2 40       	sbci	r29, 0x02	; 2
    5378:	c5 5f       	subi	r28, 0xF5	; 245
    537a:	dd 4f       	sbci	r29, 0xFD	; 253
    537c:	88 81       	ld	r24, Y
    537e:	99 81       	ldd	r25, Y+1	; 0x01
    5380:	aa 81       	ldd	r26, Y+2	; 0x02
    5382:	bb 81       	ldd	r27, Y+3	; 0x03
    5384:	cb 50       	subi	r28, 0x0B	; 11
    5386:	d2 40       	sbci	r29, 0x02	; 2
    5388:	f8 01       	movw	r30, r16
    538a:	80 83       	st	Z, r24
    538c:	91 83       	std	Z+1, r25	; 0x01
    538e:	a2 83       	std	Z+2, r26	; 0x02
    5390:	b3 83       	std	Z+3, r27	; 0x03

00005392 <.Loc.734>:
	if (__tmp < 1.0)
    5392:	ce 01       	movw	r24, r28
    5394:	8d 54       	subi	r24, 0x4D	; 77
    5396:	9f 4f       	sbci	r25, 0xFF	; 255
    5398:	20 e0       	ldi	r18, 0x00	; 0
    539a:	30 e0       	ldi	r19, 0x00	; 0
    539c:	40 e8       	ldi	r20, 0x80	; 128
    539e:	5f e3       	ldi	r21, 0x3F	; 63
    53a0:	dc 01       	movw	r26, r24
    53a2:	6d 91       	ld	r22, X+
    53a4:	7d 91       	ld	r23, X+
    53a6:	8d 91       	ld	r24, X+
    53a8:	9c 91       	ld	r25, X
    53aa:	0e 94 3c 31 	call	0x6278	; 0x6278 <__cmpsf2>
    53ae:	88 23       	and	r24, r24
    53b0:	4c f4       	brge	.+18     	; 0x53c4 <.L366>

000053b2 <.Loc.735>:
		__ticks = 1;
    53b2:	ce 01       	movw	r24, r28
    53b4:	89 54       	subi	r24, 0x49	; 73
    53b6:	9f 4f       	sbci	r25, 0xFF	; 255
    53b8:	21 e0       	ldi	r18, 0x01	; 1
    53ba:	30 e0       	ldi	r19, 0x00	; 0
    53bc:	fc 01       	movw	r30, r24
    53be:	31 83       	std	Z+1, r19	; 0x01
    53c0:	20 83       	st	Z, r18
    53c2:	a5 c0       	rjmp	.+330    	; 0x550e <.L248>

000053c4 <.L366>:
	else if (__tmp > 65535)
    53c4:	ce 01       	movw	r24, r28
    53c6:	8d 54       	subi	r24, 0x4D	; 77
    53c8:	9f 4f       	sbci	r25, 0xFF	; 255
    53ca:	20 e0       	ldi	r18, 0x00	; 0
    53cc:	3f ef       	ldi	r19, 0xFF	; 255
    53ce:	4f e7       	ldi	r20, 0x7F	; 127
    53d0:	57 e4       	ldi	r21, 0x47	; 71
    53d2:	dc 01       	movw	r26, r24
    53d4:	6d 91       	ld	r22, X+
    53d6:	7d 91       	ld	r23, X+
    53d8:	8d 91       	ld	r24, X+
    53da:	9c 91       	ld	r25, X
    53dc:	0e 94 9b 32 	call	0x6536	; 0x6536 <__gesf2>
    53e0:	88 23       	and	r24, r24
    53e2:	09 f0       	breq	.+2      	; 0x53e6 <L0^A>

000053e4 <L0^A>:
    53e4:	0c f4       	brge	.+2      	; 0x53e8 <.Loc.737>

000053e6 <L0^A>:
    53e6:	75 c0       	rjmp	.+234    	; 0x54d2 <.L367>

000053e8 <.Loc.737>:
		__ticks = (uint16_t) (__ms * 10.0);
    53e8:	ce 01       	movw	r24, r28
    53ea:	81 55       	subi	r24, 0x51	; 81
    53ec:	9f 4f       	sbci	r25, 0xFF	; 255
    53ee:	20 e0       	ldi	r18, 0x00	; 0
    53f0:	30 e0       	ldi	r19, 0x00	; 0
    53f2:	40 e2       	ldi	r20, 0x20	; 32
    53f4:	51 e4       	ldi	r21, 0x41	; 65
    53f6:	fc 01       	movw	r30, r24
    53f8:	60 81       	ld	r22, Z
    53fa:	71 81       	ldd	r23, Z+1	; 0x01
    53fc:	82 81       	ldd	r24, Z+2	; 0x02
    53fe:	93 81       	ldd	r25, Z+3	; 0x03
    5400:	0e 94 a0 32 	call	0x6540	; 0x6540 <__mulsf3>
    5404:	c1 5f       	subi	r28, 0xF1	; 241
    5406:	dd 4f       	sbci	r29, 0xFD	; 253
    5408:	68 83       	st	Y, r22
    540a:	79 83       	std	Y+1, r23	; 0x01
    540c:	8a 83       	std	Y+2, r24	; 0x02
    540e:	9b 83       	std	Y+3, r25	; 0x03
    5410:	cf 50       	subi	r28, 0x0F	; 15
    5412:	d2 40       	sbci	r29, 0x02	; 2
    5414:	c1 5f       	subi	r28, 0xF1	; 241
    5416:	dd 4f       	sbci	r29, 0xFD	; 253
    5418:	88 81       	ld	r24, Y
    541a:	99 81       	ldd	r25, Y+1	; 0x01
    541c:	aa 81       	ldd	r26, Y+2	; 0x02
    541e:	bb 81       	ldd	r27, Y+3	; 0x03
    5420:	cf 50       	subi	r28, 0x0F	; 15
    5422:	d2 40       	sbci	r29, 0x02	; 2
    5424:	cd 5c       	subi	r28, 0xCD	; 205
    5426:	de 4f       	sbci	r29, 0xFE	; 254
    5428:	88 83       	st	Y, r24
    542a:	99 83       	std	Y+1, r25	; 0x01
    542c:	aa 83       	std	Y+2, r26	; 0x02
    542e:	bb 83       	std	Y+3, r27	; 0x03
    5430:	c3 53       	subi	r28, 0x33	; 51
    5432:	d1 40       	sbci	r29, 0x01	; 1

00005434 <.Loc.738>:
    5434:	8e 01       	movw	r16, r28
    5436:	09 54       	subi	r16, 0x49	; 73
    5438:	1f 4f       	sbci	r17, 0xFF	; 255
    543a:	cd 5c       	subi	r28, 0xCD	; 205
    543c:	de 4f       	sbci	r29, 0xFE	; 254
    543e:	68 81       	ld	r22, Y
    5440:	79 81       	ldd	r23, Y+1	; 0x01
    5442:	8a 81       	ldd	r24, Y+2	; 0x02
    5444:	9b 81       	ldd	r25, Y+3	; 0x03
    5446:	c3 53       	subi	r28, 0x33	; 51
    5448:	d1 40       	sbci	r29, 0x01	; 1
    544a:	0e 94 ba 31 	call	0x6374	; 0x6374 <__fixunssfsi>
    544e:	cd 5e       	subi	r28, 0xED	; 237
    5450:	dd 4f       	sbci	r29, 0xFD	; 253
    5452:	68 83       	st	Y, r22
    5454:	79 83       	std	Y+1, r23	; 0x01
    5456:	8a 83       	std	Y+2, r24	; 0x02
    5458:	9b 83       	std	Y+3, r25	; 0x03
    545a:	c3 51       	subi	r28, 0x13	; 19
    545c:	d2 40       	sbci	r29, 0x02	; 2
    545e:	cd 5e       	subi	r28, 0xED	; 237
    5460:	dd 4f       	sbci	r29, 0xFD	; 253
    5462:	e8 81       	ld	r30, Y
    5464:	f9 81       	ldd	r31, Y+1	; 0x01
    5466:	c3 51       	subi	r28, 0x13	; 19
    5468:	d2 40       	sbci	r29, 0x02	; 2
    546a:	d8 01       	movw	r26, r16
    546c:	11 96       	adiw	r26, 0x01	; 1
    546e:	fc 93       	st	X, r31
    5470:	ee 93       	st	-X, r30

00005472 <.Loc.739>:
		while(__ticks)
    5472:	26 c0       	rjmp	.+76     	; 0x54c0 <.L251>

00005474 <.L252>:
    5474:	ce 01       	movw	r24, r28
    5476:	87 54       	subi	r24, 0x47	; 71
    5478:	9f 4f       	sbci	r25, 0xFF	; 255
    547a:	20 e9       	ldi	r18, 0x90	; 144
    547c:	31 e0       	ldi	r19, 0x01	; 1
    547e:	dc 01       	movw	r26, r24
    5480:	2d 93       	st	X+, r18
    5482:	3c 93       	st	X, r19

00005484 <.LBB227>:
    5484:	ce 01       	movw	r24, r28
    5486:	87 54       	subi	r24, 0x47	; 71
    5488:	9f 4f       	sbci	r25, 0xFF	; 255
    548a:	fc 01       	movw	r30, r24
    548c:	80 81       	ld	r24, Z
    548e:	91 81       	ldd	r25, Z+1	; 0x01

00005490 <.L1^B29>:
    5490:	01 97       	sbiw	r24, 0x01	; 1
    5492:	f1 f7       	brne	.-4      	; 0x5490 <.L1^B29>
    5494:	9e 01       	movw	r18, r28
    5496:	27 54       	subi	r18, 0x47	; 71
    5498:	3f 4f       	sbci	r19, 0xFF	; 255
    549a:	d9 01       	movw	r26, r18
    549c:	8d 93       	st	X+, r24
    549e:	9c 93       	st	X, r25

000054a0 <.Loc.741>:
	...

000054a2 <.LBE227>:
			__ticks --;
    54a2:	ce 01       	movw	r24, r28
    54a4:	89 54       	subi	r24, 0x49	; 73
    54a6:	9f 4f       	sbci	r25, 0xFF	; 255
    54a8:	9e 01       	movw	r18, r28
    54aa:	29 54       	subi	r18, 0x49	; 73
    54ac:	3f 4f       	sbci	r19, 0xFF	; 255
    54ae:	f9 01       	movw	r30, r18
    54b0:	20 81       	ld	r18, Z
    54b2:	31 81       	ldd	r19, Z+1	; 0x01
    54b4:	21 50       	subi	r18, 0x01	; 1
    54b6:	31 09       	sbc	r19, r1
    54b8:	dc 01       	movw	r26, r24
    54ba:	11 96       	adiw	r26, 0x01	; 1
    54bc:	3c 93       	st	X, r19
    54be:	2e 93       	st	-X, r18

000054c0 <.L251>:
		while(__ticks)
    54c0:	ce 01       	movw	r24, r28
    54c2:	89 54       	subi	r24, 0x49	; 73
    54c4:	9f 4f       	sbci	r25, 0xFF	; 255
    54c6:	fc 01       	movw	r30, r24
    54c8:	80 81       	ld	r24, Z
    54ca:	91 81       	ldd	r25, Z+1	; 0x01
    54cc:	00 97       	sbiw	r24, 0x00	; 0
    54ce:	91 f6       	brne	.-92     	; 0x5474 <.L252>

000054d0 <.Loc.744>:
		return;
    54d0:	3a c0       	rjmp	.+116    	; 0x5546 <.L253>

000054d2 <.L367>:
		__ticks = (uint16_t)__tmp;
    54d2:	8e 01       	movw	r16, r28
    54d4:	09 54       	subi	r16, 0x49	; 73
    54d6:	1f 4f       	sbci	r17, 0xFF	; 255
    54d8:	ce 01       	movw	r24, r28
    54da:	8d 54       	subi	r24, 0x4D	; 77
    54dc:	9f 4f       	sbci	r25, 0xFF	; 255
    54de:	dc 01       	movw	r26, r24
    54e0:	6d 91       	ld	r22, X+
    54e2:	7d 91       	ld	r23, X+
    54e4:	8d 91       	ld	r24, X+
    54e6:	9c 91       	ld	r25, X
    54e8:	0e 94 ba 31 	call	0x6374	; 0x6374 <__fixunssfsi>
    54ec:	c9 5e       	subi	r28, 0xE9	; 233
    54ee:	dd 4f       	sbci	r29, 0xFD	; 253
    54f0:	68 83       	st	Y, r22
    54f2:	79 83       	std	Y+1, r23	; 0x01
    54f4:	8a 83       	std	Y+2, r24	; 0x02
    54f6:	9b 83       	std	Y+3, r25	; 0x03
    54f8:	c7 51       	subi	r28, 0x17	; 23
    54fa:	d2 40       	sbci	r29, 0x02	; 2
    54fc:	c9 5e       	subi	r28, 0xE9	; 233
    54fe:	dd 4f       	sbci	r29, 0xFD	; 253
    5500:	88 81       	ld	r24, Y
    5502:	99 81       	ldd	r25, Y+1	; 0x01
    5504:	c7 51       	subi	r28, 0x17	; 23
    5506:	d2 40       	sbci	r29, 0x02	; 2
    5508:	f8 01       	movw	r30, r16
    550a:	91 83       	std	Z+1, r25	; 0x01
    550c:	80 83       	st	Z, r24

0000550e <.L248>:
    550e:	ce 01       	movw	r24, r28
    5510:	85 54       	subi	r24, 0x45	; 69
    5512:	9f 4f       	sbci	r25, 0xFF	; 255
    5514:	9e 01       	movw	r18, r28
    5516:	29 54       	subi	r18, 0x49	; 73
    5518:	3f 4f       	sbci	r19, 0xFF	; 255
    551a:	d9 01       	movw	r26, r18
    551c:	2d 91       	ld	r18, X+
    551e:	3c 91       	ld	r19, X
    5520:	fc 01       	movw	r30, r24
    5522:	31 83       	std	Z+1, r19	; 0x01
    5524:	20 83       	st	Z, r18

00005526 <.LBB229>:
    5526:	ce 01       	movw	r24, r28
    5528:	85 54       	subi	r24, 0x45	; 69
    552a:	9f 4f       	sbci	r25, 0xFF	; 255
    552c:	dc 01       	movw	r26, r24
    552e:	8d 91       	ld	r24, X+
    5530:	9c 91       	ld	r25, X
    5532:	11 97       	sbiw	r26, 0x01	; 1

00005534 <.L1^B30>:
    5534:	01 97       	sbiw	r24, 0x01	; 1
    5536:	f1 f7       	brne	.-4      	; 0x5534 <.L1^B30>
    5538:	9e 01       	movw	r18, r28
    553a:	25 54       	subi	r18, 0x45	; 69
    553c:	3f 4f       	sbci	r19, 0xFF	; 255
    553e:	f9 01       	movw	r30, r18
    5540:	91 83       	std	Z+1, r25	; 0x01
    5542:	80 83       	st	Z, r24

00005544 <.Loc.747>:
	...

00005546 <.L253>:
                _delay_ms(20);
                noodstop_Onthouden = 1;
    5546:	81 e0       	ldi	r24, 0x01	; 1
    5548:	90 e0       	ldi	r25, 0x00	; 0
    554a:	90 93 37 02 	sts	0x0237, r25	; 0x800237 <noodstop_Onthouden+0x1>
    554e:	80 93 36 02 	sts	0x0236, r24	; 0x800236 <noodstop_Onthouden>

00005552 <.Loc.749>:
                state = Noodstop;
    5552:	84 e0       	ldi	r24, 0x04	; 4
    5554:	90 e0       	ldi	r25, 0x00	; 0
    5556:	9a 83       	std	Y+2, r25	; 0x02
    5558:	89 83       	std	Y+1, r24	; 0x01

0000555a <.Loc.750>:
                break;
    555a:	17 c6       	rjmp	.+3118   	; 0x618a <.L116>

0000555c <.L119>:

        case BoomSignaleren:


            // Snelheid uitzetten
            rsnelheid(0);
    555c:	80 e0       	ldi	r24, 0x00	; 0
    555e:	90 e0       	ldi	r25, 0x00	; 0
    5560:	0e 94 e6 1a 	call	0x35cc	; 0x35cc <rsnelheid>

00005564 <.Loc.752>:
            lsnelheid(0);
    5564:	80 e0       	ldi	r24, 0x00	; 0
    5566:	90 e0       	ldi	r25, 0x00	; 0
    5568:	0e 94 ca 1a 	call	0x3594	; 0x3594 <lsnelheid>

0000556c <.Loc.753>:

            rrichting(0);
    556c:	80 e0       	ldi	r24, 0x00	; 0
    556e:	90 e0       	ldi	r25, 0x00	; 0
    5570:	0e 94 5c 1a 	call	0x34b8	; 0x34b8 <rrichting>

00005574 <.Loc.754>:
            lrichting(0);
    5574:	80 e0       	ldi	r24, 0x00	; 0
    5576:	90 e0       	ldi	r25, 0x00	; 0
    5578:	0e 94 93 1a 	call	0x3526	; 0x3526 <lrichting>

0000557c <.Loc.755>:


            if(boomL_Gezien){
    557c:	80 91 46 02 	lds	r24, 0x0246	; 0x800246 <boomL_Gezien>
    5580:	90 91 47 02 	lds	r25, 0x0247	; 0x800247 <boomL_Gezien+0x1>

00005584 <.Loc.756>:
    5584:	00 97       	sbiw	r24, 0x00	; 0
    5586:	71 f0       	breq	.+28     	; 0x55a4 <.L254>

00005588 <.Loc.757>:
                bomenL_Geteld += 1;
    5588:	80 91 4a 02 	lds	r24, 0x024A	; 0x80024a <bomenL_Geteld>
    558c:	90 91 4b 02 	lds	r25, 0x024B	; 0x80024b <bomenL_Geteld+0x1>
    5590:	01 96       	adiw	r24, 0x01	; 1
    5592:	90 93 4b 02 	sts	0x024B, r25	; 0x80024b <bomenL_Geteld+0x1>
    5596:	80 93 4a 02 	sts	0x024A, r24	; 0x80024a <bomenL_Geteld>

0000559a <.Loc.758>:
                linksboomled(1);
    559a:	81 e0       	ldi	r24, 0x01	; 1
    559c:	90 e0       	ldi	r25, 0x00	; 0
    559e:	0e 94 4e 16 	call	0x2c9c	; 0x2c9c <linksboomled>
    55a2:	13 c0       	rjmp	.+38     	; 0x55ca <.L255>

000055a4 <.L254>:
            }
            else if(boomR_Gezien){
    55a4:	80 91 44 02 	lds	r24, 0x0244	; 0x800244 <boomR_Gezien>
    55a8:	90 91 45 02 	lds	r25, 0x0245	; 0x800245 <boomR_Gezien+0x1>

000055ac <.Loc.760>:
    55ac:	00 97       	sbiw	r24, 0x00	; 0
    55ae:	69 f0       	breq	.+26     	; 0x55ca <.L255>

000055b0 <.Loc.761>:
                bomenR_Geteld += 1;
    55b0:	80 91 48 02 	lds	r24, 0x0248	; 0x800248 <bomenR_Geteld>
    55b4:	90 91 49 02 	lds	r25, 0x0249	; 0x800249 <bomenR_Geteld+0x1>
    55b8:	01 96       	adiw	r24, 0x01	; 1
    55ba:	90 93 49 02 	sts	0x0249, r25	; 0x800249 <bomenR_Geteld+0x1>
    55be:	80 93 48 02 	sts	0x0248, r24	; 0x800248 <bomenR_Geteld>

000055c2 <.Loc.762>:
                rechtsboomled(1);
    55c2:	81 e0       	ldi	r24, 0x01	; 1
    55c4:	90 e0       	ldi	r25, 0x00	; 0
    55c6:	0e 94 29 16 	call	0x2c52	; 0x2c52 <rechtsboomled>

000055ca <.L255>:
            }

            // Buzzer gaat 1 seconde aan en noodstop kan gedetecteerd worden
            buzzer(1);
    55ca:	81 e0       	ldi	r24, 0x01	; 1
    55cc:	90 e0       	ldi	r25, 0x00	; 0
    55ce:	0e 94 e2 16 	call	0x2dc4	; 0x2dc4 <buzzer>

000055d2 <.LBB231>:

            for(int i = 0; i < 11; i++){
    55d2:	1c 82       	std	Y+4, r1	; 0x04
    55d4:	1b 82       	std	Y+3, r1	; 0x03

000055d6 <.Loc.765>:
    55d6:	3e c2       	rjmp	.+1148   	; 0x5a54 <.L256>

000055d8 <.L275>:
                if(((PINA & (1<<PA2)) != 0) && (noodstop_Onthouden == 0)){
    55d8:	80 e2       	ldi	r24, 0x20	; 32
    55da:	90 e0       	ldi	r25, 0x00	; 0
    55dc:	dc 01       	movw	r26, r24
    55de:	8c 91       	ld	r24, X

000055e0 <.Loc.767>:
    55e0:	88 2f       	mov	r24, r24
    55e2:	90 e0       	ldi	r25, 0x00	; 0
    55e4:	84 70       	andi	r24, 0x04	; 4
    55e6:	99 27       	eor	r25, r25

000055e8 <.Loc.768>:
    55e8:	00 97       	sbiw	r24, 0x00	; 0
    55ea:	09 f4       	brne	.+2      	; 0x55ee <.Loc.769>

000055ec <L0^A>:
    55ec:	22 c1       	rjmp	.+580    	; 0x5832 <.L257>

000055ee <.Loc.769>:
    55ee:	80 91 36 02 	lds	r24, 0x0236	; 0x800236 <noodstop_Onthouden>
    55f2:	90 91 37 02 	lds	r25, 0x0237	; 0x800237 <noodstop_Onthouden+0x1>

000055f6 <.Loc.770>:
    55f6:	00 97       	sbiw	r24, 0x00	; 0
    55f8:	09 f0       	breq	.+2      	; 0x55fc <.Loc.771>

000055fa <L0^A>:
    55fa:	1b c1       	rjmp	.+566    	; 0x5832 <.L257>

000055fc <.Loc.771>:
                    buzzer(0);
    55fc:	80 e0       	ldi	r24, 0x00	; 0
    55fe:	90 e0       	ldi	r25, 0x00	; 0
    5600:	0e 94 e2 16 	call	0x2dc4	; 0x2dc4 <buzzer>
    5604:	9e 01       	movw	r18, r28
    5606:	23 54       	subi	r18, 0x43	; 67
    5608:	3f 4f       	sbci	r19, 0xFF	; 255
    560a:	80 e0       	ldi	r24, 0x00	; 0
    560c:	90 e0       	ldi	r25, 0x00	; 0
    560e:	a0 ea       	ldi	r26, 0xA0	; 160
    5610:	b1 e4       	ldi	r27, 0x41	; 65
    5612:	f9 01       	movw	r30, r18
    5614:	80 83       	st	Z, r24
    5616:	91 83       	std	Z+1, r25	; 0x01
    5618:	a2 83       	std	Z+2, r26	; 0x02
    561a:	b3 83       	std	Z+3, r27	; 0x03

0000561c <.LBB232>:
	__tmp = ((F_CPU) / 4e3) * __ms;
    561c:	8e 01       	movw	r16, r28
    561e:	0f 53       	subi	r16, 0x3F	; 63
    5620:	1f 4f       	sbci	r17, 0xFF	; 255
    5622:	ce 01       	movw	r24, r28
    5624:	83 54       	subi	r24, 0x43	; 67
    5626:	9f 4f       	sbci	r25, 0xFF	; 255
    5628:	20 e0       	ldi	r18, 0x00	; 0
    562a:	30 e0       	ldi	r19, 0x00	; 0
    562c:	4a e7       	ldi	r20, 0x7A	; 122
    562e:	55 e4       	ldi	r21, 0x45	; 69
    5630:	dc 01       	movw	r26, r24
    5632:	6d 91       	ld	r22, X+
    5634:	7d 91       	ld	r23, X+
    5636:	8d 91       	ld	r24, X+
    5638:	9c 91       	ld	r25, X
    563a:	0e 94 a0 32 	call	0x6540	; 0x6540 <__mulsf3>
    563e:	c5 5e       	subi	r28, 0xE5	; 229
    5640:	dd 4f       	sbci	r29, 0xFD	; 253
    5642:	68 83       	st	Y, r22
    5644:	79 83       	std	Y+1, r23	; 0x01
    5646:	8a 83       	std	Y+2, r24	; 0x02
    5648:	9b 83       	std	Y+3, r25	; 0x03
    564a:	cb 51       	subi	r28, 0x1B	; 27
    564c:	d2 40       	sbci	r29, 0x02	; 2
    564e:	c5 5e       	subi	r28, 0xE5	; 229
    5650:	dd 4f       	sbci	r29, 0xFD	; 253
    5652:	88 81       	ld	r24, Y
    5654:	99 81       	ldd	r25, Y+1	; 0x01
    5656:	aa 81       	ldd	r26, Y+2	; 0x02
    5658:	bb 81       	ldd	r27, Y+3	; 0x03
    565a:	cb 51       	subi	r28, 0x1B	; 27
    565c:	d2 40       	sbci	r29, 0x02	; 2
    565e:	f8 01       	movw	r30, r16
    5660:	80 83       	st	Z, r24
    5662:	91 83       	std	Z+1, r25	; 0x01
    5664:	a2 83       	std	Z+2, r26	; 0x02
    5666:	b3 83       	std	Z+3, r27	; 0x03

00005668 <.Loc.773>:
	if (__tmp < 1.0)
    5668:	ce 01       	movw	r24, r28
    566a:	8f 53       	subi	r24, 0x3F	; 63
    566c:	9f 4f       	sbci	r25, 0xFF	; 255
    566e:	20 e0       	ldi	r18, 0x00	; 0
    5670:	30 e0       	ldi	r19, 0x00	; 0
    5672:	40 e8       	ldi	r20, 0x80	; 128
    5674:	5f e3       	ldi	r21, 0x3F	; 63
    5676:	dc 01       	movw	r26, r24
    5678:	6d 91       	ld	r22, X+
    567a:	7d 91       	ld	r23, X+
    567c:	8d 91       	ld	r24, X+
    567e:	9c 91       	ld	r25, X
    5680:	0e 94 3c 31 	call	0x6278	; 0x6278 <__cmpsf2>
    5684:	88 23       	and	r24, r24
    5686:	4c f4       	brge	.+18     	; 0x569a <.L368>

00005688 <.Loc.774>:
		__ticks = 1;
    5688:	ce 01       	movw	r24, r28
    568a:	8b 53       	subi	r24, 0x3B	; 59
    568c:	9f 4f       	sbci	r25, 0xFF	; 255
    568e:	21 e0       	ldi	r18, 0x01	; 1
    5690:	30 e0       	ldi	r19, 0x00	; 0
    5692:	fc 01       	movw	r30, r24
    5694:	31 83       	std	Z+1, r19	; 0x01
    5696:	20 83       	st	Z, r18
    5698:	a5 c0       	rjmp	.+330    	; 0x57e4 <.L260>

0000569a <.L368>:
	else if (__tmp > 65535)
    569a:	ce 01       	movw	r24, r28
    569c:	8f 53       	subi	r24, 0x3F	; 63
    569e:	9f 4f       	sbci	r25, 0xFF	; 255
    56a0:	20 e0       	ldi	r18, 0x00	; 0
    56a2:	3f ef       	ldi	r19, 0xFF	; 255
    56a4:	4f e7       	ldi	r20, 0x7F	; 127
    56a6:	57 e4       	ldi	r21, 0x47	; 71
    56a8:	dc 01       	movw	r26, r24
    56aa:	6d 91       	ld	r22, X+
    56ac:	7d 91       	ld	r23, X+
    56ae:	8d 91       	ld	r24, X+
    56b0:	9c 91       	ld	r25, X
    56b2:	0e 94 9b 32 	call	0x6536	; 0x6536 <__gesf2>
    56b6:	88 23       	and	r24, r24
    56b8:	09 f0       	breq	.+2      	; 0x56bc <L0^A>

000056ba <L0^A>:
    56ba:	0c f4       	brge	.+2      	; 0x56be <.Loc.776>

000056bc <L0^A>:
    56bc:	75 c0       	rjmp	.+234    	; 0x57a8 <.L369>

000056be <.Loc.776>:
		__ticks = (uint16_t) (__ms * 10.0);
    56be:	ce 01       	movw	r24, r28
    56c0:	83 54       	subi	r24, 0x43	; 67
    56c2:	9f 4f       	sbci	r25, 0xFF	; 255
    56c4:	20 e0       	ldi	r18, 0x00	; 0
    56c6:	30 e0       	ldi	r19, 0x00	; 0
    56c8:	40 e2       	ldi	r20, 0x20	; 32
    56ca:	51 e4       	ldi	r21, 0x41	; 65
    56cc:	fc 01       	movw	r30, r24
    56ce:	60 81       	ld	r22, Z
    56d0:	71 81       	ldd	r23, Z+1	; 0x01
    56d2:	82 81       	ldd	r24, Z+2	; 0x02
    56d4:	93 81       	ldd	r25, Z+3	; 0x03
    56d6:	0e 94 a0 32 	call	0x6540	; 0x6540 <__mulsf3>
    56da:	c1 5e       	subi	r28, 0xE1	; 225
    56dc:	dd 4f       	sbci	r29, 0xFD	; 253
    56de:	68 83       	st	Y, r22
    56e0:	79 83       	std	Y+1, r23	; 0x01
    56e2:	8a 83       	std	Y+2, r24	; 0x02
    56e4:	9b 83       	std	Y+3, r25	; 0x03
    56e6:	cf 51       	subi	r28, 0x1F	; 31
    56e8:	d2 40       	sbci	r29, 0x02	; 2
    56ea:	c1 5e       	subi	r28, 0xE1	; 225
    56ec:	dd 4f       	sbci	r29, 0xFD	; 253
    56ee:	88 81       	ld	r24, Y
    56f0:	99 81       	ldd	r25, Y+1	; 0x01
    56f2:	aa 81       	ldd	r26, Y+2	; 0x02
    56f4:	bb 81       	ldd	r27, Y+3	; 0x03
    56f6:	cf 51       	subi	r28, 0x1F	; 31
    56f8:	d2 40       	sbci	r29, 0x02	; 2
    56fa:	c9 5c       	subi	r28, 0xC9	; 201
    56fc:	de 4f       	sbci	r29, 0xFE	; 254
    56fe:	88 83       	st	Y, r24
    5700:	99 83       	std	Y+1, r25	; 0x01
    5702:	aa 83       	std	Y+2, r26	; 0x02
    5704:	bb 83       	std	Y+3, r27	; 0x03
    5706:	c7 53       	subi	r28, 0x37	; 55
    5708:	d1 40       	sbci	r29, 0x01	; 1

0000570a <.Loc.777>:
    570a:	8e 01       	movw	r16, r28
    570c:	0b 53       	subi	r16, 0x3B	; 59
    570e:	1f 4f       	sbci	r17, 0xFF	; 255
    5710:	c9 5c       	subi	r28, 0xC9	; 201
    5712:	de 4f       	sbci	r29, 0xFE	; 254
    5714:	68 81       	ld	r22, Y
    5716:	79 81       	ldd	r23, Y+1	; 0x01
    5718:	8a 81       	ldd	r24, Y+2	; 0x02
    571a:	9b 81       	ldd	r25, Y+3	; 0x03
    571c:	c7 53       	subi	r28, 0x37	; 55
    571e:	d1 40       	sbci	r29, 0x01	; 1
    5720:	0e 94 ba 31 	call	0x6374	; 0x6374 <__fixunssfsi>
    5724:	cd 5d       	subi	r28, 0xDD	; 221
    5726:	dd 4f       	sbci	r29, 0xFD	; 253
    5728:	68 83       	st	Y, r22
    572a:	79 83       	std	Y+1, r23	; 0x01
    572c:	8a 83       	std	Y+2, r24	; 0x02
    572e:	9b 83       	std	Y+3, r25	; 0x03
    5730:	c3 52       	subi	r28, 0x23	; 35
    5732:	d2 40       	sbci	r29, 0x02	; 2
    5734:	cd 5d       	subi	r28, 0xDD	; 221
    5736:	dd 4f       	sbci	r29, 0xFD	; 253
    5738:	e8 81       	ld	r30, Y
    573a:	f9 81       	ldd	r31, Y+1	; 0x01
    573c:	c3 52       	subi	r28, 0x23	; 35
    573e:	d2 40       	sbci	r29, 0x02	; 2
    5740:	d8 01       	movw	r26, r16
    5742:	11 96       	adiw	r26, 0x01	; 1
    5744:	fc 93       	st	X, r31
    5746:	ee 93       	st	-X, r30

00005748 <.Loc.778>:
		while(__ticks)
    5748:	26 c0       	rjmp	.+76     	; 0x5796 <.L263>

0000574a <.L264>:
    574a:	ce 01       	movw	r24, r28
    574c:	89 53       	subi	r24, 0x39	; 57
    574e:	9f 4f       	sbci	r25, 0xFF	; 255
    5750:	20 e9       	ldi	r18, 0x90	; 144
    5752:	31 e0       	ldi	r19, 0x01	; 1
    5754:	dc 01       	movw	r26, r24
    5756:	2d 93       	st	X+, r18
    5758:	3c 93       	st	X, r19

0000575a <.LBB234>:
    575a:	ce 01       	movw	r24, r28
    575c:	89 53       	subi	r24, 0x39	; 57
    575e:	9f 4f       	sbci	r25, 0xFF	; 255
    5760:	fc 01       	movw	r30, r24
    5762:	80 81       	ld	r24, Z
    5764:	91 81       	ldd	r25, Z+1	; 0x01

00005766 <.L1^B31>:
    5766:	01 97       	sbiw	r24, 0x01	; 1
    5768:	f1 f7       	brne	.-4      	; 0x5766 <.L1^B31>
    576a:	9e 01       	movw	r18, r28
    576c:	29 53       	subi	r18, 0x39	; 57
    576e:	3f 4f       	sbci	r19, 0xFF	; 255
    5770:	d9 01       	movw	r26, r18
    5772:	8d 93       	st	X+, r24
    5774:	9c 93       	st	X, r25

00005776 <.Loc.780>:
	...

00005778 <.LBE234>:
			__ticks --;
    5778:	ce 01       	movw	r24, r28
    577a:	8b 53       	subi	r24, 0x3B	; 59
    577c:	9f 4f       	sbci	r25, 0xFF	; 255
    577e:	9e 01       	movw	r18, r28
    5780:	2b 53       	subi	r18, 0x3B	; 59
    5782:	3f 4f       	sbci	r19, 0xFF	; 255
    5784:	f9 01       	movw	r30, r18
    5786:	20 81       	ld	r18, Z
    5788:	31 81       	ldd	r19, Z+1	; 0x01
    578a:	21 50       	subi	r18, 0x01	; 1
    578c:	31 09       	sbc	r19, r1
    578e:	dc 01       	movw	r26, r24
    5790:	11 96       	adiw	r26, 0x01	; 1
    5792:	3c 93       	st	X, r19
    5794:	2e 93       	st	-X, r18

00005796 <.L263>:
		while(__ticks)
    5796:	ce 01       	movw	r24, r28
    5798:	8b 53       	subi	r24, 0x3B	; 59
    579a:	9f 4f       	sbci	r25, 0xFF	; 255
    579c:	fc 01       	movw	r30, r24
    579e:	80 81       	ld	r24, Z
    57a0:	91 81       	ldd	r25, Z+1	; 0x01
    57a2:	00 97       	sbiw	r24, 0x00	; 0
    57a4:	91 f6       	brne	.-92     	; 0x574a <.L264>

000057a6 <.Loc.783>:
		return;
    57a6:	3a c0       	rjmp	.+116    	; 0x581c <.L265>

000057a8 <.L369>:
		__ticks = (uint16_t)__tmp;
    57a8:	8e 01       	movw	r16, r28
    57aa:	0b 53       	subi	r16, 0x3B	; 59
    57ac:	1f 4f       	sbci	r17, 0xFF	; 255
    57ae:	ce 01       	movw	r24, r28
    57b0:	8f 53       	subi	r24, 0x3F	; 63
    57b2:	9f 4f       	sbci	r25, 0xFF	; 255
    57b4:	dc 01       	movw	r26, r24
    57b6:	6d 91       	ld	r22, X+
    57b8:	7d 91       	ld	r23, X+
    57ba:	8d 91       	ld	r24, X+
    57bc:	9c 91       	ld	r25, X
    57be:	0e 94 ba 31 	call	0x6374	; 0x6374 <__fixunssfsi>
    57c2:	c9 5d       	subi	r28, 0xD9	; 217
    57c4:	dd 4f       	sbci	r29, 0xFD	; 253
    57c6:	68 83       	st	Y, r22
    57c8:	79 83       	std	Y+1, r23	; 0x01
    57ca:	8a 83       	std	Y+2, r24	; 0x02
    57cc:	9b 83       	std	Y+3, r25	; 0x03
    57ce:	c7 52       	subi	r28, 0x27	; 39
    57d0:	d2 40       	sbci	r29, 0x02	; 2
    57d2:	c9 5d       	subi	r28, 0xD9	; 217
    57d4:	dd 4f       	sbci	r29, 0xFD	; 253
    57d6:	88 81       	ld	r24, Y
    57d8:	99 81       	ldd	r25, Y+1	; 0x01
    57da:	c7 52       	subi	r28, 0x27	; 39
    57dc:	d2 40       	sbci	r29, 0x02	; 2
    57de:	f8 01       	movw	r30, r16
    57e0:	91 83       	std	Z+1, r25	; 0x01
    57e2:	80 83       	st	Z, r24

000057e4 <.L260>:
    57e4:	ce 01       	movw	r24, r28
    57e6:	87 53       	subi	r24, 0x37	; 55
    57e8:	9f 4f       	sbci	r25, 0xFF	; 255
    57ea:	9e 01       	movw	r18, r28
    57ec:	2b 53       	subi	r18, 0x3B	; 59
    57ee:	3f 4f       	sbci	r19, 0xFF	; 255
    57f0:	d9 01       	movw	r26, r18
    57f2:	2d 91       	ld	r18, X+
    57f4:	3c 91       	ld	r19, X
    57f6:	fc 01       	movw	r30, r24
    57f8:	31 83       	std	Z+1, r19	; 0x01
    57fa:	20 83       	st	Z, r18

000057fc <.LBB236>:
    57fc:	ce 01       	movw	r24, r28
    57fe:	87 53       	subi	r24, 0x37	; 55
    5800:	9f 4f       	sbci	r25, 0xFF	; 255
    5802:	dc 01       	movw	r26, r24
    5804:	8d 91       	ld	r24, X+
    5806:	9c 91       	ld	r25, X
    5808:	11 97       	sbiw	r26, 0x01	; 1

0000580a <.L1^B32>:
    580a:	01 97       	sbiw	r24, 0x01	; 1
    580c:	f1 f7       	brne	.-4      	; 0x580a <.L1^B32>
    580e:	9e 01       	movw	r18, r28
    5810:	27 53       	subi	r18, 0x37	; 55
    5812:	3f 4f       	sbci	r19, 0xFF	; 255
    5814:	f9 01       	movw	r30, r18
    5816:	91 83       	std	Z+1, r25	; 0x01
    5818:	80 83       	st	Z, r24

0000581a <.Loc.786>:
	...

0000581c <.L265>:
                    _delay_ms(20);
                    noodstop_Onthouden = 1;
    581c:	81 e0       	ldi	r24, 0x01	; 1
    581e:	90 e0       	ldi	r25, 0x00	; 0
    5820:	90 93 37 02 	sts	0x0237, r25	; 0x800237 <noodstop_Onthouden+0x1>
    5824:	80 93 36 02 	sts	0x0236, r24	; 0x800236 <noodstop_Onthouden>

00005828 <.Loc.788>:
                    state = Noodstop;
    5828:	84 e0       	ldi	r24, 0x04	; 4
    582a:	90 e0       	ldi	r25, 0x00	; 0
    582c:	9a 83       	std	Y+2, r25	; 0x02
    582e:	89 83       	std	Y+1, r24	; 0x01

00005830 <.Loc.789>:
                    break;
    5830:	18 c1       	rjmp	.+560    	; 0x5a62 <.L266>

00005832 <.L257>:
    5832:	9e 01       	movw	r18, r28
    5834:	25 53       	subi	r18, 0x35	; 53
    5836:	3f 4f       	sbci	r19, 0xFF	; 255
    5838:	80 e0       	ldi	r24, 0x00	; 0
    583a:	90 e0       	ldi	r25, 0x00	; 0
    583c:	a8 ec       	ldi	r26, 0xC8	; 200
    583e:	b2 e4       	ldi	r27, 0x42	; 66
    5840:	f9 01       	movw	r30, r18
    5842:	80 83       	st	Z, r24
    5844:	91 83       	std	Z+1, r25	; 0x01
    5846:	a2 83       	std	Z+2, r26	; 0x02
    5848:	b3 83       	std	Z+3, r27	; 0x03

0000584a <.LBB238>:
	__tmp = ((F_CPU) / 4e3) * __ms;
    584a:	8e 01       	movw	r16, r28
    584c:	01 53       	subi	r16, 0x31	; 49
    584e:	1f 4f       	sbci	r17, 0xFF	; 255
    5850:	ce 01       	movw	r24, r28
    5852:	85 53       	subi	r24, 0x35	; 53
    5854:	9f 4f       	sbci	r25, 0xFF	; 255
    5856:	20 e0       	ldi	r18, 0x00	; 0
    5858:	30 e0       	ldi	r19, 0x00	; 0
    585a:	4a e7       	ldi	r20, 0x7A	; 122
    585c:	55 e4       	ldi	r21, 0x45	; 69
    585e:	dc 01       	movw	r26, r24
    5860:	6d 91       	ld	r22, X+
    5862:	7d 91       	ld	r23, X+
    5864:	8d 91       	ld	r24, X+
    5866:	9c 91       	ld	r25, X
    5868:	0e 94 a0 32 	call	0x6540	; 0x6540 <__mulsf3>
    586c:	c5 5d       	subi	r28, 0xD5	; 213
    586e:	dd 4f       	sbci	r29, 0xFD	; 253
    5870:	68 83       	st	Y, r22
    5872:	79 83       	std	Y+1, r23	; 0x01
    5874:	8a 83       	std	Y+2, r24	; 0x02
    5876:	9b 83       	std	Y+3, r25	; 0x03
    5878:	cb 52       	subi	r28, 0x2B	; 43
    587a:	d2 40       	sbci	r29, 0x02	; 2
    587c:	c5 5d       	subi	r28, 0xD5	; 213
    587e:	dd 4f       	sbci	r29, 0xFD	; 253
    5880:	88 81       	ld	r24, Y
    5882:	99 81       	ldd	r25, Y+1	; 0x01
    5884:	aa 81       	ldd	r26, Y+2	; 0x02
    5886:	bb 81       	ldd	r27, Y+3	; 0x03
    5888:	cb 52       	subi	r28, 0x2B	; 43
    588a:	d2 40       	sbci	r29, 0x02	; 2
    588c:	f8 01       	movw	r30, r16
    588e:	80 83       	st	Z, r24
    5890:	91 83       	std	Z+1, r25	; 0x01
    5892:	a2 83       	std	Z+2, r26	; 0x02
    5894:	b3 83       	std	Z+3, r27	; 0x03

00005896 <.Loc.791>:
	if (__tmp < 1.0)
    5896:	ce 01       	movw	r24, r28
    5898:	81 53       	subi	r24, 0x31	; 49
    589a:	9f 4f       	sbci	r25, 0xFF	; 255
    589c:	20 e0       	ldi	r18, 0x00	; 0
    589e:	30 e0       	ldi	r19, 0x00	; 0
    58a0:	40 e8       	ldi	r20, 0x80	; 128
    58a2:	5f e3       	ldi	r21, 0x3F	; 63
    58a4:	dc 01       	movw	r26, r24
    58a6:	6d 91       	ld	r22, X+
    58a8:	7d 91       	ld	r23, X+
    58aa:	8d 91       	ld	r24, X+
    58ac:	9c 91       	ld	r25, X
    58ae:	0e 94 3c 31 	call	0x6278	; 0x6278 <__cmpsf2>
    58b2:	88 23       	and	r24, r24
    58b4:	4c f4       	brge	.+18     	; 0x58c8 <.L370>

000058b6 <.Loc.792>:
		__ticks = 1;
    58b6:	ce 01       	movw	r24, r28
    58b8:	8d 52       	subi	r24, 0x2D	; 45
    58ba:	9f 4f       	sbci	r25, 0xFF	; 255
    58bc:	21 e0       	ldi	r18, 0x01	; 1
    58be:	30 e0       	ldi	r19, 0x00	; 0
    58c0:	fc 01       	movw	r30, r24
    58c2:	31 83       	std	Z+1, r19	; 0x01
    58c4:	20 83       	st	Z, r18
    58c6:	a5 c0       	rjmp	.+330    	; 0x5a12 <.L269>

000058c8 <.L370>:
	else if (__tmp > 65535)
    58c8:	ce 01       	movw	r24, r28
    58ca:	81 53       	subi	r24, 0x31	; 49
    58cc:	9f 4f       	sbci	r25, 0xFF	; 255
    58ce:	20 e0       	ldi	r18, 0x00	; 0
    58d0:	3f ef       	ldi	r19, 0xFF	; 255
    58d2:	4f e7       	ldi	r20, 0x7F	; 127
    58d4:	57 e4       	ldi	r21, 0x47	; 71
    58d6:	dc 01       	movw	r26, r24
    58d8:	6d 91       	ld	r22, X+
    58da:	7d 91       	ld	r23, X+
    58dc:	8d 91       	ld	r24, X+
    58de:	9c 91       	ld	r25, X
    58e0:	0e 94 9b 32 	call	0x6536	; 0x6536 <__gesf2>
    58e4:	88 23       	and	r24, r24
    58e6:	09 f0       	breq	.+2      	; 0x58ea <L0^A>

000058e8 <L0^A>:
    58e8:	0c f4       	brge	.+2      	; 0x58ec <.Loc.794>

000058ea <L0^A>:
    58ea:	75 c0       	rjmp	.+234    	; 0x59d6 <.L371>

000058ec <.Loc.794>:
		__ticks = (uint16_t) (__ms * 10.0);
    58ec:	ce 01       	movw	r24, r28
    58ee:	85 53       	subi	r24, 0x35	; 53
    58f0:	9f 4f       	sbci	r25, 0xFF	; 255
    58f2:	20 e0       	ldi	r18, 0x00	; 0
    58f4:	30 e0       	ldi	r19, 0x00	; 0
    58f6:	40 e2       	ldi	r20, 0x20	; 32
    58f8:	51 e4       	ldi	r21, 0x41	; 65
    58fa:	fc 01       	movw	r30, r24
    58fc:	60 81       	ld	r22, Z
    58fe:	71 81       	ldd	r23, Z+1	; 0x01
    5900:	82 81       	ldd	r24, Z+2	; 0x02
    5902:	93 81       	ldd	r25, Z+3	; 0x03
    5904:	0e 94 a0 32 	call	0x6540	; 0x6540 <__mulsf3>
    5908:	c1 5d       	subi	r28, 0xD1	; 209
    590a:	dd 4f       	sbci	r29, 0xFD	; 253
    590c:	68 83       	st	Y, r22
    590e:	79 83       	std	Y+1, r23	; 0x01
    5910:	8a 83       	std	Y+2, r24	; 0x02
    5912:	9b 83       	std	Y+3, r25	; 0x03
    5914:	cf 52       	subi	r28, 0x2F	; 47
    5916:	d2 40       	sbci	r29, 0x02	; 2
    5918:	c1 5d       	subi	r28, 0xD1	; 209
    591a:	dd 4f       	sbci	r29, 0xFD	; 253
    591c:	88 81       	ld	r24, Y
    591e:	99 81       	ldd	r25, Y+1	; 0x01
    5920:	aa 81       	ldd	r26, Y+2	; 0x02
    5922:	bb 81       	ldd	r27, Y+3	; 0x03
    5924:	cf 52       	subi	r28, 0x2F	; 47
    5926:	d2 40       	sbci	r29, 0x02	; 2
    5928:	c5 5c       	subi	r28, 0xC5	; 197
    592a:	de 4f       	sbci	r29, 0xFE	; 254
    592c:	88 83       	st	Y, r24
    592e:	99 83       	std	Y+1, r25	; 0x01
    5930:	aa 83       	std	Y+2, r26	; 0x02
    5932:	bb 83       	std	Y+3, r27	; 0x03
    5934:	cb 53       	subi	r28, 0x3B	; 59
    5936:	d1 40       	sbci	r29, 0x01	; 1

00005938 <.Loc.795>:
    5938:	8e 01       	movw	r16, r28
    593a:	0d 52       	subi	r16, 0x2D	; 45
    593c:	1f 4f       	sbci	r17, 0xFF	; 255
    593e:	c5 5c       	subi	r28, 0xC5	; 197
    5940:	de 4f       	sbci	r29, 0xFE	; 254
    5942:	68 81       	ld	r22, Y
    5944:	79 81       	ldd	r23, Y+1	; 0x01
    5946:	8a 81       	ldd	r24, Y+2	; 0x02
    5948:	9b 81       	ldd	r25, Y+3	; 0x03
    594a:	cb 53       	subi	r28, 0x3B	; 59
    594c:	d1 40       	sbci	r29, 0x01	; 1
    594e:	0e 94 ba 31 	call	0x6374	; 0x6374 <__fixunssfsi>
    5952:	cd 5c       	subi	r28, 0xCD	; 205
    5954:	dd 4f       	sbci	r29, 0xFD	; 253
    5956:	68 83       	st	Y, r22
    5958:	79 83       	std	Y+1, r23	; 0x01
    595a:	8a 83       	std	Y+2, r24	; 0x02
    595c:	9b 83       	std	Y+3, r25	; 0x03
    595e:	c3 53       	subi	r28, 0x33	; 51
    5960:	d2 40       	sbci	r29, 0x02	; 2
    5962:	cd 5c       	subi	r28, 0xCD	; 205
    5964:	dd 4f       	sbci	r29, 0xFD	; 253
    5966:	e8 81       	ld	r30, Y
    5968:	f9 81       	ldd	r31, Y+1	; 0x01
    596a:	c3 53       	subi	r28, 0x33	; 51
    596c:	d2 40       	sbci	r29, 0x02	; 2
    596e:	d8 01       	movw	r26, r16
    5970:	11 96       	adiw	r26, 0x01	; 1
    5972:	fc 93       	st	X, r31
    5974:	ee 93       	st	-X, r30

00005976 <.Loc.796>:
		while(__ticks)
    5976:	26 c0       	rjmp	.+76     	; 0x59c4 <.L272>

00005978 <.L273>:
    5978:	ce 01       	movw	r24, r28
    597a:	8b 52       	subi	r24, 0x2B	; 43
    597c:	9f 4f       	sbci	r25, 0xFF	; 255
    597e:	20 e9       	ldi	r18, 0x90	; 144
    5980:	31 e0       	ldi	r19, 0x01	; 1
    5982:	dc 01       	movw	r26, r24
    5984:	2d 93       	st	X+, r18
    5986:	3c 93       	st	X, r19

00005988 <.LBB240>:
    5988:	ce 01       	movw	r24, r28
    598a:	8b 52       	subi	r24, 0x2B	; 43
    598c:	9f 4f       	sbci	r25, 0xFF	; 255
    598e:	fc 01       	movw	r30, r24
    5990:	80 81       	ld	r24, Z
    5992:	91 81       	ldd	r25, Z+1	; 0x01

00005994 <.L1^B33>:
    5994:	01 97       	sbiw	r24, 0x01	; 1
    5996:	f1 f7       	brne	.-4      	; 0x5994 <.L1^B33>
    5998:	9e 01       	movw	r18, r28
    599a:	2b 52       	subi	r18, 0x2B	; 43
    599c:	3f 4f       	sbci	r19, 0xFF	; 255
    599e:	d9 01       	movw	r26, r18
    59a0:	8d 93       	st	X+, r24
    59a2:	9c 93       	st	X, r25

000059a4 <.Loc.798>:
	...

000059a6 <.LBE240>:
			__ticks --;
    59a6:	ce 01       	movw	r24, r28
    59a8:	8d 52       	subi	r24, 0x2D	; 45
    59aa:	9f 4f       	sbci	r25, 0xFF	; 255
    59ac:	9e 01       	movw	r18, r28
    59ae:	2d 52       	subi	r18, 0x2D	; 45
    59b0:	3f 4f       	sbci	r19, 0xFF	; 255
    59b2:	f9 01       	movw	r30, r18
    59b4:	20 81       	ld	r18, Z
    59b6:	31 81       	ldd	r19, Z+1	; 0x01
    59b8:	21 50       	subi	r18, 0x01	; 1
    59ba:	31 09       	sbc	r19, r1
    59bc:	dc 01       	movw	r26, r24
    59be:	11 96       	adiw	r26, 0x01	; 1
    59c0:	3c 93       	st	X, r19
    59c2:	2e 93       	st	-X, r18

000059c4 <.L272>:
		while(__ticks)
    59c4:	ce 01       	movw	r24, r28
    59c6:	8d 52       	subi	r24, 0x2D	; 45
    59c8:	9f 4f       	sbci	r25, 0xFF	; 255
    59ca:	fc 01       	movw	r30, r24
    59cc:	80 81       	ld	r24, Z
    59ce:	91 81       	ldd	r25, Z+1	; 0x01
    59d0:	00 97       	sbiw	r24, 0x00	; 0
    59d2:	91 f6       	brne	.-92     	; 0x5978 <.L273>

000059d4 <.Loc.801>:
		return;
    59d4:	3a c0       	rjmp	.+116    	; 0x5a4a <.L274>

000059d6 <.L371>:
		__ticks = (uint16_t)__tmp;
    59d6:	8e 01       	movw	r16, r28
    59d8:	0d 52       	subi	r16, 0x2D	; 45
    59da:	1f 4f       	sbci	r17, 0xFF	; 255
    59dc:	ce 01       	movw	r24, r28
    59de:	81 53       	subi	r24, 0x31	; 49
    59e0:	9f 4f       	sbci	r25, 0xFF	; 255
    59e2:	dc 01       	movw	r26, r24
    59e4:	6d 91       	ld	r22, X+
    59e6:	7d 91       	ld	r23, X+
    59e8:	8d 91       	ld	r24, X+
    59ea:	9c 91       	ld	r25, X
    59ec:	0e 94 ba 31 	call	0x6374	; 0x6374 <__fixunssfsi>
    59f0:	c9 5c       	subi	r28, 0xC9	; 201
    59f2:	dd 4f       	sbci	r29, 0xFD	; 253
    59f4:	68 83       	st	Y, r22
    59f6:	79 83       	std	Y+1, r23	; 0x01
    59f8:	8a 83       	std	Y+2, r24	; 0x02
    59fa:	9b 83       	std	Y+3, r25	; 0x03
    59fc:	c7 53       	subi	r28, 0x37	; 55
    59fe:	d2 40       	sbci	r29, 0x02	; 2
    5a00:	c9 5c       	subi	r28, 0xC9	; 201
    5a02:	dd 4f       	sbci	r29, 0xFD	; 253
    5a04:	88 81       	ld	r24, Y
    5a06:	99 81       	ldd	r25, Y+1	; 0x01
    5a08:	c7 53       	subi	r28, 0x37	; 55
    5a0a:	d2 40       	sbci	r29, 0x02	; 2
    5a0c:	f8 01       	movw	r30, r16
    5a0e:	91 83       	std	Z+1, r25	; 0x01
    5a10:	80 83       	st	Z, r24

00005a12 <.L269>:
    5a12:	ce 01       	movw	r24, r28
    5a14:	89 52       	subi	r24, 0x29	; 41
    5a16:	9f 4f       	sbci	r25, 0xFF	; 255
    5a18:	9e 01       	movw	r18, r28
    5a1a:	2d 52       	subi	r18, 0x2D	; 45
    5a1c:	3f 4f       	sbci	r19, 0xFF	; 255
    5a1e:	d9 01       	movw	r26, r18
    5a20:	2d 91       	ld	r18, X+
    5a22:	3c 91       	ld	r19, X
    5a24:	fc 01       	movw	r30, r24
    5a26:	31 83       	std	Z+1, r19	; 0x01
    5a28:	20 83       	st	Z, r18

00005a2a <.LBB242>:
    5a2a:	ce 01       	movw	r24, r28
    5a2c:	89 52       	subi	r24, 0x29	; 41
    5a2e:	9f 4f       	sbci	r25, 0xFF	; 255
    5a30:	dc 01       	movw	r26, r24
    5a32:	8d 91       	ld	r24, X+
    5a34:	9c 91       	ld	r25, X
    5a36:	11 97       	sbiw	r26, 0x01	; 1

00005a38 <.L1^B34>:
    5a38:	01 97       	sbiw	r24, 0x01	; 1
    5a3a:	f1 f7       	brne	.-4      	; 0x5a38 <.L1^B34>
    5a3c:	9e 01       	movw	r18, r28
    5a3e:	29 52       	subi	r18, 0x29	; 41
    5a40:	3f 4f       	sbci	r19, 0xFF	; 255
    5a42:	f9 01       	movw	r30, r18
    5a44:	91 83       	std	Z+1, r25	; 0x01
    5a46:	80 83       	st	Z, r24

00005a48 <.Loc.804>:
	...

00005a4a <.L274>:
            for(int i = 0; i < 11; i++){
    5a4a:	8b 81       	ldd	r24, Y+3	; 0x03
    5a4c:	9c 81       	ldd	r25, Y+4	; 0x04
    5a4e:	01 96       	adiw	r24, 0x01	; 1
    5a50:	9c 83       	std	Y+4, r25	; 0x04
    5a52:	8b 83       	std	Y+3, r24	; 0x03

00005a54 <.L256>:
    5a54:	8b 81       	ldd	r24, Y+3	; 0x03
    5a56:	9c 81       	ldd	r25, Y+4	; 0x04
    5a58:	8a 30       	cpi	r24, 0x0A	; 10
    5a5a:	91 05       	cpc	r25, r1
    5a5c:	09 f0       	breq	.+2      	; 0x5a60 <L0^A>

00005a5e <L0^A>:
    5a5e:	0c f4       	brge	.+2      	; 0x5a62 <.L266>

00005a60 <L0^A>:
    5a60:	bb cd       	rjmp	.-1162   	; 0x55d8 <.L275>

00005a62 <.L266>:
                }
                _delay_ms(100);
            }

            buzzer(0);
    5a62:	80 e0       	ldi	r24, 0x00	; 0
    5a64:	90 e0       	ldi	r25, 0x00	; 0
    5a66:	0e 94 e2 16 	call	0x2dc4	; 0x2dc4 <buzzer>

00005a6a <.LBB244>:


            // Even de led aan laten
            for(int i = 0; i < 31; i++){
    5a6a:	1e 82       	std	Y+6, r1	; 0x06
    5a6c:	1d 82       	std	Y+5, r1	; 0x05

00005a6e <.Loc.809>:
    5a6e:	42 c2       	rjmp	.+1156   	; 0x5ef4 <.L276>

00005a70 <.L295>:
                if(((PINA & (1<<PA2)) != 0) && (noodstop_Onthouden == 0)){
    5a70:	80 e2       	ldi	r24, 0x20	; 32
    5a72:	90 e0       	ldi	r25, 0x00	; 0
    5a74:	dc 01       	movw	r26, r24
    5a76:	8c 91       	ld	r24, X

00005a78 <.Loc.811>:
    5a78:	88 2f       	mov	r24, r24
    5a7a:	90 e0       	ldi	r25, 0x00	; 0
    5a7c:	84 70       	andi	r24, 0x04	; 4
    5a7e:	99 27       	eor	r25, r25

00005a80 <.Loc.812>:
    5a80:	00 97       	sbiw	r24, 0x00	; 0
    5a82:	09 f4       	brne	.+2      	; 0x5a86 <.Loc.813>

00005a84 <L0^A>:
    5a84:	26 c1       	rjmp	.+588    	; 0x5cd2 <.L277>

00005a86 <.Loc.813>:
    5a86:	80 91 36 02 	lds	r24, 0x0236	; 0x800236 <noodstop_Onthouden>
    5a8a:	90 91 37 02 	lds	r25, 0x0237	; 0x800237 <noodstop_Onthouden+0x1>

00005a8e <.Loc.814>:
    5a8e:	00 97       	sbiw	r24, 0x00	; 0
    5a90:	09 f0       	breq	.+2      	; 0x5a94 <.Loc.815>

00005a92 <L0^A>:
    5a92:	1f c1       	rjmp	.+574    	; 0x5cd2 <.L277>

00005a94 <.Loc.815>:
                    linksboomled(0);
    5a94:	80 e0       	ldi	r24, 0x00	; 0
    5a96:	90 e0       	ldi	r25, 0x00	; 0
    5a98:	0e 94 4e 16 	call	0x2c9c	; 0x2c9c <linksboomled>

00005a9c <.Loc.816>:
                    rechtsboomled(0);
    5a9c:	80 e0       	ldi	r24, 0x00	; 0
    5a9e:	90 e0       	ldi	r25, 0x00	; 0
    5aa0:	0e 94 29 16 	call	0x2c52	; 0x2c52 <rechtsboomled>
    5aa4:	9e 01       	movw	r18, r28
    5aa6:	27 52       	subi	r18, 0x27	; 39
    5aa8:	3f 4f       	sbci	r19, 0xFF	; 255
    5aaa:	80 e0       	ldi	r24, 0x00	; 0
    5aac:	90 e0       	ldi	r25, 0x00	; 0
    5aae:	a0 ea       	ldi	r26, 0xA0	; 160
    5ab0:	b1 e4       	ldi	r27, 0x41	; 65
    5ab2:	f9 01       	movw	r30, r18
    5ab4:	80 83       	st	Z, r24
    5ab6:	91 83       	std	Z+1, r25	; 0x01
    5ab8:	a2 83       	std	Z+2, r26	; 0x02
    5aba:	b3 83       	std	Z+3, r27	; 0x03

00005abc <.LBB245>:
	__tmp = ((F_CPU) / 4e3) * __ms;
    5abc:	8e 01       	movw	r16, r28
    5abe:	03 52       	subi	r16, 0x23	; 35
    5ac0:	1f 4f       	sbci	r17, 0xFF	; 255
    5ac2:	ce 01       	movw	r24, r28
    5ac4:	87 52       	subi	r24, 0x27	; 39
    5ac6:	9f 4f       	sbci	r25, 0xFF	; 255
    5ac8:	20 e0       	ldi	r18, 0x00	; 0
    5aca:	30 e0       	ldi	r19, 0x00	; 0
    5acc:	4a e7       	ldi	r20, 0x7A	; 122
    5ace:	55 e4       	ldi	r21, 0x45	; 69
    5ad0:	dc 01       	movw	r26, r24
    5ad2:	6d 91       	ld	r22, X+
    5ad4:	7d 91       	ld	r23, X+
    5ad6:	8d 91       	ld	r24, X+
    5ad8:	9c 91       	ld	r25, X
    5ada:	0e 94 a0 32 	call	0x6540	; 0x6540 <__mulsf3>
    5ade:	c5 5c       	subi	r28, 0xC5	; 197
    5ae0:	dd 4f       	sbci	r29, 0xFD	; 253
    5ae2:	68 83       	st	Y, r22
    5ae4:	79 83       	std	Y+1, r23	; 0x01
    5ae6:	8a 83       	std	Y+2, r24	; 0x02
    5ae8:	9b 83       	std	Y+3, r25	; 0x03
    5aea:	cb 53       	subi	r28, 0x3B	; 59
    5aec:	d2 40       	sbci	r29, 0x02	; 2
    5aee:	c5 5c       	subi	r28, 0xC5	; 197
    5af0:	dd 4f       	sbci	r29, 0xFD	; 253
    5af2:	88 81       	ld	r24, Y
    5af4:	99 81       	ldd	r25, Y+1	; 0x01
    5af6:	aa 81       	ldd	r26, Y+2	; 0x02
    5af8:	bb 81       	ldd	r27, Y+3	; 0x03
    5afa:	cb 53       	subi	r28, 0x3B	; 59
    5afc:	d2 40       	sbci	r29, 0x02	; 2
    5afe:	f8 01       	movw	r30, r16
    5b00:	80 83       	st	Z, r24
    5b02:	91 83       	std	Z+1, r25	; 0x01
    5b04:	a2 83       	std	Z+2, r26	; 0x02
    5b06:	b3 83       	std	Z+3, r27	; 0x03

00005b08 <.Loc.818>:
	if (__tmp < 1.0)
    5b08:	ce 01       	movw	r24, r28
    5b0a:	83 52       	subi	r24, 0x23	; 35
    5b0c:	9f 4f       	sbci	r25, 0xFF	; 255
    5b0e:	20 e0       	ldi	r18, 0x00	; 0
    5b10:	30 e0       	ldi	r19, 0x00	; 0
    5b12:	40 e8       	ldi	r20, 0x80	; 128
    5b14:	5f e3       	ldi	r21, 0x3F	; 63
    5b16:	dc 01       	movw	r26, r24
    5b18:	6d 91       	ld	r22, X+
    5b1a:	7d 91       	ld	r23, X+
    5b1c:	8d 91       	ld	r24, X+
    5b1e:	9c 91       	ld	r25, X
    5b20:	0e 94 3c 31 	call	0x6278	; 0x6278 <__cmpsf2>
    5b24:	88 23       	and	r24, r24
    5b26:	4c f4       	brge	.+18     	; 0x5b3a <.L372>

00005b28 <.Loc.819>:
		__ticks = 1;
    5b28:	ce 01       	movw	r24, r28
    5b2a:	8f 51       	subi	r24, 0x1F	; 31
    5b2c:	9f 4f       	sbci	r25, 0xFF	; 255
    5b2e:	21 e0       	ldi	r18, 0x01	; 1
    5b30:	30 e0       	ldi	r19, 0x00	; 0
    5b32:	fc 01       	movw	r30, r24
    5b34:	31 83       	std	Z+1, r19	; 0x01
    5b36:	20 83       	st	Z, r18
    5b38:	a5 c0       	rjmp	.+330    	; 0x5c84 <.L280>

00005b3a <.L372>:
	else if (__tmp > 65535)
    5b3a:	ce 01       	movw	r24, r28
    5b3c:	83 52       	subi	r24, 0x23	; 35
    5b3e:	9f 4f       	sbci	r25, 0xFF	; 255
    5b40:	20 e0       	ldi	r18, 0x00	; 0
    5b42:	3f ef       	ldi	r19, 0xFF	; 255
    5b44:	4f e7       	ldi	r20, 0x7F	; 127
    5b46:	57 e4       	ldi	r21, 0x47	; 71
    5b48:	dc 01       	movw	r26, r24
    5b4a:	6d 91       	ld	r22, X+
    5b4c:	7d 91       	ld	r23, X+
    5b4e:	8d 91       	ld	r24, X+
    5b50:	9c 91       	ld	r25, X
    5b52:	0e 94 9b 32 	call	0x6536	; 0x6536 <__gesf2>
    5b56:	88 23       	and	r24, r24
    5b58:	09 f0       	breq	.+2      	; 0x5b5c <L0^A>

00005b5a <L0^A>:
    5b5a:	0c f4       	brge	.+2      	; 0x5b5e <.Loc.821>

00005b5c <L0^A>:
    5b5c:	75 c0       	rjmp	.+234    	; 0x5c48 <.L373>

00005b5e <.Loc.821>:
		__ticks = (uint16_t) (__ms * 10.0);
    5b5e:	ce 01       	movw	r24, r28
    5b60:	87 52       	subi	r24, 0x27	; 39
    5b62:	9f 4f       	sbci	r25, 0xFF	; 255
    5b64:	20 e0       	ldi	r18, 0x00	; 0
    5b66:	30 e0       	ldi	r19, 0x00	; 0
    5b68:	40 e2       	ldi	r20, 0x20	; 32
    5b6a:	51 e4       	ldi	r21, 0x41	; 65
    5b6c:	fc 01       	movw	r30, r24
    5b6e:	60 81       	ld	r22, Z
    5b70:	71 81       	ldd	r23, Z+1	; 0x01
    5b72:	82 81       	ldd	r24, Z+2	; 0x02
    5b74:	93 81       	ldd	r25, Z+3	; 0x03
    5b76:	0e 94 a0 32 	call	0x6540	; 0x6540 <__mulsf3>
    5b7a:	c1 5c       	subi	r28, 0xC1	; 193
    5b7c:	dd 4f       	sbci	r29, 0xFD	; 253
    5b7e:	68 83       	st	Y, r22
    5b80:	79 83       	std	Y+1, r23	; 0x01
    5b82:	8a 83       	std	Y+2, r24	; 0x02
    5b84:	9b 83       	std	Y+3, r25	; 0x03
    5b86:	cf 53       	subi	r28, 0x3F	; 63
    5b88:	d2 40       	sbci	r29, 0x02	; 2
    5b8a:	c1 5c       	subi	r28, 0xC1	; 193
    5b8c:	dd 4f       	sbci	r29, 0xFD	; 253
    5b8e:	88 81       	ld	r24, Y
    5b90:	99 81       	ldd	r25, Y+1	; 0x01
    5b92:	aa 81       	ldd	r26, Y+2	; 0x02
    5b94:	bb 81       	ldd	r27, Y+3	; 0x03
    5b96:	cf 53       	subi	r28, 0x3F	; 63
    5b98:	d2 40       	sbci	r29, 0x02	; 2
    5b9a:	c1 5c       	subi	r28, 0xC1	; 193
    5b9c:	de 4f       	sbci	r29, 0xFE	; 254
    5b9e:	88 83       	st	Y, r24
    5ba0:	99 83       	std	Y+1, r25	; 0x01
    5ba2:	aa 83       	std	Y+2, r26	; 0x02
    5ba4:	bb 83       	std	Y+3, r27	; 0x03
    5ba6:	cf 53       	subi	r28, 0x3F	; 63
    5ba8:	d1 40       	sbci	r29, 0x01	; 1

00005baa <.Loc.822>:
    5baa:	8e 01       	movw	r16, r28
    5bac:	0f 51       	subi	r16, 0x1F	; 31
    5bae:	1f 4f       	sbci	r17, 0xFF	; 255
    5bb0:	c1 5c       	subi	r28, 0xC1	; 193
    5bb2:	de 4f       	sbci	r29, 0xFE	; 254
    5bb4:	68 81       	ld	r22, Y
    5bb6:	79 81       	ldd	r23, Y+1	; 0x01
    5bb8:	8a 81       	ldd	r24, Y+2	; 0x02
    5bba:	9b 81       	ldd	r25, Y+3	; 0x03
    5bbc:	cf 53       	subi	r28, 0x3F	; 63
    5bbe:	d1 40       	sbci	r29, 0x01	; 1
    5bc0:	0e 94 ba 31 	call	0x6374	; 0x6374 <__fixunssfsi>
    5bc4:	cd 5b       	subi	r28, 0xBD	; 189
    5bc6:	dd 4f       	sbci	r29, 0xFD	; 253
    5bc8:	68 83       	st	Y, r22
    5bca:	79 83       	std	Y+1, r23	; 0x01
    5bcc:	8a 83       	std	Y+2, r24	; 0x02
    5bce:	9b 83       	std	Y+3, r25	; 0x03
    5bd0:	c3 54       	subi	r28, 0x43	; 67
    5bd2:	d2 40       	sbci	r29, 0x02	; 2
    5bd4:	cd 5b       	subi	r28, 0xBD	; 189
    5bd6:	dd 4f       	sbci	r29, 0xFD	; 253
    5bd8:	e8 81       	ld	r30, Y
    5bda:	f9 81       	ldd	r31, Y+1	; 0x01
    5bdc:	c3 54       	subi	r28, 0x43	; 67
    5bde:	d2 40       	sbci	r29, 0x02	; 2
    5be0:	d8 01       	movw	r26, r16
    5be2:	11 96       	adiw	r26, 0x01	; 1
    5be4:	fc 93       	st	X, r31
    5be6:	ee 93       	st	-X, r30

00005be8 <.Loc.823>:
		while(__ticks)
    5be8:	26 c0       	rjmp	.+76     	; 0x5c36 <.L283>

00005bea <.L284>:
    5bea:	ce 01       	movw	r24, r28
    5bec:	8d 51       	subi	r24, 0x1D	; 29
    5bee:	9f 4f       	sbci	r25, 0xFF	; 255
    5bf0:	20 e9       	ldi	r18, 0x90	; 144
    5bf2:	31 e0       	ldi	r19, 0x01	; 1
    5bf4:	dc 01       	movw	r26, r24
    5bf6:	2d 93       	st	X+, r18
    5bf8:	3c 93       	st	X, r19

00005bfa <.LBB247>:
    5bfa:	ce 01       	movw	r24, r28
    5bfc:	8d 51       	subi	r24, 0x1D	; 29
    5bfe:	9f 4f       	sbci	r25, 0xFF	; 255
    5c00:	fc 01       	movw	r30, r24
    5c02:	80 81       	ld	r24, Z
    5c04:	91 81       	ldd	r25, Z+1	; 0x01

00005c06 <.L1^B35>:
    5c06:	01 97       	sbiw	r24, 0x01	; 1
    5c08:	f1 f7       	brne	.-4      	; 0x5c06 <.L1^B35>
    5c0a:	9e 01       	movw	r18, r28
    5c0c:	2d 51       	subi	r18, 0x1D	; 29
    5c0e:	3f 4f       	sbci	r19, 0xFF	; 255
    5c10:	d9 01       	movw	r26, r18
    5c12:	8d 93       	st	X+, r24
    5c14:	9c 93       	st	X, r25

00005c16 <.Loc.825>:
	...

00005c18 <.LBE247>:
			__ticks --;
    5c18:	ce 01       	movw	r24, r28
    5c1a:	8f 51       	subi	r24, 0x1F	; 31
    5c1c:	9f 4f       	sbci	r25, 0xFF	; 255
    5c1e:	9e 01       	movw	r18, r28
    5c20:	2f 51       	subi	r18, 0x1F	; 31
    5c22:	3f 4f       	sbci	r19, 0xFF	; 255
    5c24:	f9 01       	movw	r30, r18
    5c26:	20 81       	ld	r18, Z
    5c28:	31 81       	ldd	r19, Z+1	; 0x01
    5c2a:	21 50       	subi	r18, 0x01	; 1
    5c2c:	31 09       	sbc	r19, r1
    5c2e:	dc 01       	movw	r26, r24
    5c30:	11 96       	adiw	r26, 0x01	; 1
    5c32:	3c 93       	st	X, r19
    5c34:	2e 93       	st	-X, r18

00005c36 <.L283>:
		while(__ticks)
    5c36:	ce 01       	movw	r24, r28
    5c38:	8f 51       	subi	r24, 0x1F	; 31
    5c3a:	9f 4f       	sbci	r25, 0xFF	; 255
    5c3c:	fc 01       	movw	r30, r24
    5c3e:	80 81       	ld	r24, Z
    5c40:	91 81       	ldd	r25, Z+1	; 0x01
    5c42:	00 97       	sbiw	r24, 0x00	; 0
    5c44:	91 f6       	brne	.-92     	; 0x5bea <.L284>

00005c46 <.Loc.828>:
		return;
    5c46:	3a c0       	rjmp	.+116    	; 0x5cbc <.L285>

00005c48 <.L373>:
		__ticks = (uint16_t)__tmp;
    5c48:	8e 01       	movw	r16, r28
    5c4a:	0f 51       	subi	r16, 0x1F	; 31
    5c4c:	1f 4f       	sbci	r17, 0xFF	; 255
    5c4e:	ce 01       	movw	r24, r28
    5c50:	83 52       	subi	r24, 0x23	; 35
    5c52:	9f 4f       	sbci	r25, 0xFF	; 255
    5c54:	dc 01       	movw	r26, r24
    5c56:	6d 91       	ld	r22, X+
    5c58:	7d 91       	ld	r23, X+
    5c5a:	8d 91       	ld	r24, X+
    5c5c:	9c 91       	ld	r25, X
    5c5e:	0e 94 ba 31 	call	0x6374	; 0x6374 <__fixunssfsi>
    5c62:	c9 5b       	subi	r28, 0xB9	; 185
    5c64:	dd 4f       	sbci	r29, 0xFD	; 253
    5c66:	68 83       	st	Y, r22
    5c68:	79 83       	std	Y+1, r23	; 0x01
    5c6a:	8a 83       	std	Y+2, r24	; 0x02
    5c6c:	9b 83       	std	Y+3, r25	; 0x03
    5c6e:	c7 54       	subi	r28, 0x47	; 71
    5c70:	d2 40       	sbci	r29, 0x02	; 2
    5c72:	c9 5b       	subi	r28, 0xB9	; 185
    5c74:	dd 4f       	sbci	r29, 0xFD	; 253
    5c76:	88 81       	ld	r24, Y
    5c78:	99 81       	ldd	r25, Y+1	; 0x01
    5c7a:	c7 54       	subi	r28, 0x47	; 71
    5c7c:	d2 40       	sbci	r29, 0x02	; 2
    5c7e:	f8 01       	movw	r30, r16
    5c80:	91 83       	std	Z+1, r25	; 0x01
    5c82:	80 83       	st	Z, r24

00005c84 <.L280>:
    5c84:	ce 01       	movw	r24, r28
    5c86:	8b 51       	subi	r24, 0x1B	; 27
    5c88:	9f 4f       	sbci	r25, 0xFF	; 255
    5c8a:	9e 01       	movw	r18, r28
    5c8c:	2f 51       	subi	r18, 0x1F	; 31
    5c8e:	3f 4f       	sbci	r19, 0xFF	; 255
    5c90:	d9 01       	movw	r26, r18
    5c92:	2d 91       	ld	r18, X+
    5c94:	3c 91       	ld	r19, X
    5c96:	fc 01       	movw	r30, r24
    5c98:	31 83       	std	Z+1, r19	; 0x01
    5c9a:	20 83       	st	Z, r18

00005c9c <.LBB249>:
    5c9c:	ce 01       	movw	r24, r28
    5c9e:	8b 51       	subi	r24, 0x1B	; 27
    5ca0:	9f 4f       	sbci	r25, 0xFF	; 255
    5ca2:	dc 01       	movw	r26, r24
    5ca4:	8d 91       	ld	r24, X+
    5ca6:	9c 91       	ld	r25, X
    5ca8:	11 97       	sbiw	r26, 0x01	; 1

00005caa <.L1^B36>:
    5caa:	01 97       	sbiw	r24, 0x01	; 1
    5cac:	f1 f7       	brne	.-4      	; 0x5caa <.L1^B36>
    5cae:	9e 01       	movw	r18, r28
    5cb0:	2b 51       	subi	r18, 0x1B	; 27
    5cb2:	3f 4f       	sbci	r19, 0xFF	; 255
    5cb4:	f9 01       	movw	r30, r18
    5cb6:	91 83       	std	Z+1, r25	; 0x01
    5cb8:	80 83       	st	Z, r24

00005cba <.Loc.831>:
	...

00005cbc <.L285>:
                    _delay_ms(20);
                    noodstop_Onthouden = 1;
    5cbc:	81 e0       	ldi	r24, 0x01	; 1
    5cbe:	90 e0       	ldi	r25, 0x00	; 0
    5cc0:	90 93 37 02 	sts	0x0237, r25	; 0x800237 <noodstop_Onthouden+0x1>
    5cc4:	80 93 36 02 	sts	0x0236, r24	; 0x800236 <noodstop_Onthouden>

00005cc8 <.Loc.833>:
                    state = Noodstop;
    5cc8:	84 e0       	ldi	r24, 0x04	; 4
    5cca:	90 e0       	ldi	r25, 0x00	; 0
    5ccc:	9a 83       	std	Y+2, r25	; 0x02
    5cce:	89 83       	std	Y+1, r24	; 0x01

00005cd0 <.Loc.834>:
                    break;
    5cd0:	18 c1       	rjmp	.+560    	; 0x5f02 <.L286>

00005cd2 <.L277>:
    5cd2:	9e 01       	movw	r18, r28
    5cd4:	29 51       	subi	r18, 0x19	; 25
    5cd6:	3f 4f       	sbci	r19, 0xFF	; 255
    5cd8:	80 e0       	ldi	r24, 0x00	; 0
    5cda:	90 e0       	ldi	r25, 0x00	; 0
    5cdc:	a8 ec       	ldi	r26, 0xC8	; 200
    5cde:	b2 e4       	ldi	r27, 0x42	; 66
    5ce0:	f9 01       	movw	r30, r18
    5ce2:	80 83       	st	Z, r24
    5ce4:	91 83       	std	Z+1, r25	; 0x01
    5ce6:	a2 83       	std	Z+2, r26	; 0x02
    5ce8:	b3 83       	std	Z+3, r27	; 0x03

00005cea <.LBB251>:
	__tmp = ((F_CPU) / 4e3) * __ms;
    5cea:	8e 01       	movw	r16, r28
    5cec:	05 51       	subi	r16, 0x15	; 21
    5cee:	1f 4f       	sbci	r17, 0xFF	; 255
    5cf0:	ce 01       	movw	r24, r28
    5cf2:	89 51       	subi	r24, 0x19	; 25
    5cf4:	9f 4f       	sbci	r25, 0xFF	; 255
    5cf6:	20 e0       	ldi	r18, 0x00	; 0
    5cf8:	30 e0       	ldi	r19, 0x00	; 0
    5cfa:	4a e7       	ldi	r20, 0x7A	; 122
    5cfc:	55 e4       	ldi	r21, 0x45	; 69
    5cfe:	dc 01       	movw	r26, r24
    5d00:	6d 91       	ld	r22, X+
    5d02:	7d 91       	ld	r23, X+
    5d04:	8d 91       	ld	r24, X+
    5d06:	9c 91       	ld	r25, X
    5d08:	0e 94 a0 32 	call	0x6540	; 0x6540 <__mulsf3>
    5d0c:	c5 5b       	subi	r28, 0xB5	; 181
    5d0e:	dd 4f       	sbci	r29, 0xFD	; 253
    5d10:	68 83       	st	Y, r22
    5d12:	79 83       	std	Y+1, r23	; 0x01
    5d14:	8a 83       	std	Y+2, r24	; 0x02
    5d16:	9b 83       	std	Y+3, r25	; 0x03
    5d18:	cb 54       	subi	r28, 0x4B	; 75
    5d1a:	d2 40       	sbci	r29, 0x02	; 2
    5d1c:	c5 5b       	subi	r28, 0xB5	; 181
    5d1e:	dd 4f       	sbci	r29, 0xFD	; 253
    5d20:	88 81       	ld	r24, Y
    5d22:	99 81       	ldd	r25, Y+1	; 0x01
    5d24:	aa 81       	ldd	r26, Y+2	; 0x02
    5d26:	bb 81       	ldd	r27, Y+3	; 0x03
    5d28:	cb 54       	subi	r28, 0x4B	; 75
    5d2a:	d2 40       	sbci	r29, 0x02	; 2
    5d2c:	f8 01       	movw	r30, r16
    5d2e:	80 83       	st	Z, r24
    5d30:	91 83       	std	Z+1, r25	; 0x01
    5d32:	a2 83       	std	Z+2, r26	; 0x02
    5d34:	b3 83       	std	Z+3, r27	; 0x03

00005d36 <.Loc.836>:
	if (__tmp < 1.0)
    5d36:	ce 01       	movw	r24, r28
    5d38:	85 51       	subi	r24, 0x15	; 21
    5d3a:	9f 4f       	sbci	r25, 0xFF	; 255
    5d3c:	20 e0       	ldi	r18, 0x00	; 0
    5d3e:	30 e0       	ldi	r19, 0x00	; 0
    5d40:	40 e8       	ldi	r20, 0x80	; 128
    5d42:	5f e3       	ldi	r21, 0x3F	; 63
    5d44:	dc 01       	movw	r26, r24
    5d46:	6d 91       	ld	r22, X+
    5d48:	7d 91       	ld	r23, X+
    5d4a:	8d 91       	ld	r24, X+
    5d4c:	9c 91       	ld	r25, X
    5d4e:	0e 94 3c 31 	call	0x6278	; 0x6278 <__cmpsf2>
    5d52:	88 23       	and	r24, r24
    5d54:	4c f4       	brge	.+18     	; 0x5d68 <.L374>

00005d56 <.Loc.837>:
		__ticks = 1;
    5d56:	ce 01       	movw	r24, r28
    5d58:	81 51       	subi	r24, 0x11	; 17
    5d5a:	9f 4f       	sbci	r25, 0xFF	; 255
    5d5c:	21 e0       	ldi	r18, 0x01	; 1
    5d5e:	30 e0       	ldi	r19, 0x00	; 0
    5d60:	fc 01       	movw	r30, r24
    5d62:	31 83       	std	Z+1, r19	; 0x01
    5d64:	20 83       	st	Z, r18
    5d66:	a5 c0       	rjmp	.+330    	; 0x5eb2 <.L289>

00005d68 <.L374>:
	else if (__tmp > 65535)
    5d68:	ce 01       	movw	r24, r28
    5d6a:	85 51       	subi	r24, 0x15	; 21
    5d6c:	9f 4f       	sbci	r25, 0xFF	; 255
    5d6e:	20 e0       	ldi	r18, 0x00	; 0
    5d70:	3f ef       	ldi	r19, 0xFF	; 255
    5d72:	4f e7       	ldi	r20, 0x7F	; 127
    5d74:	57 e4       	ldi	r21, 0x47	; 71
    5d76:	dc 01       	movw	r26, r24
    5d78:	6d 91       	ld	r22, X+
    5d7a:	7d 91       	ld	r23, X+
    5d7c:	8d 91       	ld	r24, X+
    5d7e:	9c 91       	ld	r25, X
    5d80:	0e 94 9b 32 	call	0x6536	; 0x6536 <__gesf2>
    5d84:	88 23       	and	r24, r24
    5d86:	09 f0       	breq	.+2      	; 0x5d8a <L0^A>

00005d88 <L0^A>:
    5d88:	0c f4       	brge	.+2      	; 0x5d8c <.Loc.839>

00005d8a <L0^A>:
    5d8a:	75 c0       	rjmp	.+234    	; 0x5e76 <.L375>

00005d8c <.Loc.839>:
		__ticks = (uint16_t) (__ms * 10.0);
    5d8c:	ce 01       	movw	r24, r28
    5d8e:	89 51       	subi	r24, 0x19	; 25
    5d90:	9f 4f       	sbci	r25, 0xFF	; 255
    5d92:	20 e0       	ldi	r18, 0x00	; 0
    5d94:	30 e0       	ldi	r19, 0x00	; 0
    5d96:	40 e2       	ldi	r20, 0x20	; 32
    5d98:	51 e4       	ldi	r21, 0x41	; 65
    5d9a:	fc 01       	movw	r30, r24
    5d9c:	60 81       	ld	r22, Z
    5d9e:	71 81       	ldd	r23, Z+1	; 0x01
    5da0:	82 81       	ldd	r24, Z+2	; 0x02
    5da2:	93 81       	ldd	r25, Z+3	; 0x03
    5da4:	0e 94 a0 32 	call	0x6540	; 0x6540 <__mulsf3>
    5da8:	c1 5b       	subi	r28, 0xB1	; 177
    5daa:	dd 4f       	sbci	r29, 0xFD	; 253
    5dac:	68 83       	st	Y, r22
    5dae:	79 83       	std	Y+1, r23	; 0x01
    5db0:	8a 83       	std	Y+2, r24	; 0x02
    5db2:	9b 83       	std	Y+3, r25	; 0x03
    5db4:	cf 54       	subi	r28, 0x4F	; 79
    5db6:	d2 40       	sbci	r29, 0x02	; 2
    5db8:	c1 5b       	subi	r28, 0xB1	; 177
    5dba:	dd 4f       	sbci	r29, 0xFD	; 253
    5dbc:	88 81       	ld	r24, Y
    5dbe:	99 81       	ldd	r25, Y+1	; 0x01
    5dc0:	aa 81       	ldd	r26, Y+2	; 0x02
    5dc2:	bb 81       	ldd	r27, Y+3	; 0x03
    5dc4:	cf 54       	subi	r28, 0x4F	; 79
    5dc6:	d2 40       	sbci	r29, 0x02	; 2
    5dc8:	cd 5b       	subi	r28, 0xBD	; 189
    5dca:	de 4f       	sbci	r29, 0xFE	; 254
    5dcc:	88 83       	st	Y, r24
    5dce:	99 83       	std	Y+1, r25	; 0x01
    5dd0:	aa 83       	std	Y+2, r26	; 0x02
    5dd2:	bb 83       	std	Y+3, r27	; 0x03
    5dd4:	c3 54       	subi	r28, 0x43	; 67
    5dd6:	d1 40       	sbci	r29, 0x01	; 1

00005dd8 <.Loc.840>:
    5dd8:	8e 01       	movw	r16, r28
    5dda:	01 51       	subi	r16, 0x11	; 17
    5ddc:	1f 4f       	sbci	r17, 0xFF	; 255
    5dde:	cd 5b       	subi	r28, 0xBD	; 189
    5de0:	de 4f       	sbci	r29, 0xFE	; 254
    5de2:	68 81       	ld	r22, Y
    5de4:	79 81       	ldd	r23, Y+1	; 0x01
    5de6:	8a 81       	ldd	r24, Y+2	; 0x02
    5de8:	9b 81       	ldd	r25, Y+3	; 0x03
    5dea:	c3 54       	subi	r28, 0x43	; 67
    5dec:	d1 40       	sbci	r29, 0x01	; 1
    5dee:	0e 94 ba 31 	call	0x6374	; 0x6374 <__fixunssfsi>
    5df2:	cd 5a       	subi	r28, 0xAD	; 173
    5df4:	dd 4f       	sbci	r29, 0xFD	; 253
    5df6:	68 83       	st	Y, r22
    5df8:	79 83       	std	Y+1, r23	; 0x01
    5dfa:	8a 83       	std	Y+2, r24	; 0x02
    5dfc:	9b 83       	std	Y+3, r25	; 0x03
    5dfe:	c3 55       	subi	r28, 0x53	; 83
    5e00:	d2 40       	sbci	r29, 0x02	; 2
    5e02:	cd 5a       	subi	r28, 0xAD	; 173
    5e04:	dd 4f       	sbci	r29, 0xFD	; 253
    5e06:	e8 81       	ld	r30, Y
    5e08:	f9 81       	ldd	r31, Y+1	; 0x01
    5e0a:	c3 55       	subi	r28, 0x53	; 83
    5e0c:	d2 40       	sbci	r29, 0x02	; 2
    5e0e:	d8 01       	movw	r26, r16
    5e10:	11 96       	adiw	r26, 0x01	; 1
    5e12:	fc 93       	st	X, r31
    5e14:	ee 93       	st	-X, r30

00005e16 <.Loc.841>:
		while(__ticks)
    5e16:	26 c0       	rjmp	.+76     	; 0x5e64 <.L292>

00005e18 <.L293>:
    5e18:	ce 01       	movw	r24, r28
    5e1a:	8f 50       	subi	r24, 0x0F	; 15
    5e1c:	9f 4f       	sbci	r25, 0xFF	; 255
    5e1e:	20 e9       	ldi	r18, 0x90	; 144
    5e20:	31 e0       	ldi	r19, 0x01	; 1
    5e22:	dc 01       	movw	r26, r24
    5e24:	2d 93       	st	X+, r18
    5e26:	3c 93       	st	X, r19

00005e28 <.LBB253>:
    5e28:	ce 01       	movw	r24, r28
    5e2a:	8f 50       	subi	r24, 0x0F	; 15
    5e2c:	9f 4f       	sbci	r25, 0xFF	; 255
    5e2e:	fc 01       	movw	r30, r24
    5e30:	80 81       	ld	r24, Z
    5e32:	91 81       	ldd	r25, Z+1	; 0x01

00005e34 <.L1^B37>:
    5e34:	01 97       	sbiw	r24, 0x01	; 1
    5e36:	f1 f7       	brne	.-4      	; 0x5e34 <.L1^B37>
    5e38:	9e 01       	movw	r18, r28
    5e3a:	2f 50       	subi	r18, 0x0F	; 15
    5e3c:	3f 4f       	sbci	r19, 0xFF	; 255
    5e3e:	d9 01       	movw	r26, r18
    5e40:	8d 93       	st	X+, r24
    5e42:	9c 93       	st	X, r25

00005e44 <.Loc.843>:
	...

00005e46 <.LBE253>:
			__ticks --;
    5e46:	ce 01       	movw	r24, r28
    5e48:	81 51       	subi	r24, 0x11	; 17
    5e4a:	9f 4f       	sbci	r25, 0xFF	; 255
    5e4c:	9e 01       	movw	r18, r28
    5e4e:	21 51       	subi	r18, 0x11	; 17
    5e50:	3f 4f       	sbci	r19, 0xFF	; 255
    5e52:	f9 01       	movw	r30, r18
    5e54:	20 81       	ld	r18, Z
    5e56:	31 81       	ldd	r19, Z+1	; 0x01
    5e58:	21 50       	subi	r18, 0x01	; 1
    5e5a:	31 09       	sbc	r19, r1
    5e5c:	dc 01       	movw	r26, r24
    5e5e:	11 96       	adiw	r26, 0x01	; 1
    5e60:	3c 93       	st	X, r19
    5e62:	2e 93       	st	-X, r18

00005e64 <.L292>:
		while(__ticks)
    5e64:	ce 01       	movw	r24, r28
    5e66:	81 51       	subi	r24, 0x11	; 17
    5e68:	9f 4f       	sbci	r25, 0xFF	; 255
    5e6a:	fc 01       	movw	r30, r24
    5e6c:	80 81       	ld	r24, Z
    5e6e:	91 81       	ldd	r25, Z+1	; 0x01
    5e70:	00 97       	sbiw	r24, 0x00	; 0
    5e72:	91 f6       	brne	.-92     	; 0x5e18 <.L293>

00005e74 <.Loc.846>:
		return;
    5e74:	3a c0       	rjmp	.+116    	; 0x5eea <.L294>

00005e76 <.L375>:
		__ticks = (uint16_t)__tmp;
    5e76:	8e 01       	movw	r16, r28
    5e78:	01 51       	subi	r16, 0x11	; 17
    5e7a:	1f 4f       	sbci	r17, 0xFF	; 255
    5e7c:	ce 01       	movw	r24, r28
    5e7e:	85 51       	subi	r24, 0x15	; 21
    5e80:	9f 4f       	sbci	r25, 0xFF	; 255
    5e82:	dc 01       	movw	r26, r24
    5e84:	6d 91       	ld	r22, X+
    5e86:	7d 91       	ld	r23, X+
    5e88:	8d 91       	ld	r24, X+
    5e8a:	9c 91       	ld	r25, X
    5e8c:	0e 94 ba 31 	call	0x6374	; 0x6374 <__fixunssfsi>
    5e90:	c9 5a       	subi	r28, 0xA9	; 169
    5e92:	dd 4f       	sbci	r29, 0xFD	; 253
    5e94:	68 83       	st	Y, r22
    5e96:	79 83       	std	Y+1, r23	; 0x01
    5e98:	8a 83       	std	Y+2, r24	; 0x02
    5e9a:	9b 83       	std	Y+3, r25	; 0x03
    5e9c:	c7 55       	subi	r28, 0x57	; 87
    5e9e:	d2 40       	sbci	r29, 0x02	; 2
    5ea0:	c9 5a       	subi	r28, 0xA9	; 169
    5ea2:	dd 4f       	sbci	r29, 0xFD	; 253
    5ea4:	88 81       	ld	r24, Y
    5ea6:	99 81       	ldd	r25, Y+1	; 0x01
    5ea8:	c7 55       	subi	r28, 0x57	; 87
    5eaa:	d2 40       	sbci	r29, 0x02	; 2
    5eac:	f8 01       	movw	r30, r16
    5eae:	91 83       	std	Z+1, r25	; 0x01
    5eb0:	80 83       	st	Z, r24

00005eb2 <.L289>:
    5eb2:	ce 01       	movw	r24, r28
    5eb4:	8d 50       	subi	r24, 0x0D	; 13
    5eb6:	9f 4f       	sbci	r25, 0xFF	; 255
    5eb8:	9e 01       	movw	r18, r28
    5eba:	21 51       	subi	r18, 0x11	; 17
    5ebc:	3f 4f       	sbci	r19, 0xFF	; 255
    5ebe:	d9 01       	movw	r26, r18
    5ec0:	2d 91       	ld	r18, X+
    5ec2:	3c 91       	ld	r19, X
    5ec4:	fc 01       	movw	r30, r24
    5ec6:	31 83       	std	Z+1, r19	; 0x01
    5ec8:	20 83       	st	Z, r18

00005eca <.LBB255>:
    5eca:	ce 01       	movw	r24, r28
    5ecc:	8d 50       	subi	r24, 0x0D	; 13
    5ece:	9f 4f       	sbci	r25, 0xFF	; 255
    5ed0:	dc 01       	movw	r26, r24
    5ed2:	8d 91       	ld	r24, X+
    5ed4:	9c 91       	ld	r25, X
    5ed6:	11 97       	sbiw	r26, 0x01	; 1

00005ed8 <.L1^B38>:
    5ed8:	01 97       	sbiw	r24, 0x01	; 1
    5eda:	f1 f7       	brne	.-4      	; 0x5ed8 <.L1^B38>
    5edc:	9e 01       	movw	r18, r28
    5ede:	2d 50       	subi	r18, 0x0D	; 13
    5ee0:	3f 4f       	sbci	r19, 0xFF	; 255
    5ee2:	f9 01       	movw	r30, r18
    5ee4:	91 83       	std	Z+1, r25	; 0x01
    5ee6:	80 83       	st	Z, r24

00005ee8 <.Loc.849>:
	...

00005eea <.L294>:
            for(int i = 0; i < 31; i++){
    5eea:	8d 81       	ldd	r24, Y+5	; 0x05
    5eec:	9e 81       	ldd	r25, Y+6	; 0x06
    5eee:	01 96       	adiw	r24, 0x01	; 1
    5ef0:	9e 83       	std	Y+6, r25	; 0x06
    5ef2:	8d 83       	std	Y+5, r24	; 0x05

00005ef4 <.L276>:
    5ef4:	8d 81       	ldd	r24, Y+5	; 0x05
    5ef6:	9e 81       	ldd	r25, Y+6	; 0x06
    5ef8:	8e 31       	cpi	r24, 0x1E	; 30
    5efa:	91 05       	cpc	r25, r1
    5efc:	09 f0       	breq	.+2      	; 0x5f00 <L0^A>

00005efe <L0^A>:
    5efe:	0c f4       	brge	.+2      	; 0x5f02 <.L286>

00005f00 <L0^A>:
    5f00:	b7 cd       	rjmp	.-1170   	; 0x5a70 <.L295>

00005f02 <.L286>:
                }
                _delay_ms(100);
            }


            linksboomled(0);
    5f02:	80 e0       	ldi	r24, 0x00	; 0
    5f04:	90 e0       	ldi	r25, 0x00	; 0
    5f06:	0e 94 4e 16 	call	0x2c9c	; 0x2c9c <linksboomled>

00005f0a <.Loc.853>:
            rechtsboomled(0);
    5f0a:	80 e0       	ldi	r24, 0x00	; 0
    5f0c:	90 e0       	ldi	r25, 0x00	; 0
    5f0e:	0e 94 29 16 	call	0x2c52	; 0x2c52 <rechtsboomled>

00005f12 <.Loc.854>:

            if(((PINA & (1<<PA2)) != 0) && (noodstop_Onthouden == 0)){
    5f12:	80 e2       	ldi	r24, 0x20	; 32
    5f14:	90 e0       	ldi	r25, 0x00	; 0
    5f16:	dc 01       	movw	r26, r24
    5f18:	8c 91       	ld	r24, X

00005f1a <.Loc.855>:
    5f1a:	88 2f       	mov	r24, r24
    5f1c:	90 e0       	ldi	r25, 0x00	; 0
    5f1e:	84 70       	andi	r24, 0x04	; 4
    5f20:	99 27       	eor	r25, r25

00005f22 <.Loc.856>:
    5f22:	00 97       	sbiw	r24, 0x00	; 0
    5f24:	09 f4       	brne	.+2      	; 0x5f28 <.Loc.857>

00005f26 <L0^A>:
    5f26:	1e c1       	rjmp	.+572    	; 0x6164 <.L296>

00005f28 <.Loc.857>:
    5f28:	80 91 36 02 	lds	r24, 0x0236	; 0x800236 <noodstop_Onthouden>
    5f2c:	90 91 37 02 	lds	r25, 0x0237	; 0x800237 <noodstop_Onthouden+0x1>

00005f30 <.Loc.858>:
    5f30:	00 97       	sbiw	r24, 0x00	; 0
    5f32:	09 f0       	breq	.+2      	; 0x5f36 <L0^A+0x2>

00005f34 <L0^A>:
    5f34:	17 c1       	rjmp	.+558    	; 0x6164 <.L296>
    5f36:	9e 01       	movw	r18, r28
    5f38:	2b 50       	subi	r18, 0x0B	; 11
    5f3a:	3f 4f       	sbci	r19, 0xFF	; 255
    5f3c:	80 e0       	ldi	r24, 0x00	; 0
    5f3e:	90 e0       	ldi	r25, 0x00	; 0
    5f40:	a0 ea       	ldi	r26, 0xA0	; 160
    5f42:	b1 e4       	ldi	r27, 0x41	; 65
    5f44:	f9 01       	movw	r30, r18
    5f46:	80 83       	st	Z, r24
    5f48:	91 83       	std	Z+1, r25	; 0x01
    5f4a:	a2 83       	std	Z+2, r26	; 0x02
    5f4c:	b3 83       	std	Z+3, r27	; 0x03

00005f4e <.LBB257>:
	__tmp = ((F_CPU) / 4e3) * __ms;
    5f4e:	8e 01       	movw	r16, r28
    5f50:	07 50       	subi	r16, 0x07	; 7
    5f52:	1f 4f       	sbci	r17, 0xFF	; 255
    5f54:	ce 01       	movw	r24, r28
    5f56:	8b 50       	subi	r24, 0x0B	; 11
    5f58:	9f 4f       	sbci	r25, 0xFF	; 255
    5f5a:	20 e0       	ldi	r18, 0x00	; 0
    5f5c:	30 e0       	ldi	r19, 0x00	; 0
    5f5e:	4a e7       	ldi	r20, 0x7A	; 122
    5f60:	55 e4       	ldi	r21, 0x45	; 69
    5f62:	dc 01       	movw	r26, r24
    5f64:	6d 91       	ld	r22, X+
    5f66:	7d 91       	ld	r23, X+
    5f68:	8d 91       	ld	r24, X+
    5f6a:	9c 91       	ld	r25, X
    5f6c:	0e 94 a0 32 	call	0x6540	; 0x6540 <__mulsf3>
    5f70:	c5 5a       	subi	r28, 0xA5	; 165
    5f72:	dd 4f       	sbci	r29, 0xFD	; 253
    5f74:	68 83       	st	Y, r22
    5f76:	79 83       	std	Y+1, r23	; 0x01
    5f78:	8a 83       	std	Y+2, r24	; 0x02
    5f7a:	9b 83       	std	Y+3, r25	; 0x03
    5f7c:	cb 55       	subi	r28, 0x5B	; 91
    5f7e:	d2 40       	sbci	r29, 0x02	; 2
    5f80:	c5 5a       	subi	r28, 0xA5	; 165
    5f82:	dd 4f       	sbci	r29, 0xFD	; 253
    5f84:	88 81       	ld	r24, Y
    5f86:	99 81       	ldd	r25, Y+1	; 0x01
    5f88:	aa 81       	ldd	r26, Y+2	; 0x02
    5f8a:	bb 81       	ldd	r27, Y+3	; 0x03
    5f8c:	cb 55       	subi	r28, 0x5B	; 91
    5f8e:	d2 40       	sbci	r29, 0x02	; 2
    5f90:	f8 01       	movw	r30, r16
    5f92:	80 83       	st	Z, r24
    5f94:	91 83       	std	Z+1, r25	; 0x01
    5f96:	a2 83       	std	Z+2, r26	; 0x02
    5f98:	b3 83       	std	Z+3, r27	; 0x03

00005f9a <.Loc.860>:
	if (__tmp < 1.0)
    5f9a:	ce 01       	movw	r24, r28
    5f9c:	87 50       	subi	r24, 0x07	; 7
    5f9e:	9f 4f       	sbci	r25, 0xFF	; 255
    5fa0:	20 e0       	ldi	r18, 0x00	; 0
    5fa2:	30 e0       	ldi	r19, 0x00	; 0
    5fa4:	40 e8       	ldi	r20, 0x80	; 128
    5fa6:	5f e3       	ldi	r21, 0x3F	; 63
    5fa8:	dc 01       	movw	r26, r24
    5faa:	6d 91       	ld	r22, X+
    5fac:	7d 91       	ld	r23, X+
    5fae:	8d 91       	ld	r24, X+
    5fb0:	9c 91       	ld	r25, X
    5fb2:	0e 94 3c 31 	call	0x6278	; 0x6278 <__cmpsf2>
    5fb6:	88 23       	and	r24, r24
    5fb8:	4c f4       	brge	.+18     	; 0x5fcc <.L376>

00005fba <.Loc.861>:
		__ticks = 1;
    5fba:	ce 01       	movw	r24, r28
    5fbc:	83 50       	subi	r24, 0x03	; 3
    5fbe:	9f 4f       	sbci	r25, 0xFF	; 255
    5fc0:	21 e0       	ldi	r18, 0x01	; 1
    5fc2:	30 e0       	ldi	r19, 0x00	; 0
    5fc4:	fc 01       	movw	r30, r24
    5fc6:	31 83       	std	Z+1, r19	; 0x01
    5fc8:	20 83       	st	Z, r18
    5fca:	a5 c0       	rjmp	.+330    	; 0x6116 <.L299>

00005fcc <.L376>:
	else if (__tmp > 65535)
    5fcc:	ce 01       	movw	r24, r28
    5fce:	87 50       	subi	r24, 0x07	; 7
    5fd0:	9f 4f       	sbci	r25, 0xFF	; 255
    5fd2:	20 e0       	ldi	r18, 0x00	; 0
    5fd4:	3f ef       	ldi	r19, 0xFF	; 255
    5fd6:	4f e7       	ldi	r20, 0x7F	; 127
    5fd8:	57 e4       	ldi	r21, 0x47	; 71
    5fda:	dc 01       	movw	r26, r24
    5fdc:	6d 91       	ld	r22, X+
    5fde:	7d 91       	ld	r23, X+
    5fe0:	8d 91       	ld	r24, X+
    5fe2:	9c 91       	ld	r25, X
    5fe4:	0e 94 9b 32 	call	0x6536	; 0x6536 <__gesf2>
    5fe8:	88 23       	and	r24, r24
    5fea:	09 f0       	breq	.+2      	; 0x5fee <L0^A>

00005fec <L0^A>:
    5fec:	0c f4       	brge	.+2      	; 0x5ff0 <.Loc.863>

00005fee <L0^A>:
    5fee:	75 c0       	rjmp	.+234    	; 0x60da <.L377>

00005ff0 <.Loc.863>:
		__ticks = (uint16_t) (__ms * 10.0);
    5ff0:	ce 01       	movw	r24, r28
    5ff2:	8b 50       	subi	r24, 0x0B	; 11
    5ff4:	9f 4f       	sbci	r25, 0xFF	; 255
    5ff6:	20 e0       	ldi	r18, 0x00	; 0
    5ff8:	30 e0       	ldi	r19, 0x00	; 0
    5ffa:	40 e2       	ldi	r20, 0x20	; 32
    5ffc:	51 e4       	ldi	r21, 0x41	; 65
    5ffe:	fc 01       	movw	r30, r24
    6000:	60 81       	ld	r22, Z
    6002:	71 81       	ldd	r23, Z+1	; 0x01
    6004:	82 81       	ldd	r24, Z+2	; 0x02
    6006:	93 81       	ldd	r25, Z+3	; 0x03
    6008:	0e 94 a0 32 	call	0x6540	; 0x6540 <__mulsf3>
    600c:	c1 5a       	subi	r28, 0xA1	; 161
    600e:	dd 4f       	sbci	r29, 0xFD	; 253
    6010:	68 83       	st	Y, r22
    6012:	79 83       	std	Y+1, r23	; 0x01
    6014:	8a 83       	std	Y+2, r24	; 0x02
    6016:	9b 83       	std	Y+3, r25	; 0x03
    6018:	cf 55       	subi	r28, 0x5F	; 95
    601a:	d2 40       	sbci	r29, 0x02	; 2
    601c:	c1 5a       	subi	r28, 0xA1	; 161
    601e:	dd 4f       	sbci	r29, 0xFD	; 253
    6020:	88 81       	ld	r24, Y
    6022:	99 81       	ldd	r25, Y+1	; 0x01
    6024:	aa 81       	ldd	r26, Y+2	; 0x02
    6026:	bb 81       	ldd	r27, Y+3	; 0x03
    6028:	cf 55       	subi	r28, 0x5F	; 95
    602a:	d2 40       	sbci	r29, 0x02	; 2
    602c:	c9 5b       	subi	r28, 0xB9	; 185
    602e:	de 4f       	sbci	r29, 0xFE	; 254
    6030:	88 83       	st	Y, r24
    6032:	99 83       	std	Y+1, r25	; 0x01
    6034:	aa 83       	std	Y+2, r26	; 0x02
    6036:	bb 83       	std	Y+3, r27	; 0x03
    6038:	c7 54       	subi	r28, 0x47	; 71
    603a:	d1 40       	sbci	r29, 0x01	; 1

0000603c <.Loc.864>:
    603c:	8e 01       	movw	r16, r28
    603e:	03 50       	subi	r16, 0x03	; 3
    6040:	1f 4f       	sbci	r17, 0xFF	; 255
    6042:	c9 5b       	subi	r28, 0xB9	; 185
    6044:	de 4f       	sbci	r29, 0xFE	; 254
    6046:	68 81       	ld	r22, Y
    6048:	79 81       	ldd	r23, Y+1	; 0x01
    604a:	8a 81       	ldd	r24, Y+2	; 0x02
    604c:	9b 81       	ldd	r25, Y+3	; 0x03
    604e:	c7 54       	subi	r28, 0x47	; 71
    6050:	d1 40       	sbci	r29, 0x01	; 1
    6052:	0e 94 ba 31 	call	0x6374	; 0x6374 <__fixunssfsi>
    6056:	cd 59       	subi	r28, 0x9D	; 157
    6058:	dd 4f       	sbci	r29, 0xFD	; 253
    605a:	68 83       	st	Y, r22
    605c:	79 83       	std	Y+1, r23	; 0x01
    605e:	8a 83       	std	Y+2, r24	; 0x02
    6060:	9b 83       	std	Y+3, r25	; 0x03
    6062:	c3 56       	subi	r28, 0x63	; 99
    6064:	d2 40       	sbci	r29, 0x02	; 2
    6066:	cd 59       	subi	r28, 0x9D	; 157
    6068:	dd 4f       	sbci	r29, 0xFD	; 253
    606a:	e8 81       	ld	r30, Y
    606c:	f9 81       	ldd	r31, Y+1	; 0x01
    606e:	c3 56       	subi	r28, 0x63	; 99
    6070:	d2 40       	sbci	r29, 0x02	; 2
    6072:	d8 01       	movw	r26, r16
    6074:	11 96       	adiw	r26, 0x01	; 1
    6076:	fc 93       	st	X, r31
    6078:	ee 93       	st	-X, r30

0000607a <.Loc.865>:
		while(__ticks)
    607a:	26 c0       	rjmp	.+76     	; 0x60c8 <.L302>

0000607c <.L303>:
    607c:	ce 01       	movw	r24, r28
    607e:	81 50       	subi	r24, 0x01	; 1
    6080:	9f 4f       	sbci	r25, 0xFF	; 255
    6082:	20 e9       	ldi	r18, 0x90	; 144
    6084:	31 e0       	ldi	r19, 0x01	; 1
    6086:	dc 01       	movw	r26, r24
    6088:	2d 93       	st	X+, r18
    608a:	3c 93       	st	X, r19

0000608c <.LBB259>:
    608c:	ce 01       	movw	r24, r28
    608e:	81 50       	subi	r24, 0x01	; 1
    6090:	9f 4f       	sbci	r25, 0xFF	; 255
    6092:	fc 01       	movw	r30, r24
    6094:	80 81       	ld	r24, Z
    6096:	91 81       	ldd	r25, Z+1	; 0x01

00006098 <.L1^B39>:
    6098:	01 97       	sbiw	r24, 0x01	; 1
    609a:	f1 f7       	brne	.-4      	; 0x6098 <.L1^B39>
    609c:	9e 01       	movw	r18, r28
    609e:	21 50       	subi	r18, 0x01	; 1
    60a0:	3f 4f       	sbci	r19, 0xFF	; 255
    60a2:	d9 01       	movw	r26, r18
    60a4:	8d 93       	st	X+, r24
    60a6:	9c 93       	st	X, r25

000060a8 <.Loc.867>:
	...

000060aa <.LBE259>:
			__ticks --;
    60aa:	ce 01       	movw	r24, r28
    60ac:	83 50       	subi	r24, 0x03	; 3
    60ae:	9f 4f       	sbci	r25, 0xFF	; 255
    60b0:	9e 01       	movw	r18, r28
    60b2:	23 50       	subi	r18, 0x03	; 3
    60b4:	3f 4f       	sbci	r19, 0xFF	; 255
    60b6:	f9 01       	movw	r30, r18
    60b8:	20 81       	ld	r18, Z
    60ba:	31 81       	ldd	r19, Z+1	; 0x01
    60bc:	21 50       	subi	r18, 0x01	; 1
    60be:	31 09       	sbc	r19, r1
    60c0:	dc 01       	movw	r26, r24
    60c2:	11 96       	adiw	r26, 0x01	; 1
    60c4:	3c 93       	st	X, r19
    60c6:	2e 93       	st	-X, r18

000060c8 <.L302>:
		while(__ticks)
    60c8:	ce 01       	movw	r24, r28
    60ca:	83 50       	subi	r24, 0x03	; 3
    60cc:	9f 4f       	sbci	r25, 0xFF	; 255
    60ce:	fc 01       	movw	r30, r24
    60d0:	80 81       	ld	r24, Z
    60d2:	91 81       	ldd	r25, Z+1	; 0x01
    60d4:	00 97       	sbiw	r24, 0x00	; 0
    60d6:	91 f6       	brne	.-92     	; 0x607c <.L303>

000060d8 <.Loc.870>:
		return;
    60d8:	3a c0       	rjmp	.+116    	; 0x614e <.L304>

000060da <.L377>:
		__ticks = (uint16_t)__tmp;
    60da:	8e 01       	movw	r16, r28
    60dc:	03 50       	subi	r16, 0x03	; 3
    60de:	1f 4f       	sbci	r17, 0xFF	; 255
    60e0:	ce 01       	movw	r24, r28
    60e2:	87 50       	subi	r24, 0x07	; 7
    60e4:	9f 4f       	sbci	r25, 0xFF	; 255
    60e6:	dc 01       	movw	r26, r24
    60e8:	6d 91       	ld	r22, X+
    60ea:	7d 91       	ld	r23, X+
    60ec:	8d 91       	ld	r24, X+
    60ee:	9c 91       	ld	r25, X
    60f0:	0e 94 ba 31 	call	0x6374	; 0x6374 <__fixunssfsi>
    60f4:	c9 59       	subi	r28, 0x99	; 153
    60f6:	dd 4f       	sbci	r29, 0xFD	; 253
    60f8:	68 83       	st	Y, r22
    60fa:	79 83       	std	Y+1, r23	; 0x01
    60fc:	8a 83       	std	Y+2, r24	; 0x02
    60fe:	9b 83       	std	Y+3, r25	; 0x03
    6100:	c7 56       	subi	r28, 0x67	; 103
    6102:	d2 40       	sbci	r29, 0x02	; 2
    6104:	c9 59       	subi	r28, 0x99	; 153
    6106:	dd 4f       	sbci	r29, 0xFD	; 253
    6108:	88 81       	ld	r24, Y
    610a:	99 81       	ldd	r25, Y+1	; 0x01
    610c:	c7 56       	subi	r28, 0x67	; 103
    610e:	d2 40       	sbci	r29, 0x02	; 2
    6110:	f8 01       	movw	r30, r16
    6112:	91 83       	std	Z+1, r25	; 0x01
    6114:	80 83       	st	Z, r24

00006116 <.L299>:
    6116:	ce 01       	movw	r24, r28
    6118:	8f 5f       	subi	r24, 0xFF	; 255
    611a:	9e 4f       	sbci	r25, 0xFE	; 254
    611c:	9e 01       	movw	r18, r28
    611e:	23 50       	subi	r18, 0x03	; 3
    6120:	3f 4f       	sbci	r19, 0xFF	; 255
    6122:	d9 01       	movw	r26, r18
    6124:	2d 91       	ld	r18, X+
    6126:	3c 91       	ld	r19, X
    6128:	fc 01       	movw	r30, r24
    612a:	31 83       	std	Z+1, r19	; 0x01
    612c:	20 83       	st	Z, r18

0000612e <.LBB261>:
    612e:	ce 01       	movw	r24, r28
    6130:	8f 5f       	subi	r24, 0xFF	; 255
    6132:	9e 4f       	sbci	r25, 0xFE	; 254
    6134:	dc 01       	movw	r26, r24
    6136:	8d 91       	ld	r24, X+
    6138:	9c 91       	ld	r25, X
    613a:	11 97       	sbiw	r26, 0x01	; 1

0000613c <.L1^B40>:
    613c:	01 97       	sbiw	r24, 0x01	; 1
    613e:	f1 f7       	brne	.-4      	; 0x613c <.L1^B40>
    6140:	9e 01       	movw	r18, r28
    6142:	2f 5f       	subi	r18, 0xFF	; 255
    6144:	3e 4f       	sbci	r19, 0xFE	; 254
    6146:	f9 01       	movw	r30, r18
    6148:	91 83       	std	Z+1, r25	; 0x01
    614a:	80 83       	st	Z, r24

0000614c <.Loc.873>:
	...

0000614e <.L304>:
                _delay_ms(20);
                noodstop_Onthouden = 1;
    614e:	81 e0       	ldi	r24, 0x01	; 1
    6150:	90 e0       	ldi	r25, 0x00	; 0
    6152:	90 93 37 02 	sts	0x0237, r25	; 0x800237 <noodstop_Onthouden+0x1>
    6156:	80 93 36 02 	sts	0x0236, r24	; 0x800236 <noodstop_Onthouden>

0000615a <.Loc.875>:
                state = Noodstop;
    615a:	84 e0       	ldi	r24, 0x04	; 4
    615c:	90 e0       	ldi	r25, 0x00	; 0
    615e:	9a 83       	std	Y+2, r25	; 0x02
    6160:	89 83       	std	Y+1, r24	; 0x01

00006162 <.Loc.876>:
                break;
    6162:	13 c0       	rjmp	.+38     	; 0x618a <.L116>

00006164 <.L296>:
            }
            else{
                state = Rechtdoorrijden;
    6164:	1a 82       	std	Y+2, r1	; 0x02
    6166:	19 82       	std	Y+1, r1	; 0x01

00006168 <.Loc.878>:
                break;
    6168:	10 c0       	rjmp	.+32     	; 0x618a <.L116>

0000616a <.L378>:
            break;
    616a:	00 00       	nop
    616c:	0c 94 d7 1b 	jmp	0x37ae	; 0x37ae <.L305>

00006170 <.L379>:
            break;
    6170:	00 00       	nop
    6172:	0c 94 d7 1b 	jmp	0x37ae	; 0x37ae <.L305>

00006176 <.L380>:
            break;
    6176:	00 00       	nop
    6178:	0c 94 d7 1b 	jmp	0x37ae	; 0x37ae <.L305>

0000617c <.L381>:
            break;
    617c:	00 00       	nop
    617e:	0c 94 d7 1b 	jmp	0x37ae	; 0x37ae <.L305>

00006182 <.L382>:
            break;
    6182:	00 00       	nop
    6184:	0c 94 d7 1b 	jmp	0x37ae	; 0x37ae <.L305>

00006188 <.L383>:
	...

0000618a <.L116>:
    switch (state){
    618a:	0c 94 d7 1b 	jmp	0x37ae	; 0x37ae <.L305>

0000618e <__tablejump2__>:
    618e:	ee 0f       	add	r30, r30

00006190 <.Loc.1>:
    6190:	ff 1f       	adc	r31, r31

00006192 <.Loc.2>:
    6192:	88 1f       	adc	r24, r24

00006194 <.Loc.3>:
    6194:	8b bf       	out	0x3b, r24	; 59

00006196 <.Loc.4>:
    6196:	07 90       	elpm	r0, Z+

00006198 <.Loc.5>:
    6198:	f6 91       	elpm	r31, Z

0000619a <.Loc.6>:
    619a:	e0 2d       	mov	r30, r0

0000619c <.Loc.7>:
    619c:	19 94       	eijmp

0000619e <__subsf3>:
    619e:	50 58       	subi	r21, 0x80	; 128

000061a0 <__addsf3>:
    61a0:	bb 27       	eor	r27, r27
    61a2:	aa 27       	eor	r26, r26
    61a4:	0e 94 e7 30 	call	0x61ce	; 0x61ce <__addsf3x>
    61a8:	0c 94 61 32 	jmp	0x64c2	; 0x64c2 <__fp_round>

000061ac <.L^B1>:
    61ac:	0e 94 53 32 	call	0x64a6	; 0x64a6 <__fp_pscA>
    61b0:	38 f0       	brcs	.+14     	; 0x61c0 <.L_nan>
    61b2:	0e 94 5a 32 	call	0x64b4	; 0x64b4 <__fp_pscB>
    61b6:	20 f0       	brcs	.+8      	; 0x61c0 <.L_nan>
    61b8:	39 f4       	brne	.+14     	; 0x61c8 <.L_inf>
    61ba:	9f 3f       	cpi	r25, 0xFF	; 255
    61bc:	19 f4       	brne	.+6      	; 0x61c4 <.L_infB>
    61be:	26 f4       	brtc	.+8      	; 0x61c8 <.L_inf>

000061c0 <.L_nan>:
    61c0:	0c 94 50 32 	jmp	0x64a0	; 0x64a0 <__fp_nan>

000061c4 <.L_infB>:
    61c4:	0e f4       	brtc	.+2      	; 0x61c8 <.L_inf>
    61c6:	e0 95       	com	r30

000061c8 <.L_inf>:
    61c8:	e7 fb       	bst	r30, 7
    61ca:	0c 94 4a 32 	jmp	0x6494	; 0x6494 <__fp_inf>

000061ce <__addsf3x>:
    61ce:	e9 2f       	mov	r30, r25
    61d0:	0e 94 72 32 	call	0x64e4	; 0x64e4 <__fp_split3>
    61d4:	58 f3       	brcs	.-42     	; 0x61ac <.L^B1>
    61d6:	ba 17       	cp	r27, r26
    61d8:	62 07       	cpc	r22, r18
    61da:	73 07       	cpc	r23, r19
    61dc:	84 07       	cpc	r24, r20
    61de:	95 07       	cpc	r25, r21
    61e0:	20 f0       	brcs	.+8      	; 0x61ea <.L2^B1>
    61e2:	79 f4       	brne	.+30     	; 0x6202 <.L4^B1>
    61e4:	a6 f5       	brtc	.+104    	; 0x624e <.L_add>
    61e6:	0c 94 94 32 	jmp	0x6528	; 0x6528 <__fp_zero>

000061ea <.L2^B1>:
    61ea:	0e f4       	brtc	.+2      	; 0x61ee <.L3^B1>
    61ec:	e0 95       	com	r30

000061ee <.L3^B1>:
    61ee:	0b 2e       	mov	r0, r27
    61f0:	ba 2f       	mov	r27, r26
    61f2:	a0 2d       	mov	r26, r0
    61f4:	0b 01       	movw	r0, r22
    61f6:	b9 01       	movw	r22, r18
    61f8:	90 01       	movw	r18, r0
    61fa:	0c 01       	movw	r0, r24
    61fc:	ca 01       	movw	r24, r20
    61fe:	a0 01       	movw	r20, r0
    6200:	11 24       	eor	r1, r1

00006202 <.L4^B1>:
    6202:	ff 27       	eor	r31, r31
    6204:	59 1b       	sub	r21, r25

00006206 <.L5^B1>:
    6206:	99 f0       	breq	.+38     	; 0x622e <.L7^B1>
    6208:	59 3f       	cpi	r21, 0xF9	; 249
    620a:	50 f4       	brcc	.+20     	; 0x6220 <.L6^B1>
    620c:	50 3e       	cpi	r21, 0xE0	; 224
    620e:	68 f1       	brcs	.+90     	; 0x626a <.L_ret>
    6210:	1a 16       	cp	r1, r26
    6212:	f0 40       	sbci	r31, 0x00	; 0
    6214:	a2 2f       	mov	r26, r18
    6216:	23 2f       	mov	r18, r19
    6218:	34 2f       	mov	r19, r20
    621a:	44 27       	eor	r20, r20
    621c:	58 5f       	subi	r21, 0xF8	; 248
    621e:	f3 cf       	rjmp	.-26     	; 0x6206 <.L5^B1>

00006220 <.L6^B1>:
    6220:	46 95       	lsr	r20
    6222:	37 95       	ror	r19
    6224:	27 95       	ror	r18
    6226:	a7 95       	ror	r26
    6228:	f0 40       	sbci	r31, 0x00	; 0
    622a:	53 95       	inc	r21
    622c:	c9 f7       	brne	.-14     	; 0x6220 <.L6^B1>

0000622e <.L7^B1>:
    622e:	7e f4       	brtc	.+30     	; 0x624e <.L_add>
    6230:	1f 16       	cp	r1, r31
    6232:	ba 0b       	sbc	r27, r26
    6234:	62 0b       	sbc	r22, r18
    6236:	73 0b       	sbc	r23, r19
    6238:	84 0b       	sbc	r24, r20
    623a:	ba f0       	brmi	.+46     	; 0x626a <.L_ret>

0000623c <.L8^B1>:
    623c:	91 50       	subi	r25, 0x01	; 1
    623e:	a1 f0       	breq	.+40     	; 0x6268 <.L9^B1>
    6240:	ff 0f       	add	r31, r31
    6242:	bb 1f       	adc	r27, r27
    6244:	66 1f       	adc	r22, r22
    6246:	77 1f       	adc	r23, r23
    6248:	88 1f       	adc	r24, r24
    624a:	c2 f7       	brpl	.-16     	; 0x623c <.L8^B1>
    624c:	0e c0       	rjmp	.+28     	; 0x626a <.L_ret>

0000624e <.L_add>:
    624e:	ba 0f       	add	r27, r26
    6250:	62 1f       	adc	r22, r18
    6252:	73 1f       	adc	r23, r19
    6254:	84 1f       	adc	r24, r20
    6256:	48 f4       	brcc	.+18     	; 0x626a <.L_ret>
    6258:	87 95       	ror	r24
    625a:	77 95       	ror	r23
    625c:	67 95       	ror	r22
    625e:	b7 95       	ror	r27
    6260:	f7 95       	ror	r31
    6262:	9e 3f       	cpi	r25, 0xFE	; 254
    6264:	08 f0       	brcs	.+2      	; 0x6268 <.L9^B1>
    6266:	b0 cf       	rjmp	.-160    	; 0x61c8 <.L_inf>

00006268 <.L9^B1>:
    6268:	93 95       	inc	r25

0000626a <.L_ret>:
    626a:	88 0f       	add	r24, r24
    626c:	08 f0       	brcs	.+2      	; 0x6270 <.L1^B1>
    626e:	99 27       	eor	r25, r25

00006270 <.L1^B1>:
    6270:	ee 0f       	add	r30, r30
    6272:	97 95       	ror	r25
    6274:	87 95       	ror	r24
    6276:	08 95       	ret

00006278 <__cmpsf2>:
    6278:	0e 94 26 32 	call	0x644c	; 0x644c <__fp_cmp>
    627c:	08 f4       	brcc	.+2      	; 0x6280 <.L1^B1>
    627e:	81 e0       	ldi	r24, 0x01	; 1

00006280 <.L1^B1>:
    6280:	08 95       	ret

00006282 <__divsf3>:
    6282:	0e 94 55 31 	call	0x62aa	; 0x62aa <__divsf3x>
    6286:	0c 94 61 32 	jmp	0x64c2	; 0x64c2 <__fp_round>

0000628a <.L^B1>:
    628a:	0e 94 5a 32 	call	0x64b4	; 0x64b4 <__fp_pscB>
    628e:	58 f0       	brcs	.+22     	; 0x62a6 <.L_nan>
    6290:	0e 94 53 32 	call	0x64a6	; 0x64a6 <__fp_pscA>
    6294:	40 f0       	brcs	.+16     	; 0x62a6 <.L_nan>
    6296:	29 f4       	brne	.+10     	; 0x62a2 <.L_zr>
    6298:	5f 3f       	cpi	r21, 0xFF	; 255
    629a:	29 f0       	breq	.+10     	; 0x62a6 <.L_nan>

0000629c <.L_inf>:
    629c:	0c 94 4a 32 	jmp	0x6494	; 0x6494 <__fp_inf>

000062a0 <.L1^B1>:
    62a0:	51 11       	cpse	r21, r1

000062a2 <.L_zr>:
    62a2:	0c 94 95 32 	jmp	0x652a	; 0x652a <__fp_szero>

000062a6 <.L_nan>:
    62a6:	0c 94 50 32 	jmp	0x64a0	; 0x64a0 <__fp_nan>

000062aa <__divsf3x>:
    62aa:	0e 94 72 32 	call	0x64e4	; 0x64e4 <__fp_split3>
    62ae:	68 f3       	brcs	.-38     	; 0x628a <.L^B1>

000062b0 <__divsf3_pse>:
    62b0:	99 23       	and	r25, r25
    62b2:	b1 f3       	breq	.-20     	; 0x62a0 <.L1^B1>
    62b4:	55 23       	and	r21, r21
    62b6:	91 f3       	breq	.-28     	; 0x629c <.L_inf>
    62b8:	95 1b       	sub	r25, r21
    62ba:	55 0b       	sbc	r21, r21
    62bc:	bb 27       	eor	r27, r27
    62be:	aa 27       	eor	r26, r26

000062c0 <.L2^B1>:
    62c0:	62 17       	cp	r22, r18
    62c2:	73 07       	cpc	r23, r19
    62c4:	84 07       	cpc	r24, r20
    62c6:	38 f0       	brcs	.+14     	; 0x62d6 <.L3^B1>
    62c8:	9f 5f       	subi	r25, 0xFF	; 255
    62ca:	5f 4f       	sbci	r21, 0xFF	; 255
    62cc:	22 0f       	add	r18, r18
    62ce:	33 1f       	adc	r19, r19
    62d0:	44 1f       	adc	r20, r20
    62d2:	aa 1f       	adc	r26, r26
    62d4:	a9 f3       	breq	.-22     	; 0x62c0 <.L2^B1>

000062d6 <.L3^B1>:
    62d6:	35 d0       	rcall	.+106    	; 0x6342 <.L_div>
    62d8:	0e 2e       	mov	r0, r30
    62da:	3a f0       	brmi	.+14     	; 0x62ea <.L5^B1>

000062dc <.L4^B1>:
    62dc:	e0 e8       	ldi	r30, 0x80	; 128
    62de:	32 d0       	rcall	.+100    	; 0x6344 <.L_div1>
    62e0:	91 50       	subi	r25, 0x01	; 1
    62e2:	50 40       	sbci	r21, 0x00	; 0
    62e4:	e6 95       	lsr	r30
    62e6:	00 1c       	adc	r0, r0
    62e8:	ca f7       	brpl	.-14     	; 0x62dc <.L4^B1>

000062ea <.L5^B1>:
    62ea:	2b d0       	rcall	.+86     	; 0x6342 <.L_div>
    62ec:	fe 2f       	mov	r31, r30
    62ee:	29 d0       	rcall	.+82     	; 0x6342 <.L_div>
    62f0:	66 0f       	add	r22, r22
    62f2:	77 1f       	adc	r23, r23
    62f4:	88 1f       	adc	r24, r24
    62f6:	bb 1f       	adc	r27, r27
    62f8:	26 17       	cp	r18, r22
    62fa:	37 07       	cpc	r19, r23
    62fc:	48 07       	cpc	r20, r24
    62fe:	ab 07       	cpc	r26, r27
    6300:	b0 e8       	ldi	r27, 0x80	; 128
    6302:	09 f0       	breq	.+2      	; 0x6306 <.L4^B2>
    6304:	bb 0b       	sbc	r27, r27

00006306 <.L4^B2>:
    6306:	80 2d       	mov	r24, r0
    6308:	bf 01       	movw	r22, r30
    630a:	ff 27       	eor	r31, r31
    630c:	93 58       	subi	r25, 0x83	; 131
    630e:	5f 4f       	sbci	r21, 0xFF	; 255
    6310:	3a f0       	brmi	.+14     	; 0x6320 <.L13^B1>
    6312:	9e 3f       	cpi	r25, 0xFE	; 254
    6314:	51 05       	cpc	r21, r1
    6316:	78 f0       	brcs	.+30     	; 0x6336 <.L15^B1>
    6318:	0c 94 4a 32 	jmp	0x6494	; 0x6494 <__fp_inf>

0000631c <.L12^B1>:
    631c:	0c 94 95 32 	jmp	0x652a	; 0x652a <__fp_szero>

00006320 <.L13^B1>:
    6320:	5f 3f       	cpi	r21, 0xFF	; 255
    6322:	e4 f3       	brlt	.-8      	; 0x631c <.L12^B1>
    6324:	98 3e       	cpi	r25, 0xE8	; 232
    6326:	d4 f3       	brlt	.-12     	; 0x631c <.L12^B1>

00006328 <.L14^B1>:
    6328:	86 95       	lsr	r24
    632a:	77 95       	ror	r23
    632c:	67 95       	ror	r22
    632e:	b7 95       	ror	r27
    6330:	f7 95       	ror	r31
    6332:	9f 5f       	subi	r25, 0xFF	; 255
    6334:	c9 f7       	brne	.-14     	; 0x6328 <.L14^B1>

00006336 <.L15^B1>:
    6336:	88 0f       	add	r24, r24
    6338:	91 1d       	adc	r25, r1
    633a:	96 95       	lsr	r25
    633c:	87 95       	ror	r24
    633e:	97 f9       	bld	r25, 7
    6340:	08 95       	ret

00006342 <.L_div>:
    6342:	e1 e0       	ldi	r30, 0x01	; 1

00006344 <.L_div1>:
    6344:	66 0f       	add	r22, r22
    6346:	77 1f       	adc	r23, r23
    6348:	88 1f       	adc	r24, r24
    634a:	bb 1f       	adc	r27, r27
    634c:	62 17       	cp	r22, r18
    634e:	73 07       	cpc	r23, r19
    6350:	84 07       	cpc	r24, r20
    6352:	ba 07       	cpc	r27, r26
    6354:	20 f0       	brcs	.+8      	; 0x635e <.L2^B2>
    6356:	62 1b       	sub	r22, r18
    6358:	73 0b       	sbc	r23, r19
    635a:	84 0b       	sbc	r24, r20
    635c:	ba 0b       	sbc	r27, r26

0000635e <.L2^B2>:
    635e:	ee 1f       	adc	r30, r30
    6360:	88 f7       	brcc	.-30     	; 0x6344 <.L_div1>
    6362:	e0 95       	com	r30
    6364:	08 95       	ret

00006366 <__fixsfsi>:
    6366:	0e 94 ba 31 	call	0x6374	; 0x6374 <__fixunssfsi>
    636a:	68 94       	set
    636c:	b1 11       	cpse	r27, r1
    636e:	0c 94 95 32 	jmp	0x652a	; 0x652a <__fp_szero>
    6372:	08 95       	ret

00006374 <__fixunssfsi>:
    6374:	0e 94 7a 32 	call	0x64f4	; 0x64f4 <__fp_splitA>
    6378:	88 f0       	brcs	.+34     	; 0x639c <.L_err>
    637a:	9f 57       	subi	r25, 0x7F	; 127
    637c:	98 f0       	brcs	.+38     	; 0x63a4 <.L_zr>
    637e:	b9 2f       	mov	r27, r25
    6380:	99 27       	eor	r25, r25
    6382:	b7 51       	subi	r27, 0x17	; 23
    6384:	b0 f0       	brcs	.+44     	; 0x63b2 <.L4^B1>
    6386:	e1 f0       	breq	.+56     	; 0x63c0 <.L_sign>

00006388 <.L1^B1>:
    6388:	66 0f       	add	r22, r22
    638a:	77 1f       	adc	r23, r23
    638c:	88 1f       	adc	r24, r24
    638e:	99 1f       	adc	r25, r25
    6390:	1a f0       	brmi	.+6      	; 0x6398 <.L2^B1>
    6392:	ba 95       	dec	r27
    6394:	c9 f7       	brne	.-14     	; 0x6388 <.L1^B1>
    6396:	14 c0       	rjmp	.+40     	; 0x63c0 <.L_sign>

00006398 <.L2^B1>:
    6398:	b1 30       	cpi	r27, 0x01	; 1
    639a:	91 f0       	breq	.+36     	; 0x63c0 <.L_sign>

0000639c <.L_err>:
    639c:	0e 94 94 32 	call	0x6528	; 0x6528 <__fp_zero>
    63a0:	b1 e0       	ldi	r27, 0x01	; 1
    63a2:	08 95       	ret

000063a4 <.L_zr>:
    63a4:	0c 94 94 32 	jmp	0x6528	; 0x6528 <__fp_zero>

000063a8 <.L3^B1>:
    63a8:	67 2f       	mov	r22, r23
    63aa:	78 2f       	mov	r23, r24
    63ac:	88 27       	eor	r24, r24
    63ae:	b8 5f       	subi	r27, 0xF8	; 248
    63b0:	39 f0       	breq	.+14     	; 0x63c0 <.L_sign>

000063b2 <.L4^B1>:
    63b2:	b9 3f       	cpi	r27, 0xF9	; 249
    63b4:	cc f3       	brlt	.-14     	; 0x63a8 <.L3^B1>

000063b6 <.L5^B1>:
    63b6:	86 95       	lsr	r24
    63b8:	77 95       	ror	r23
    63ba:	67 95       	ror	r22
    63bc:	b3 95       	inc	r27
    63be:	d9 f7       	brne	.-10     	; 0x63b6 <.L5^B1>

000063c0 <.L_sign>:
    63c0:	3e f4       	brtc	.+14     	; 0x63d0 <.L6^B1>
    63c2:	90 95       	com	r25
    63c4:	80 95       	com	r24
    63c6:	70 95       	com	r23
    63c8:	61 95       	neg	r22
    63ca:	7f 4f       	sbci	r23, 0xFF	; 255
    63cc:	8f 4f       	sbci	r24, 0xFF	; 255
    63ce:	9f 4f       	sbci	r25, 0xFF	; 255

000063d0 <.L6^B1>:
    63d0:	08 95       	ret

000063d2 <__floatunsisf>:
    63d2:	e8 94       	clt
    63d4:	09 c0       	rjmp	.+18     	; 0x63e8 <.L1^B1>

000063d6 <__floatsisf>:
    63d6:	97 fb       	bst	r25, 7
    63d8:	3e f4       	brtc	.+14     	; 0x63e8 <.L1^B1>
    63da:	90 95       	com	r25
    63dc:	80 95       	com	r24
    63de:	70 95       	com	r23
    63e0:	61 95       	neg	r22
    63e2:	7f 4f       	sbci	r23, 0xFF	; 255
    63e4:	8f 4f       	sbci	r24, 0xFF	; 255
    63e6:	9f 4f       	sbci	r25, 0xFF	; 255

000063e8 <.L1^B1>:
    63e8:	99 23       	and	r25, r25
    63ea:	a9 f0       	breq	.+42     	; 0x6416 <.L4^B1>
    63ec:	f9 2f       	mov	r31, r25
    63ee:	96 e9       	ldi	r25, 0x96	; 150
    63f0:	bb 27       	eor	r27, r27

000063f2 <.L2^B1>:
    63f2:	93 95       	inc	r25
    63f4:	f6 95       	lsr	r31
    63f6:	87 95       	ror	r24
    63f8:	77 95       	ror	r23
    63fa:	67 95       	ror	r22
    63fc:	b7 95       	ror	r27
    63fe:	f1 11       	cpse	r31, r1
    6400:	f8 cf       	rjmp	.-16     	; 0x63f2 <.L2^B1>
    6402:	fa f4       	brpl	.+62     	; 0x6442 <.L_pack>
    6404:	bb 0f       	add	r27, r27
    6406:	11 f4       	brne	.+4      	; 0x640c <.L3^B1>
    6408:	60 ff       	sbrs	r22, 0
    640a:	1b c0       	rjmp	.+54     	; 0x6442 <.L_pack>

0000640c <.L3^B1>:
    640c:	6f 5f       	subi	r22, 0xFF	; 255
    640e:	7f 4f       	sbci	r23, 0xFF	; 255
    6410:	8f 4f       	sbci	r24, 0xFF	; 255
    6412:	9f 4f       	sbci	r25, 0xFF	; 255
    6414:	16 c0       	rjmp	.+44     	; 0x6442 <.L_pack>

00006416 <.L4^B1>:
    6416:	88 23       	and	r24, r24
    6418:	11 f0       	breq	.+4      	; 0x641e <.L5^B1>
    641a:	96 e9       	ldi	r25, 0x96	; 150
    641c:	11 c0       	rjmp	.+34     	; 0x6440 <.L8^B1>

0000641e <.L5^B1>:
    641e:	77 23       	and	r23, r23
    6420:	21 f0       	breq	.+8      	; 0x642a <.L6^B1>
    6422:	9e e8       	ldi	r25, 0x8E	; 142
    6424:	87 2f       	mov	r24, r23
    6426:	76 2f       	mov	r23, r22
    6428:	05 c0       	rjmp	.+10     	; 0x6434 <.L7^B1>

0000642a <.L6^B1>:
    642a:	66 23       	and	r22, r22
    642c:	71 f0       	breq	.+28     	; 0x644a <.L9^B1>
    642e:	96 e8       	ldi	r25, 0x86	; 134
    6430:	86 2f       	mov	r24, r22
    6432:	70 e0       	ldi	r23, 0x00	; 0

00006434 <.L7^B1>:
    6434:	60 e0       	ldi	r22, 0x00	; 0
    6436:	2a f0       	brmi	.+10     	; 0x6442 <.L_pack>

00006438 <.L10^B1>:
    6438:	9a 95       	dec	r25
    643a:	66 0f       	add	r22, r22
    643c:	77 1f       	adc	r23, r23
    643e:	88 1f       	adc	r24, r24

00006440 <.L8^B1>:
    6440:	da f7       	brpl	.-10     	; 0x6438 <.L10^B1>

00006442 <.L_pack>:
    6442:	88 0f       	add	r24, r24
    6444:	96 95       	lsr	r25
    6446:	87 95       	ror	r24
    6448:	97 f9       	bld	r25, 7

0000644a <.L9^B1>:
    644a:	08 95       	ret

0000644c <__fp_cmp>:
    644c:	99 0f       	add	r25, r25
    644e:	00 08       	sbc	r0, r0
    6450:	55 0f       	add	r21, r21
    6452:	aa 0b       	sbc	r26, r26
    6454:	e0 e8       	ldi	r30, 0x80	; 128
    6456:	fe ef       	ldi	r31, 0xFE	; 254
    6458:	16 16       	cp	r1, r22
    645a:	17 06       	cpc	r1, r23
    645c:	e8 07       	cpc	r30, r24
    645e:	f9 07       	cpc	r31, r25
    6460:	c0 f0       	brcs	.+48     	; 0x6492 <.L9^B1>
    6462:	12 16       	cp	r1, r18
    6464:	13 06       	cpc	r1, r19
    6466:	e4 07       	cpc	r30, r20
    6468:	f5 07       	cpc	r31, r21
    646a:	98 f0       	brcs	.+38     	; 0x6492 <.L9^B1>
    646c:	62 1b       	sub	r22, r18
    646e:	73 0b       	sbc	r23, r19
    6470:	84 0b       	sbc	r24, r20
    6472:	95 0b       	sbc	r25, r21
    6474:	39 f4       	brne	.+14     	; 0x6484 <.L1^B1>
    6476:	0a 26       	eor	r0, r26
    6478:	61 f0       	breq	.+24     	; 0x6492 <.L9^B1>
    647a:	23 2b       	or	r18, r19
    647c:	24 2b       	or	r18, r20
    647e:	25 2b       	or	r18, r21
    6480:	21 f4       	brne	.+8      	; 0x648a <.L2^B1>
    6482:	08 95       	ret

00006484 <.L1^B1>:
    6484:	0a 26       	eor	r0, r26
    6486:	09 f4       	brne	.+2      	; 0x648a <.L2^B1>
    6488:	a1 40       	sbci	r26, 0x01	; 1

0000648a <.L2^B1>:
    648a:	a6 95       	lsr	r26
    648c:	8f ef       	ldi	r24, 0xFF	; 255
    648e:	81 1d       	adc	r24, r1
    6490:	81 1d       	adc	r24, r1

00006492 <.L9^B1>:
    6492:	08 95       	ret

00006494 <__fp_inf>:
    6494:	97 f9       	bld	r25, 7
    6496:	9f 67       	ori	r25, 0x7F	; 127
    6498:	80 e8       	ldi	r24, 0x80	; 128
    649a:	70 e0       	ldi	r23, 0x00	; 0
    649c:	60 e0       	ldi	r22, 0x00	; 0
    649e:	08 95       	ret

000064a0 <__fp_nan>:
    64a0:	9f ef       	ldi	r25, 0xFF	; 255
    64a2:	80 ec       	ldi	r24, 0xC0	; 192
    64a4:	08 95       	ret

000064a6 <__fp_pscA>:
    64a6:	00 24       	eor	r0, r0
    64a8:	0a 94       	dec	r0
    64aa:	16 16       	cp	r1, r22
    64ac:	17 06       	cpc	r1, r23
    64ae:	18 06       	cpc	r1, r24
    64b0:	09 06       	cpc	r0, r25
    64b2:	08 95       	ret

000064b4 <__fp_pscB>:
    64b4:	00 24       	eor	r0, r0
    64b6:	0a 94       	dec	r0
    64b8:	12 16       	cp	r1, r18
    64ba:	13 06       	cpc	r1, r19
    64bc:	14 06       	cpc	r1, r20
    64be:	05 06       	cpc	r0, r21
    64c0:	08 95       	ret

000064c2 <__fp_round>:
    64c2:	09 2e       	mov	r0, r25
    64c4:	03 94       	inc	r0
    64c6:	00 0c       	add	r0, r0
    64c8:	11 f4       	brne	.+4      	; 0x64ce <.L1^B1>
    64ca:	88 23       	and	r24, r24
    64cc:	52 f0       	brmi	.+20     	; 0x64e2 <.L3^B1>

000064ce <.L1^B1>:
    64ce:	bb 0f       	add	r27, r27
    64d0:	40 f4       	brcc	.+16     	; 0x64e2 <.L3^B1>
    64d2:	bf 2b       	or	r27, r31
    64d4:	11 f4       	brne	.+4      	; 0x64da <.L2^B1>
    64d6:	60 ff       	sbrs	r22, 0
    64d8:	04 c0       	rjmp	.+8      	; 0x64e2 <.L3^B1>

000064da <.L2^B1>:
    64da:	6f 5f       	subi	r22, 0xFF	; 255
    64dc:	7f 4f       	sbci	r23, 0xFF	; 255
    64de:	8f 4f       	sbci	r24, 0xFF	; 255
    64e0:	9f 4f       	sbci	r25, 0xFF	; 255

000064e2 <.L3^B1>:
    64e2:	08 95       	ret

000064e4 <__fp_split3>:
    64e4:	57 fd       	sbrc	r21, 7
    64e6:	90 58       	subi	r25, 0x80	; 128
    64e8:	44 0f       	add	r20, r20
    64ea:	55 1f       	adc	r21, r21
    64ec:	59 f0       	breq	.+22     	; 0x6504 <.L4^B1>
    64ee:	5f 3f       	cpi	r21, 0xFF	; 255
    64f0:	71 f0       	breq	.+28     	; 0x650e <.L5^B1>

000064f2 <.L1^B1>:
    64f2:	47 95       	ror	r20

000064f4 <__fp_splitA>:
    64f4:	88 0f       	add	r24, r24
    64f6:	97 fb       	bst	r25, 7
    64f8:	99 1f       	adc	r25, r25
    64fa:	61 f0       	breq	.+24     	; 0x6514 <.L6^B1>
    64fc:	9f 3f       	cpi	r25, 0xFF	; 255
    64fe:	79 f0       	breq	.+30     	; 0x651e <.L7^B1>

00006500 <.L3^B1>:
    6500:	87 95       	ror	r24
    6502:	08 95       	ret

00006504 <.L4^B1>:
    6504:	12 16       	cp	r1, r18
    6506:	13 06       	cpc	r1, r19
    6508:	14 06       	cpc	r1, r20
    650a:	55 1f       	adc	r21, r21
    650c:	f2 cf       	rjmp	.-28     	; 0x64f2 <.L1^B1>

0000650e <.L5^B1>:
    650e:	46 95       	lsr	r20
    6510:	f1 df       	rcall	.-30     	; 0x64f4 <__fp_splitA>
    6512:	08 c0       	rjmp	.+16     	; 0x6524 <.L8^B1>

00006514 <.L6^B1>:
    6514:	16 16       	cp	r1, r22
    6516:	17 06       	cpc	r1, r23
    6518:	18 06       	cpc	r1, r24
    651a:	99 1f       	adc	r25, r25
    651c:	f1 cf       	rjmp	.-30     	; 0x6500 <.L3^B1>

0000651e <.L7^B1>:
    651e:	86 95       	lsr	r24
    6520:	71 05       	cpc	r23, r1
    6522:	61 05       	cpc	r22, r1

00006524 <.L8^B1>:
    6524:	08 94       	sec
    6526:	08 95       	ret

00006528 <__fp_zero>:
    6528:	e8 94       	clt

0000652a <__fp_szero>:
    652a:	bb 27       	eor	r27, r27
    652c:	66 27       	eor	r22, r22
    652e:	77 27       	eor	r23, r23
    6530:	cb 01       	movw	r24, r22
    6532:	97 f9       	bld	r25, 7
    6534:	08 95       	ret

00006536 <__gesf2>:
    6536:	0e 94 26 32 	call	0x644c	; 0x644c <__fp_cmp>
    653a:	08 f4       	brcc	.+2      	; 0x653e <.L1^B1>
    653c:	8f ef       	ldi	r24, 0xFF	; 255

0000653e <.L1^B1>:
    653e:	08 95       	ret

00006540 <__mulsf3>:
    6540:	0e 94 b3 32 	call	0x6566	; 0x6566 <__mulsf3x>
    6544:	0c 94 61 32 	jmp	0x64c2	; 0x64c2 <__fp_round>

00006548 <.L^B1>:
    6548:	0e 94 53 32 	call	0x64a6	; 0x64a6 <__fp_pscA>
    654c:	38 f0       	brcs	.+14     	; 0x655c <.L1^B1>
    654e:	0e 94 5a 32 	call	0x64b4	; 0x64b4 <__fp_pscB>
    6552:	20 f0       	brcs	.+8      	; 0x655c <.L1^B1>
    6554:	95 23       	and	r25, r21
    6556:	11 f0       	breq	.+4      	; 0x655c <.L1^B1>
    6558:	0c 94 4a 32 	jmp	0x6494	; 0x6494 <__fp_inf>

0000655c <.L1^B1>:
    655c:	0c 94 50 32 	jmp	0x64a0	; 0x64a0 <__fp_nan>

00006560 <.L2^B1>:
    6560:	11 24       	eor	r1, r1
    6562:	0c 94 95 32 	jmp	0x652a	; 0x652a <__fp_szero>

00006566 <__mulsf3x>:
    6566:	0e 94 72 32 	call	0x64e4	; 0x64e4 <__fp_split3>
    656a:	70 f3       	brcs	.-36     	; 0x6548 <.L^B1>

0000656c <__mulsf3_pse>:
    656c:	95 9f       	mul	r25, r21
    656e:	c1 f3       	breq	.-16     	; 0x6560 <.L2^B1>
    6570:	95 0f       	add	r25, r21
    6572:	50 e0       	ldi	r21, 0x00	; 0
    6574:	55 1f       	adc	r21, r21
    6576:	62 9f       	mul	r22, r18
    6578:	f0 01       	movw	r30, r0
    657a:	72 9f       	mul	r23, r18
    657c:	bb 27       	eor	r27, r27
    657e:	f0 0d       	add	r31, r0
    6580:	b1 1d       	adc	r27, r1
    6582:	63 9f       	mul	r22, r19
    6584:	aa 27       	eor	r26, r26
    6586:	f0 0d       	add	r31, r0
    6588:	b1 1d       	adc	r27, r1
    658a:	aa 1f       	adc	r26, r26
    658c:	64 9f       	mul	r22, r20
    658e:	66 27       	eor	r22, r22
    6590:	b0 0d       	add	r27, r0
    6592:	a1 1d       	adc	r26, r1
    6594:	66 1f       	adc	r22, r22
    6596:	82 9f       	mul	r24, r18
    6598:	22 27       	eor	r18, r18
    659a:	b0 0d       	add	r27, r0
    659c:	a1 1d       	adc	r26, r1
    659e:	62 1f       	adc	r22, r18
    65a0:	73 9f       	mul	r23, r19
    65a2:	b0 0d       	add	r27, r0
    65a4:	a1 1d       	adc	r26, r1
    65a6:	62 1f       	adc	r22, r18
    65a8:	83 9f       	mul	r24, r19
    65aa:	a0 0d       	add	r26, r0
    65ac:	61 1d       	adc	r22, r1
    65ae:	22 1f       	adc	r18, r18
    65b0:	74 9f       	mul	r23, r20
    65b2:	33 27       	eor	r19, r19
    65b4:	a0 0d       	add	r26, r0
    65b6:	61 1d       	adc	r22, r1
    65b8:	23 1f       	adc	r18, r19
    65ba:	84 9f       	mul	r24, r20
    65bc:	60 0d       	add	r22, r0
    65be:	21 1d       	adc	r18, r1
    65c0:	82 2f       	mov	r24, r18
    65c2:	76 2f       	mov	r23, r22
    65c4:	6a 2f       	mov	r22, r26
    65c6:	11 24       	eor	r1, r1
    65c8:	9f 57       	subi	r25, 0x7F	; 127
    65ca:	50 40       	sbci	r21, 0x00	; 0
    65cc:	9a f0       	brmi	.+38     	; 0x65f4 <.L13^B1>
    65ce:	f1 f0       	breq	.+60     	; 0x660c <.L15^B1>

000065d0 <.L10^B1>:
    65d0:	88 23       	and	r24, r24
    65d2:	4a f0       	brmi	.+18     	; 0x65e6 <.L11^B1>
    65d4:	ee 0f       	add	r30, r30
    65d6:	ff 1f       	adc	r31, r31
    65d8:	bb 1f       	adc	r27, r27
    65da:	66 1f       	adc	r22, r22
    65dc:	77 1f       	adc	r23, r23
    65de:	88 1f       	adc	r24, r24
    65e0:	91 50       	subi	r25, 0x01	; 1
    65e2:	50 40       	sbci	r21, 0x00	; 0
    65e4:	a9 f7       	brne	.-22     	; 0x65d0 <.L10^B1>

000065e6 <.L11^B1>:
    65e6:	9e 3f       	cpi	r25, 0xFE	; 254
    65e8:	51 05       	cpc	r21, r1
    65ea:	80 f0       	brcs	.+32     	; 0x660c <.L15^B1>
    65ec:	0c 94 4a 32 	jmp	0x6494	; 0x6494 <__fp_inf>

000065f0 <.L12^B1>:
    65f0:	0c 94 95 32 	jmp	0x652a	; 0x652a <__fp_szero>

000065f4 <.L13^B1>:
    65f4:	5f 3f       	cpi	r21, 0xFF	; 255
    65f6:	e4 f3       	brlt	.-8      	; 0x65f0 <.L12^B1>
    65f8:	98 3e       	cpi	r25, 0xE8	; 232
    65fa:	d4 f3       	brlt	.-12     	; 0x65f0 <.L12^B1>

000065fc <.L14^B1>:
    65fc:	86 95       	lsr	r24
    65fe:	77 95       	ror	r23
    6600:	67 95       	ror	r22
    6602:	b7 95       	ror	r27
    6604:	f7 95       	ror	r31
    6606:	e7 95       	ror	r30
    6608:	9f 5f       	subi	r25, 0xFF	; 255
    660a:	c1 f7       	brne	.-16     	; 0x65fc <.L14^B1>

0000660c <.L15^B1>:
    660c:	fe 2b       	or	r31, r30
    660e:	88 0f       	add	r24, r24
    6610:	91 1d       	adc	r25, r1
    6612:	96 95       	lsr	r25
    6614:	87 95       	ror	r24
    6616:	97 f9       	bld	r25, 7
    6618:	08 95       	ret

0000661a <strcmp>:
    661a:	fb 01       	movw	r30, r22
    661c:	dc 01       	movw	r26, r24

0000661e <.L_strcmp_loop>:
    661e:	8d 91       	ld	r24, X+
    6620:	01 90       	ld	r0, Z+
    6622:	80 19       	sub	r24, r0
    6624:	01 10       	cpse	r0, r1
    6626:	d9 f3       	breq	.-10     	; 0x661e <.L_strcmp_loop>
    6628:	99 0b       	sbc	r25, r25
    662a:	08 95       	ret

0000662c <itoa>:
    662c:	45 32       	cpi	r20, 0x25	; 37
    662e:	51 05       	cpc	r21, r1
    6630:	20 f4       	brcc	.+8      	; 0x663a <.L1^B1>
    6632:	42 30       	cpi	r20, 0x02	; 2
    6634:	10 f0       	brcs	.+4      	; 0x663a <.L1^B1>
    6636:	0c 94 21 33 	jmp	0x6642	; 0x6642 <__itoa_ncheck>

0000663a <.L1^B1>:
    663a:	fb 01       	movw	r30, r22
    663c:	10 82       	st	Z, r1
    663e:	cb 01       	movw	r24, r22
    6640:	08 95       	ret

00006642 <__itoa_ncheck>:
    6642:	bb 27       	eor	r27, r27
    6644:	4a 30       	cpi	r20, 0x0A	; 10
    6646:	31 f4       	brne	.+12     	; 0x6654 <.L1^B1>
    6648:	99 23       	and	r25, r25
    664a:	22 f4       	brpl	.+8      	; 0x6654 <.L1^B1>
    664c:	bd e2       	ldi	r27, 0x2D	; 45
    664e:	90 95       	com	r25
    6650:	81 95       	neg	r24
    6652:	9f 4f       	sbci	r25, 0xFF	; 255

00006654 <.L1^B1>:
    6654:	0c 94 2d 33 	jmp	0x665a	; 0x665a <__utoa_common>

00006658 <__utoa_ncheck>:
    6658:	bb 27       	eor	r27, r27

0000665a <__utoa_common>:
    665a:	fb 01       	movw	r30, r22
    665c:	55 27       	eor	r21, r21

0000665e <.L1^B1>:
    665e:	aa 27       	eor	r26, r26

00006660 <.L2^B1>:
    6660:	88 0f       	add	r24, r24
    6662:	99 1f       	adc	r25, r25
    6664:	aa 1f       	adc	r26, r26
    6666:	a4 17       	cp	r26, r20
    6668:	10 f0       	brcs	.+4      	; 0x666e <.L3^B1>
    666a:	a4 1b       	sub	r26, r20
    666c:	83 95       	inc	r24

0000666e <.L3^B1>:
    666e:	50 51       	subi	r21, 0x10	; 16
    6670:	b9 f7       	brne	.-18     	; 0x6660 <.L2^B1>
    6672:	a0 5d       	subi	r26, 0xD0	; 208
    6674:	aa 33       	cpi	r26, 0x3A	; 58
    6676:	08 f0       	brcs	.+2      	; 0x667a <.L4^B1>
    6678:	a9 5d       	subi	r26, 0xD9	; 217

0000667a <.L4^B1>:
    667a:	a1 93       	st	Z+, r26
    667c:	00 97       	sbiw	r24, 0x00	; 0
    667e:	79 f7       	brne	.-34     	; 0x665e <.L1^B1>
    6680:	b1 11       	cpse	r27, r1
    6682:	b1 93       	st	Z+, r27
    6684:	11 92       	st	Z+, r1
    6686:	cb 01       	movw	r24, r22
    6688:	0c 94 bf 35 	jmp	0x6b7e	; 0x6b7e <strrev>

0000668c <snprintf>:
    668c:	0f 93       	push	r16
    668e:	1f 93       	push	r17
    6690:	cf 93       	push	r28
    6692:	df 93       	push	r29
    6694:	cd b7       	in	r28, 0x3d	; 61
    6696:	de b7       	in	r29, 0x3e	; 62
    6698:	2e 97       	sbiw	r28, 0x0e	; 14
    669a:	0f b6       	in	r0, 0x3f	; 63
    669c:	f8 94       	cli
    669e:	de bf       	out	0x3e, r29	; 62
    66a0:	0f be       	out	0x3f, r0	; 63
    66a2:	cd bf       	out	0x3d, r28	; 61
    66a4:	0e 89       	ldd	r16, Y+22	; 0x16
    66a6:	1f 89       	ldd	r17, Y+23	; 0x17
    66a8:	86 e0       	ldi	r24, 0x06	; 6
    66aa:	8c 83       	std	Y+4, r24	; 0x04
    66ac:	1a 83       	std	Y+2, r17	; 0x02
    66ae:	09 83       	std	Y+1, r16	; 0x01
    66b0:	88 8d       	ldd	r24, Y+24	; 0x18
    66b2:	99 8d       	ldd	r25, Y+25	; 0x19
    66b4:	81 30       	cpi	r24, 0x01	; 1
    66b6:	20 e8       	ldi	r18, 0x80	; 128
    66b8:	92 07       	cpc	r25, r18
    66ba:	10 f0       	brcs	.+4      	; 0x66c0 <.L2>
    66bc:	80 e0       	ldi	r24, 0x00	; 0
    66be:	90 e8       	ldi	r25, 0x80	; 128

000066c0 <.L2>:
    66c0:	01 97       	sbiw	r24, 0x01	; 1
    66c2:	9e 83       	std	Y+6, r25	; 0x06
    66c4:	8d 83       	std	Y+5, r24	; 0x05
    66c6:	ae 01       	movw	r20, r28
    66c8:	44 5e       	subi	r20, 0xE4	; 228
    66ca:	5f 4f       	sbci	r21, 0xFF	; 255
    66cc:	6a 8d       	ldd	r22, Y+26	; 0x1a
    66ce:	7b 8d       	ldd	r23, Y+27	; 0x1b
    66d0:	ce 01       	movw	r24, r28
    66d2:	01 96       	adiw	r24, 0x01	; 1
    66d4:	0e 94 85 33 	call	0x670a	; 0x670a <vfprintf>
    66d8:	4d 81       	ldd	r20, Y+5	; 0x05
    66da:	5e 81       	ldd	r21, Y+6	; 0x06
    66dc:	57 fd       	sbrc	r21, 7
    66de:	0a c0       	rjmp	.+20     	; 0x66f4 <.L1>
    66e0:	2f 81       	ldd	r18, Y+7	; 0x07
    66e2:	38 85       	ldd	r19, Y+8	; 0x08
    66e4:	42 17       	cp	r20, r18
    66e6:	53 07       	cpc	r21, r19
    66e8:	0c f4       	brge	.+2      	; 0x66ec <.L4>
    66ea:	9a 01       	movw	r18, r20

000066ec <.L4>:
    66ec:	02 0f       	add	r16, r18
    66ee:	13 1f       	adc	r17, r19
    66f0:	f8 01       	movw	r30, r16
    66f2:	10 82       	st	Z, r1

000066f4 <.L1>:
    66f4:	2e 96       	adiw	r28, 0x0e	; 14
    66f6:	0f b6       	in	r0, 0x3f	; 63
    66f8:	f8 94       	cli
    66fa:	de bf       	out	0x3e, r29	; 62
    66fc:	0f be       	out	0x3f, r0	; 63
    66fe:	cd bf       	out	0x3d, r28	; 61
    6700:	df 91       	pop	r29
    6702:	cf 91       	pop	r28
    6704:	1f 91       	pop	r17
    6706:	0f 91       	pop	r16
    6708:	08 95       	ret

0000670a <vfprintf>:
    670a:	5f 92       	push	r5
    670c:	6f 92       	push	r6
    670e:	7f 92       	push	r7
    6710:	8f 92       	push	r8
    6712:	9f 92       	push	r9
    6714:	af 92       	push	r10
    6716:	bf 92       	push	r11
    6718:	cf 92       	push	r12
    671a:	df 92       	push	r13
    671c:	ef 92       	push	r14
    671e:	ff 92       	push	r15
    6720:	0f 93       	push	r16
    6722:	1f 93       	push	r17
    6724:	cf 93       	push	r28
    6726:	df 93       	push	r29
    6728:	cd b7       	in	r28, 0x3d	; 61
    672a:	de b7       	in	r29, 0x3e	; 62
    672c:	2f 97       	sbiw	r28, 0x0f	; 15
    672e:	0f b6       	in	r0, 0x3f	; 63
    6730:	f8 94       	cli
    6732:	de bf       	out	0x3e, r29	; 62
    6734:	0f be       	out	0x3f, r0	; 63
    6736:	cd bf       	out	0x3d, r28	; 61
    6738:	6c 01       	movw	r12, r24
    673a:	7b 01       	movw	r14, r22
    673c:	8a 01       	movw	r16, r20
    673e:	dc 01       	movw	r26, r24
    6740:	17 96       	adiw	r26, 0x07	; 7
    6742:	1c 92       	st	X, r1
    6744:	1e 92       	st	-X, r1
    6746:	16 97       	sbiw	r26, 0x06	; 6
    6748:	13 96       	adiw	r26, 0x03	; 3
    674a:	8c 91       	ld	r24, X
    674c:	81 ff       	sbrs	r24, 1
    674e:	fe c1       	rjmp	.+1020   	; 0x6b4c <.L79>
    6750:	2a e0       	ldi	r18, 0x0A	; 10
    6752:	52 2e       	mov	r5, r18

00006754 <.L3>:
    6754:	f6 01       	movw	r30, r12
    6756:	93 81       	ldd	r25, Z+3	; 0x03
    6758:	f7 01       	movw	r30, r14
    675a:	93 fd       	sbrc	r25, 3
    675c:	85 91       	lpm	r24, Z+
    675e:	93 ff       	sbrs	r25, 3
    6760:	81 91       	ld	r24, Z+
    6762:	7f 01       	movw	r14, r30
    6764:	88 23       	and	r24, r24
    6766:	09 f4       	brne	.+2      	; 0x676a <L0^A+0x2>

00006768 <L0^A>:
    6768:	73 c0       	rjmp	.+230    	; 0x6850 <.L4>
    676a:	85 32       	cpi	r24, 0x25	; 37
    676c:	39 f4       	brne	.+14     	; 0x677c <.L5>
    676e:	93 fd       	sbrc	r25, 3
    6770:	85 91       	lpm	r24, Z+
    6772:	93 ff       	sbrs	r25, 3
    6774:	81 91       	ld	r24, Z+
    6776:	7f 01       	movw	r14, r30
    6778:	85 32       	cpi	r24, 0x25	; 37
    677a:	29 f4       	brne	.+10     	; 0x6786 <.L80>

0000677c <.L5>:
    677c:	b6 01       	movw	r22, r12
    677e:	90 e0       	ldi	r25, 0x00	; 0
    6780:	0e 94 cf 35 	call	0x6b9e	; 0x6b9e <fputc>
    6784:	e7 cf       	rjmp	.-50     	; 0x6754 <.L3>

00006786 <.L80>:
    6786:	91 2c       	mov	r9, r1
    6788:	61 2c       	mov	r6, r1
    678a:	71 2c       	mov	r7, r1

0000678c <.L6>:
    678c:	ff e1       	ldi	r31, 0x1F	; 31
    678e:	f7 15       	cp	r31, r7
    6790:	08 f4       	brcc	.+2      	; 0x6794 <L0^A+0x2>

00006792 <L0^A>:
    6792:	46 c0       	rjmp	.+140    	; 0x6820 <.L8>
    6794:	8b 32       	cpi	r24, 0x2B	; 43
    6796:	c9 f1       	breq	.+114    	; 0x680a <.L9>
    6798:	f8 f4       	brcc	.+62     	; 0x67d8 <.L10>
    679a:	80 32       	cpi	r24, 0x20	; 32
    679c:	c1 f1       	breq	.+112    	; 0x680e <.L11>
    679e:	83 32       	cpi	r24, 0x23	; 35
    67a0:	09 f4       	brne	.+2      	; 0x67a4 <.L13>

000067a2 <L0^A>:
    67a2:	3b c0       	rjmp	.+118    	; 0x681a <.L12>

000067a4 <.L13>:
    67a4:	83 36       	cpi	r24, 0x63	; 99
    67a6:	09 f4       	brne	.+2      	; 0x67aa <L0^A+0x2>

000067a8 <L0^A>:
    67a8:	9c c0       	rjmp	.+312    	; 0x68e2 <.L25>
    67aa:	83 37       	cpi	r24, 0x73	; 115
    67ac:	09 f4       	brne	.+2      	; 0x67b0 <L0^A+0x2>

000067ae <L0^A>:
    67ae:	a5 c0       	rjmp	.+330    	; 0x68fa <.L26>
    67b0:	83 35       	cpi	r24, 0x53	; 83
    67b2:	09 f0       	breq	.+2      	; 0x67b6 <L0^A+0x2>

000067b4 <L0^A>:
    67b4:	c8 c0       	rjmp	.+400    	; 0x6946 <.L128>
    67b6:	f8 01       	movw	r30, r16
    67b8:	a1 90       	ld	r10, Z+
    67ba:	b1 90       	ld	r11, Z+
    67bc:	8f 01       	movw	r16, r30
    67be:	69 2d       	mov	r22, r9
    67c0:	70 e0       	ldi	r23, 0x00	; 0
    67c2:	76 fc       	sbrc	r7, 6
    67c4:	02 c0       	rjmp	.+4      	; 0x67ca <.L32>
    67c6:	6f ef       	ldi	r22, 0xFF	; 255
    67c8:	7f ef       	ldi	r23, 0xFF	; 255

000067ca <.L32>:
    67ca:	c5 01       	movw	r24, r10
    67cc:	0e 94 a9 35 	call	0x6b52	; 0x6b52 <strnlen_P>
    67d0:	4c 01       	movw	r8, r24
    67d2:	68 94       	set
    67d4:	77 f8       	bld	r7, 7
    67d6:	71 c0       	rjmp	.+226    	; 0x68ba <.L31>

000067d8 <.L10>:
    67d8:	8d 32       	cpi	r24, 0x2D	; 45
    67da:	e1 f0       	breq	.+56     	; 0x6814 <.L14>
    67dc:	80 33       	cpi	r24, 0x30	; 48
    67de:	51 f0       	breq	.+20     	; 0x67f4 <.L15>
    67e0:	20 ed       	ldi	r18, 0xD0	; 208
    67e2:	28 0f       	add	r18, r24
    67e4:	2a 30       	cpi	r18, 0x0A	; 10
    67e6:	48 f1       	brcs	.+82     	; 0x683a <.L16>
    67e8:	8e 32       	cpi	r24, 0x2E	; 46
    67ea:	09 f0       	breq	.+2      	; 0x67ee <.L21>

000067ec <L0^A>:
    67ec:	4b c0       	rjmp	.+150    	; 0x6884 <.L22>

000067ee <.L21>:
    67ee:	68 94       	set
    67f0:	76 f8       	bld	r7, 6
    67f2:	02 c0       	rjmp	.+4      	; 0x67f8 <.L18>

000067f4 <.L15>:
    67f4:	68 94       	set
    67f6:	70 f8       	bld	r7, 0

000067f8 <.L18>:
    67f8:	f7 01       	movw	r30, r14
    67fa:	93 fd       	sbrc	r25, 3
    67fc:	85 91       	lpm	r24, Z+
    67fe:	93 ff       	sbrs	r25, 3
    6800:	81 91       	ld	r24, Z+
    6802:	7f 01       	movw	r14, r30
    6804:	81 11       	cpse	r24, r1
    6806:	c2 cf       	rjmp	.-124    	; 0x678c <.L6>
    6808:	45 c0       	rjmp	.+138    	; 0x6894 <.L19>

0000680a <.L9>:
    680a:	68 94       	set
    680c:	71 f8       	bld	r7, 1

0000680e <.L11>:
    680e:	68 94       	set
    6810:	72 f8       	bld	r7, 2
    6812:	f2 cf       	rjmp	.-28     	; 0x67f8 <.L18>

00006814 <.L14>:
    6814:	68 94       	set
    6816:	73 f8       	bld	r7, 3
    6818:	ef cf       	rjmp	.-34     	; 0x67f8 <.L18>

0000681a <.L12>:
    681a:	68 94       	set
    681c:	74 f8       	bld	r7, 4
    681e:	ec cf       	rjmp	.-40     	; 0x67f8 <.L18>

00006820 <.L8>:
    6820:	77 fc       	sbrc	r7, 7
    6822:	38 c0       	rjmp	.+112    	; 0x6894 <.L19>
    6824:	20 ed       	ldi	r18, 0xD0	; 208
    6826:	28 0f       	add	r18, r24
    6828:	2a 30       	cpi	r18, 0x0A	; 10
    682a:	70 f4       	brcc	.+28     	; 0x6848 <.L20>
    682c:	76 fe       	sbrs	r7, 6
    682e:	05 c0       	rjmp	.+10     	; 0x683a <.L16>
    6830:	95 9c       	mul	r9, r5
    6832:	20 0d       	add	r18, r0
    6834:	11 24       	eor	r1, r1
    6836:	92 2e       	mov	r9, r18
    6838:	df cf       	rjmp	.-66     	; 0x67f8 <.L18>

0000683a <.L16>:
    683a:	65 9c       	mul	r6, r5
    683c:	20 0d       	add	r18, r0
    683e:	11 24       	eor	r1, r1
    6840:	62 2e       	mov	r6, r18
    6842:	68 94       	set
    6844:	75 f8       	bld	r7, 5
    6846:	d8 cf       	rjmp	.-80     	; 0x67f8 <.L18>

00006848 <.L20>:
    6848:	8e 32       	cpi	r24, 0x2E	; 46
    684a:	e1 f4       	brne	.+56     	; 0x6884 <.L22>
    684c:	76 fe       	sbrs	r7, 6
    684e:	cf cf       	rjmp	.-98     	; 0x67ee <.L21>

00006850 <.L4>:
    6850:	d6 01       	movw	r26, r12
    6852:	16 96       	adiw	r26, 0x06	; 6
    6854:	8d 91       	ld	r24, X+
    6856:	9c 91       	ld	r25, X

00006858 <.L1>:
    6858:	2f 96       	adiw	r28, 0x0f	; 15
    685a:	0f b6       	in	r0, 0x3f	; 63
    685c:	f8 94       	cli
    685e:	de bf       	out	0x3e, r29	; 62
    6860:	0f be       	out	0x3f, r0	; 63
    6862:	cd bf       	out	0x3d, r28	; 61
    6864:	df 91       	pop	r29
    6866:	cf 91       	pop	r28
    6868:	1f 91       	pop	r17
    686a:	0f 91       	pop	r16
    686c:	ff 90       	pop	r15
    686e:	ef 90       	pop	r14
    6870:	df 90       	pop	r13
    6872:	cf 90       	pop	r12
    6874:	bf 90       	pop	r11
    6876:	af 90       	pop	r10
    6878:	9f 90       	pop	r9
    687a:	8f 90       	pop	r8
    687c:	7f 90       	pop	r7
    687e:	6f 90       	pop	r6
    6880:	5f 90       	pop	r5
    6882:	08 95       	ret

00006884 <.L22>:
    6884:	8c 36       	cpi	r24, 0x6C	; 108
    6886:	19 f4       	brne	.+6      	; 0x688e <.L23>
    6888:	68 94       	set
    688a:	77 f8       	bld	r7, 7
    688c:	b5 cf       	rjmp	.-150    	; 0x67f8 <.L18>

0000688e <.L23>:
    688e:	88 36       	cpi	r24, 0x68	; 104
    6890:	09 f4       	brne	.+2      	; 0x6894 <.L19>

00006892 <L0^A>:
    6892:	b2 cf       	rjmp	.-156    	; 0x67f8 <.L18>

00006894 <.L19>:
    6894:	98 2f       	mov	r25, r24
    6896:	9f 7d       	andi	r25, 0xDF	; 223
    6898:	95 54       	subi	r25, 0x45	; 69
    689a:	93 30       	cpi	r25, 0x03	; 3
    689c:	08 f0       	brcs	.+2      	; 0x68a0 <L0^A+0x2>

0000689e <L0^A>:
    689e:	82 cf       	rjmp	.-252    	; 0x67a4 <.L13>
    68a0:	0c 5f       	subi	r16, 0xFC	; 252
    68a2:	1f 4f       	sbci	r17, 0xFF	; 255
    68a4:	8f e3       	ldi	r24, 0x3F	; 63
    68a6:	89 83       	std	Y+1, r24	; 0x01
    68a8:	88 24       	eor	r8, r8
    68aa:	83 94       	inc	r8
    68ac:	91 2c       	mov	r9, r1
    68ae:	ae 01       	movw	r20, r28
    68b0:	4f 5f       	subi	r20, 0xFF	; 255
    68b2:	5f 4f       	sbci	r21, 0xFF	; 255
    68b4:	5a 01       	movw	r10, r20

000068b6 <.L29>:
    68b6:	e8 94       	clt
    68b8:	77 f8       	bld	r7, 7

000068ba <.L31>:
    68ba:	73 fc       	sbrc	r7, 3
    68bc:	05 c0       	rjmp	.+10     	; 0x68c8 <.L34>

000068be <.L33>:
    68be:	86 2d       	mov	r24, r6
    68c0:	90 e0       	ldi	r25, 0x00	; 0
    68c2:	88 16       	cp	r8, r24
    68c4:	99 06       	cpc	r9, r25
    68c6:	40 f1       	brcs	.+80     	; 0x6918 <.L35>

000068c8 <.L34>:
    68c8:	81 14       	cp	r8, r1
    68ca:	91 04       	cpc	r9, r1
    68cc:	61 f5       	brne	.+88     	; 0x6926 <.L38>

000068ce <.L39>:
    68ce:	66 20       	and	r6, r6
    68d0:	09 f4       	brne	.+2      	; 0x68d4 <L0^A+0x2>

000068d2 <L0^A>:
    68d2:	40 cf       	rjmp	.-384    	; 0x6754 <.L3>
    68d4:	b6 01       	movw	r22, r12
    68d6:	80 e2       	ldi	r24, 0x20	; 32
    68d8:	90 e0       	ldi	r25, 0x00	; 0
    68da:	0e 94 cf 35 	call	0x6b9e	; 0x6b9e <fputc>
    68de:	6a 94       	dec	r6
    68e0:	f6 cf       	rjmp	.-20     	; 0x68ce <.L39>

000068e2 <.L25>:
    68e2:	d8 01       	movw	r26, r16
    68e4:	8c 91       	ld	r24, X
    68e6:	89 83       	std	Y+1, r24	; 0x01
    68e8:	0e 5f       	subi	r16, 0xFE	; 254
    68ea:	1f 4f       	sbci	r17, 0xFF	; 255
    68ec:	88 24       	eor	r8, r8
    68ee:	83 94       	inc	r8
    68f0:	91 2c       	mov	r9, r1
    68f2:	fe 01       	movw	r30, r28
    68f4:	31 96       	adiw	r30, 0x01	; 1
    68f6:	5f 01       	movw	r10, r30
    68f8:	de cf       	rjmp	.-68     	; 0x68b6 <.L29>

000068fa <.L26>:
    68fa:	d8 01       	movw	r26, r16
    68fc:	ad 90       	ld	r10, X+
    68fe:	bd 90       	ld	r11, X+
    6900:	8d 01       	movw	r16, r26
    6902:	69 2d       	mov	r22, r9
    6904:	70 e0       	ldi	r23, 0x00	; 0
    6906:	76 fc       	sbrc	r7, 6
    6908:	02 c0       	rjmp	.+4      	; 0x690e <.L30>
    690a:	6f ef       	ldi	r22, 0xFF	; 255
    690c:	7f ef       	ldi	r23, 0xFF	; 255

0000690e <.L30>:
    690e:	c5 01       	movw	r24, r10
    6910:	0e 94 b4 35 	call	0x6b68	; 0x6b68 <strnlen>
    6914:	4c 01       	movw	r8, r24
    6916:	cf cf       	rjmp	.-98     	; 0x68b6 <.L29>

00006918 <.L35>:
    6918:	b6 01       	movw	r22, r12
    691a:	80 e2       	ldi	r24, 0x20	; 32
    691c:	90 e0       	ldi	r25, 0x00	; 0
    691e:	0e 94 cf 35 	call	0x6b9e	; 0x6b9e <fputc>
    6922:	6a 94       	dec	r6
    6924:	cc cf       	rjmp	.-104    	; 0x68be <.L33>

00006926 <.L38>:
    6926:	f5 01       	movw	r30, r10
    6928:	77 fc       	sbrc	r7, 7
    692a:	85 91       	lpm	r24, Z+
    692c:	77 fe       	sbrs	r7, 7
    692e:	81 91       	ld	r24, Z+
    6930:	5f 01       	movw	r10, r30
    6932:	b6 01       	movw	r22, r12
    6934:	90 e0       	ldi	r25, 0x00	; 0
    6936:	0e 94 cf 35 	call	0x6b9e	; 0x6b9e <fputc>
    693a:	61 10       	cpse	r6, r1
    693c:	6a 94       	dec	r6
    693e:	f1 e0       	ldi	r31, 0x01	; 1
    6940:	8f 1a       	sub	r8, r31
    6942:	91 08       	sbc	r9, r1
    6944:	c1 cf       	rjmp	.-126    	; 0x68c8 <.L34>

00006946 <.L128>:
    6946:	84 36       	cpi	r24, 0x64	; 100
    6948:	19 f0       	breq	.+6      	; 0x6950 <.L40>
    694a:	89 36       	cpi	r24, 0x69	; 105
    694c:	09 f0       	breq	.+2      	; 0x6950 <.L40>

0000694e <L0^A>:
    694e:	81 c0       	rjmp	.+258    	; 0x6a52 <.L41>

00006950 <.L40>:
    6950:	f8 01       	movw	r30, r16
    6952:	77 fe       	sbrs	r7, 7
    6954:	77 c0       	rjmp	.+238    	; 0x6a44 <.L42>
    6956:	61 91       	ld	r22, Z+
    6958:	71 91       	ld	r23, Z+
    695a:	81 91       	ld	r24, Z+
    695c:	91 91       	ld	r25, Z+

0000695e <.L129>:
    695e:	8f 01       	movw	r16, r30
    6960:	27 2d       	mov	r18, r7
    6962:	2f 76       	andi	r18, 0x6F	; 111
    6964:	82 2e       	mov	r8, r18
    6966:	97 ff       	sbrs	r25, 7
    6968:	09 c0       	rjmp	.+18     	; 0x697c <.L44>
    696a:	90 95       	com	r25
    696c:	80 95       	com	r24
    696e:	70 95       	com	r23
    6970:	61 95       	neg	r22
    6972:	7f 4f       	sbci	r23, 0xFF	; 255
    6974:	8f 4f       	sbci	r24, 0xFF	; 255
    6976:	9f 4f       	sbci	r25, 0xFF	; 255
    6978:	68 94       	set
    697a:	87 f8       	bld	r8, 7

0000697c <.L44>:
    697c:	2a e0       	ldi	r18, 0x0A	; 10
    697e:	30 e0       	ldi	r19, 0x00	; 0
    6980:	ae 01       	movw	r20, r28
    6982:	4f 5f       	subi	r20, 0xFF	; 255
    6984:	5f 4f       	sbci	r21, 0xFF	; 255
    6986:	5a 01       	movw	r10, r20
    6988:	0e 94 ff 35 	call	0x6bfe	; 0x6bfe <__ultoa_invert>
    698c:	8a 19       	sub	r24, r10
    698e:	a8 2e       	mov	r10, r24

00006990 <.L45>:
    6990:	ba 2c       	mov	r11, r10
    6992:	78 2c       	mov	r7, r8
    6994:	86 fe       	sbrs	r8, 6
    6996:	0c c0       	rjmp	.+24     	; 0x69b0 <.L54>
    6998:	e8 94       	clt
    699a:	70 f8       	bld	r7, 0
    699c:	a9 14       	cp	r10, r9
    699e:	40 f4       	brcc	.+16     	; 0x69b0 <.L54>
    69a0:	84 fe       	sbrs	r8, 4
    69a2:	05 c0       	rjmp	.+10     	; 0x69ae <.L89>
    69a4:	82 fc       	sbrc	r8, 2
    69a6:	03 c0       	rjmp	.+6      	; 0x69ae <.L89>
    69a8:	78 2d       	mov	r23, r8
    69aa:	7e 7e       	andi	r23, 0xEE	; 238
    69ac:	77 2e       	mov	r7, r23

000069ae <.L89>:
    69ae:	b9 2c       	mov	r11, r9

000069b0 <.L54>:
    69b0:	74 fe       	sbrs	r7, 4
    69b2:	a5 c0       	rjmp	.+330    	; 0x6afe <.L55>
    69b4:	fe 01       	movw	r30, r28
    69b6:	ea 0d       	add	r30, r10
    69b8:	f1 1d       	adc	r31, r1
    69ba:	80 81       	ld	r24, Z
    69bc:	80 33       	cpi	r24, 0x30	; 48
    69be:	09 f0       	breq	.+2      	; 0x69c2 <L0^A+0x2>

000069c0 <L0^A>:
    69c0:	97 c0       	rjmp	.+302    	; 0x6af0 <.L56>
    69c2:	87 2d       	mov	r24, r7
    69c4:	89 7e       	andi	r24, 0xE9	; 233
    69c6:	78 2e       	mov	r7, r24

000069c8 <.L57>:
    69c8:	73 fc       	sbrc	r7, 3
    69ca:	0e c0       	rjmp	.+28     	; 0x69e8 <.L59>
    69cc:	70 fe       	sbrs	r7, 0
    69ce:	a6 c0       	rjmp	.+332    	; 0x6b1c <.L90>
    69d0:	9a 2c       	mov	r9, r10
    69d2:	b6 14       	cp	r11, r6
    69d4:	18 f4       	brcc	.+6      	; 0x69dc <.L78>
    69d6:	96 0c       	add	r9, r6
    69d8:	9b 18       	sub	r9, r11
    69da:	b6 2c       	mov	r11, r6

000069dc <.L78>:
    69dc:	86 2d       	mov	r24, r6
    69de:	8b 19       	sub	r24, r11
    69e0:	6b 14       	cp	r6, r11
    69e2:	08 f4       	brcc	.+2      	; 0x69e6 <.L64>
    69e4:	80 e0       	ldi	r24, 0x00	; 0

000069e6 <.L64>:
    69e6:	b8 0e       	add	r11, r24

000069e8 <.L59>:
    69e8:	b6 14       	cp	r11, r6
    69ea:	08 f0       	brcs	.+2      	; 0x69ee <L0^A+0x2>

000069ec <L0^A>:
    69ec:	99 c0       	rjmp	.+306    	; 0x6b20 <.L92>
    69ee:	6b 18       	sub	r6, r11

000069f0 <.L65>:
    69f0:	74 fe       	sbrs	r7, 4
    69f2:	98 c0       	rjmp	.+304    	; 0x6b24 <.L66>
    69f4:	b6 01       	movw	r22, r12
    69f6:	80 e3       	ldi	r24, 0x30	; 48
    69f8:	90 e0       	ldi	r25, 0x00	; 0
    69fa:	0e 94 cf 35 	call	0x6b9e	; 0x6b9e <fputc>
    69fe:	72 fe       	sbrs	r7, 2
    6a00:	09 c0       	rjmp	.+18     	; 0x6a14 <.L73>
    6a02:	88 e5       	ldi	r24, 0x58	; 88
    6a04:	90 e0       	ldi	r25, 0x00	; 0
    6a06:	71 fc       	sbrc	r7, 1
    6a08:	02 c0       	rjmp	.+4      	; 0x6a0e <.L69>
    6a0a:	88 e7       	ldi	r24, 0x78	; 120
    6a0c:	90 e0       	ldi	r25, 0x00	; 0

00006a0e <.L69>:
    6a0e:	b6 01       	movw	r22, r12

00006a10 <.L132>:
    6a10:	0e 94 cf 35 	call	0x6b9e	; 0x6b9e <fputc>

00006a14 <.L73>:
    6a14:	a9 14       	cp	r10, r9
    6a16:	08 f4       	brcc	.+2      	; 0x6a1a <L0^A+0x2>

00006a18 <L0^A>:
    6a18:	92 c0       	rjmp	.+292    	; 0x6b3e <.L74>
    6a1a:	aa 94       	dec	r10
    6a1c:	b1 2c       	mov	r11, r1
    6a1e:	9f ef       	ldi	r25, 0xFF	; 255
    6a20:	a9 1a       	sub	r10, r25
    6a22:	b9 0a       	sbc	r11, r25
    6a24:	de 01       	movw	r26, r28
    6a26:	11 96       	adiw	r26, 0x01	; 1
    6a28:	4d 01       	movw	r8, r26
    6a2a:	aa 0e       	add	r10, r26
    6a2c:	bb 1e       	adc	r11, r27

00006a2e <.L75>:
    6a2e:	f5 01       	movw	r30, r10
    6a30:	82 91       	ld	r24, -Z
    6a32:	5f 01       	movw	r10, r30
    6a34:	b6 01       	movw	r22, r12
    6a36:	90 e0       	ldi	r25, 0x00	; 0
    6a38:	0e 94 cf 35 	call	0x6b9e	; 0x6b9e <fputc>
    6a3c:	8a 14       	cp	r8, r10
    6a3e:	9b 04       	cpc	r9, r11
    6a40:	b1 f7       	brne	.-20     	; 0x6a2e <.L75>
    6a42:	45 cf       	rjmp	.-374    	; 0x68ce <.L39>

00006a44 <.L42>:
    6a44:	61 91       	ld	r22, Z+
    6a46:	71 91       	ld	r23, Z+
    6a48:	07 2e       	mov	r0, r23
    6a4a:	00 0c       	add	r0, r0
    6a4c:	88 0b       	sbc	r24, r24
    6a4e:	99 0b       	sbc	r25, r25
    6a50:	86 cf       	rjmp	.-244    	; 0x695e <.L129>

00006a52 <.L41>:
    6a52:	87 2c       	mov	r8, r7
    6a54:	e8 94       	clt
    6a56:	84 f8       	bld	r8, 4
    6a58:	2a e0       	ldi	r18, 0x0A	; 10
    6a5a:	30 e0       	ldi	r19, 0x00	; 0
    6a5c:	85 37       	cpi	r24, 0x75	; 117
    6a5e:	69 f0       	breq	.+26     	; 0x6a7a <.L47>
    6a60:	57 2d       	mov	r21, r7
    6a62:	59 7f       	andi	r21, 0xF9	; 249
    6a64:	85 2e       	mov	r8, r21
    6a66:	80 37       	cpi	r24, 0x70	; 112
    6a68:	71 f1       	breq	.+92     	; 0x6ac6 <.L48>
    6a6a:	18 f5       	brcc	.+70     	; 0x6ab2 <.L49>
    6a6c:	88 35       	cpi	r24, 0x58	; 88
    6a6e:	71 f1       	breq	.+92     	; 0x6acc <.L50>
    6a70:	8f 36       	cpi	r24, 0x6F	; 111
    6a72:	09 f0       	breq	.+2      	; 0x6a76 <L0^A+0x2>

00006a74 <L0^A>:
    6a74:	ed ce       	rjmp	.-550    	; 0x6850 <.L4>
    6a76:	28 e0       	ldi	r18, 0x08	; 8
    6a78:	30 e0       	ldi	r19, 0x00	; 0

00006a7a <.L47>:
    6a7a:	f8 01       	movw	r30, r16
    6a7c:	87 fe       	sbrs	r8, 7
    6a7e:	2e c0       	rjmp	.+92     	; 0x6adc <.L52>
    6a80:	81 91       	ld	r24, Z+
    6a82:	91 91       	ld	r25, Z+
    6a84:	a1 91       	ld	r26, Z+
    6a86:	b1 91       	ld	r27, Z+
    6a88:	8c 87       	std	Y+12, r24	; 0x0c
    6a8a:	9d 87       	std	Y+13, r25	; 0x0d
    6a8c:	ae 87       	std	Y+14, r26	; 0x0e
    6a8e:	bf 87       	std	Y+15, r27	; 0x0f

00006a90 <.L130>:
    6a90:	8f 01       	movw	r16, r30
    6a92:	be 01       	movw	r22, r28
    6a94:	6f 5f       	subi	r22, 0xFF	; 255
    6a96:	7f 4f       	sbci	r23, 0xFF	; 255
    6a98:	5b 01       	movw	r10, r22
    6a9a:	ab 01       	movw	r20, r22
    6a9c:	6c 85       	ldd	r22, Y+12	; 0x0c
    6a9e:	7d 85       	ldd	r23, Y+13	; 0x0d
    6aa0:	8e 85       	ldd	r24, Y+14	; 0x0e
    6aa2:	9f 85       	ldd	r25, Y+15	; 0x0f
    6aa4:	0e 94 ff 35 	call	0x6bfe	; 0x6bfe <__ultoa_invert>
    6aa8:	8a 19       	sub	r24, r10
    6aaa:	a8 2e       	mov	r10, r24
    6aac:	e8 94       	clt
    6aae:	87 f8       	bld	r8, 7
    6ab0:	6f cf       	rjmp	.-290    	; 0x6990 <.L45>

00006ab2 <.L49>:
    6ab2:	88 37       	cpi	r24, 0x78	; 120
    6ab4:	09 f0       	breq	.+2      	; 0x6ab8 <.L51>

00006ab6 <L0^A>:
    6ab6:	cc ce       	rjmp	.-616    	; 0x6850 <.L4>

00006ab8 <.L51>:
    6ab8:	84 fe       	sbrs	r8, 4
    6aba:	02 c0       	rjmp	.+4      	; 0x6ac0 <.L84>
    6abc:	68 94       	set
    6abe:	82 f8       	bld	r8, 2

00006ac0 <.L84>:
    6ac0:	20 e1       	ldi	r18, 0x10	; 16
    6ac2:	30 e0       	ldi	r19, 0x00	; 0
    6ac4:	da cf       	rjmp	.-76     	; 0x6a7a <.L47>

00006ac6 <.L48>:
    6ac6:	68 94       	set
    6ac8:	84 f8       	bld	r8, 4
    6aca:	f6 cf       	rjmp	.-20     	; 0x6ab8 <.L51>

00006acc <.L50>:
    6acc:	74 fe       	sbrs	r7, 4
    6ace:	03 c0       	rjmp	.+6      	; 0x6ad6 <.L85>
    6ad0:	65 2f       	mov	r22, r21
    6ad2:	66 60       	ori	r22, 0x06	; 6
    6ad4:	86 2e       	mov	r8, r22

00006ad6 <.L85>:
    6ad6:	20 e1       	ldi	r18, 0x10	; 16
    6ad8:	32 e0       	ldi	r19, 0x02	; 2
    6ada:	cf cf       	rjmp	.-98     	; 0x6a7a <.L47>

00006adc <.L52>:
    6adc:	81 91       	ld	r24, Z+
    6ade:	91 91       	ld	r25, Z+
    6ae0:	ac 01       	movw	r20, r24
    6ae2:	60 e0       	ldi	r22, 0x00	; 0
    6ae4:	70 e0       	ldi	r23, 0x00	; 0
    6ae6:	4c 87       	std	Y+12, r20	; 0x0c
    6ae8:	5d 87       	std	Y+13, r21	; 0x0d
    6aea:	6e 87       	std	Y+14, r22	; 0x0e
    6aec:	7f 87       	std	Y+15, r23	; 0x0f
    6aee:	d0 cf       	rjmp	.-96     	; 0x6a90 <.L130>

00006af0 <.L56>:
    6af0:	72 fc       	sbrc	r7, 2
    6af2:	02 c0       	rjmp	.+4      	; 0x6af8 <.L58>

00006af4 <.L131>:
    6af4:	b3 94       	inc	r11
    6af6:	68 cf       	rjmp	.-304    	; 0x69c8 <.L57>

00006af8 <.L58>:
    6af8:	b3 94       	inc	r11
    6afa:	b3 94       	inc	r11
    6afc:	65 cf       	rjmp	.-310    	; 0x69c8 <.L57>

00006afe <.L55>:
    6afe:	87 2d       	mov	r24, r7
    6b00:	86 78       	andi	r24, 0x86	; 134
    6b02:	88 23       	and	r24, r24
    6b04:	09 f4       	brne	.+2      	; 0x6b08 <L0^A+0x2>

00006b06 <L0^A>:
    6b06:	60 cf       	rjmp	.-320    	; 0x69c8 <.L57>
    6b08:	f5 cf       	rjmp	.-22     	; 0x6af4 <.L131>

00006b0a <.L62>:
    6b0a:	b6 01       	movw	r22, r12
    6b0c:	80 e2       	ldi	r24, 0x20	; 32
    6b0e:	90 e0       	ldi	r25, 0x00	; 0
    6b10:	0e 94 cf 35 	call	0x6b9e	; 0x6b9e <fputc>
    6b14:	83 94       	inc	r8

00006b16 <.L60>:
    6b16:	86 14       	cp	r8, r6
    6b18:	c0 f3       	brcs	.-16     	; 0x6b0a <.L62>
    6b1a:	60 cf       	rjmp	.-320    	; 0x69dc <.L78>

00006b1c <.L90>:
    6b1c:	8b 2c       	mov	r8, r11
    6b1e:	fb cf       	rjmp	.-10     	; 0x6b16 <.L60>

00006b20 <.L92>:
    6b20:	61 2c       	mov	r6, r1
    6b22:	66 cf       	rjmp	.-308    	; 0x69f0 <.L65>

00006b24 <.L66>:
    6b24:	87 2d       	mov	r24, r7
    6b26:	86 78       	andi	r24, 0x86	; 134
    6b28:	88 23       	and	r24, r24
    6b2a:	09 f4       	brne	.+2      	; 0x6b2e <L0^A+0x2>

00006b2c <L0^A>:
    6b2c:	73 cf       	rjmp	.-282    	; 0x6a14 <.L73>
    6b2e:	8b e2       	ldi	r24, 0x2B	; 43
    6b30:	71 fe       	sbrs	r7, 1
    6b32:	80 e2       	ldi	r24, 0x20	; 32
    6b34:	77 fc       	sbrc	r7, 7
    6b36:	8d e2       	ldi	r24, 0x2D	; 45
    6b38:	b6 01       	movw	r22, r12
    6b3a:	90 e0       	ldi	r25, 0x00	; 0
    6b3c:	69 cf       	rjmp	.-302    	; 0x6a10 <.L132>

00006b3e <.L74>:
    6b3e:	b6 01       	movw	r22, r12
    6b40:	80 e3       	ldi	r24, 0x30	; 48
    6b42:	90 e0       	ldi	r25, 0x00	; 0
    6b44:	0e 94 cf 35 	call	0x6b9e	; 0x6b9e <fputc>
    6b48:	9a 94       	dec	r9
    6b4a:	64 cf       	rjmp	.-312    	; 0x6a14 <.L73>

00006b4c <.L79>:
    6b4c:	8f ef       	ldi	r24, 0xFF	; 255
    6b4e:	9f ef       	ldi	r25, 0xFF	; 255
    6b50:	83 ce       	rjmp	.-762    	; 0x6858 <.L1>

00006b52 <strnlen_P>:
    6b52:	fc 01       	movw	r30, r24

00006b54 <.L_strnlen_P_loop>:
    6b54:	05 90       	lpm	r0, Z+
    6b56:	61 50       	subi	r22, 0x01	; 1
    6b58:	70 40       	sbci	r23, 0x00	; 0
    6b5a:	01 10       	cpse	r0, r1
    6b5c:	d8 f7       	brcc	.-10     	; 0x6b54 <.L_strnlen_P_loop>
    6b5e:	80 95       	com	r24
    6b60:	90 95       	com	r25
    6b62:	8e 0f       	add	r24, r30
    6b64:	9f 1f       	adc	r25, r31
    6b66:	08 95       	ret

00006b68 <strnlen>:
    6b68:	fc 01       	movw	r30, r24

00006b6a <.L_strnlen_loop>:
    6b6a:	61 50       	subi	r22, 0x01	; 1
    6b6c:	70 40       	sbci	r23, 0x00	; 0
    6b6e:	01 90       	ld	r0, Z+
    6b70:	01 10       	cpse	r0, r1
    6b72:	d8 f7       	brcc	.-10     	; 0x6b6a <.L_strnlen_loop>
    6b74:	80 95       	com	r24
    6b76:	90 95       	com	r25
    6b78:	8e 0f       	add	r24, r30
    6b7a:	9f 1f       	adc	r25, r31
    6b7c:	08 95       	ret

00006b7e <strrev>:
    6b7e:	dc 01       	movw	r26, r24
    6b80:	fc 01       	movw	r30, r24

00006b82 <.L1^B1>:
    6b82:	67 2f       	mov	r22, r23
    6b84:	71 91       	ld	r23, Z+
    6b86:	77 23       	and	r23, r23
    6b88:	e1 f7       	brne	.-8      	; 0x6b82 <.L1^B1>
    6b8a:	32 97       	sbiw	r30, 0x02	; 2
    6b8c:	04 c0       	rjmp	.+8      	; 0x6b96 <.L3^B1>

00006b8e <.L2^B1>:
    6b8e:	7c 91       	ld	r23, X
    6b90:	6d 93       	st	X+, r22
    6b92:	70 83       	st	Z, r23
    6b94:	62 91       	ld	r22, -Z

00006b96 <.L3^B1>:
    6b96:	ae 17       	cp	r26, r30
    6b98:	bf 07       	cpc	r27, r31
    6b9a:	c8 f3       	brcs	.-14     	; 0x6b8e <.L2^B1>
    6b9c:	08 95       	ret

00006b9e <fputc>:
    6b9e:	0f 93       	push	r16
    6ba0:	1f 93       	push	r17
    6ba2:	cf 93       	push	r28
    6ba4:	df 93       	push	r29
    6ba6:	18 2f       	mov	r17, r24
    6ba8:	09 2f       	mov	r16, r25
    6baa:	eb 01       	movw	r28, r22
    6bac:	8b 81       	ldd	r24, Y+3	; 0x03
    6bae:	81 fd       	sbrc	r24, 1
    6bb0:	09 c0       	rjmp	.+18     	; 0x6bc4 <.L2>

00006bb2 <.L7>:
    6bb2:	1f ef       	ldi	r17, 0xFF	; 255
    6bb4:	0f ef       	ldi	r16, 0xFF	; 255

00006bb6 <.L3>:
    6bb6:	81 2f       	mov	r24, r17
    6bb8:	90 2f       	mov	r25, r16
    6bba:	df 91       	pop	r29
    6bbc:	cf 91       	pop	r28
    6bbe:	1f 91       	pop	r17
    6bc0:	0f 91       	pop	r16
    6bc2:	08 95       	ret

00006bc4 <.L2>:
    6bc4:	82 ff       	sbrs	r24, 2
    6bc6:	14 c0       	rjmp	.+40     	; 0x6bf0 <.L4>
    6bc8:	2e 81       	ldd	r18, Y+6	; 0x06
    6bca:	3f 81       	ldd	r19, Y+7	; 0x07
    6bcc:	8c 81       	ldd	r24, Y+4	; 0x04
    6bce:	9d 81       	ldd	r25, Y+5	; 0x05
    6bd0:	28 17       	cp	r18, r24
    6bd2:	39 07       	cpc	r19, r25
    6bd4:	3c f4       	brge	.+14     	; 0x6be4 <.L8>
    6bd6:	e8 81       	ld	r30, Y
    6bd8:	f9 81       	ldd	r31, Y+1	; 0x01
    6bda:	cf 01       	movw	r24, r30
    6bdc:	01 96       	adiw	r24, 0x01	; 1
    6bde:	99 83       	std	Y+1, r25	; 0x01
    6be0:	88 83       	st	Y, r24
    6be2:	10 83       	st	Z, r17

00006be4 <.L8>:
    6be4:	8e 81       	ldd	r24, Y+6	; 0x06
    6be6:	9f 81       	ldd	r25, Y+7	; 0x07
    6be8:	01 96       	adiw	r24, 0x01	; 1
    6bea:	9f 83       	std	Y+7, r25	; 0x07
    6bec:	8e 83       	std	Y+6, r24	; 0x06
    6bee:	e3 cf       	rjmp	.-58     	; 0x6bb6 <.L3>

00006bf0 <.L4>:
    6bf0:	e8 85       	ldd	r30, Y+8	; 0x08
    6bf2:	f9 85       	ldd	r31, Y+9	; 0x09
    6bf4:	81 2f       	mov	r24, r17
    6bf6:	19 95       	eicall
    6bf8:	89 2b       	or	r24, r25
    6bfa:	a1 f3       	breq	.-24     	; 0x6be4 <.L8>
    6bfc:	da cf       	rjmp	.-76     	; 0x6bb2 <.L7>

00006bfe <__ultoa_invert>:
    6bfe:	fa 01       	movw	r30, r20
    6c00:	aa 27       	eor	r26, r26
    6c02:	28 30       	cpi	r18, 0x08	; 8
    6c04:	51 f1       	breq	.+84     	; 0x6c5a <.L_oct>
    6c06:	20 31       	cpi	r18, 0x10	; 16
    6c08:	81 f1       	breq	.+96     	; 0x6c6a <.L_hex>
    6c0a:	e8 94       	clt

00006c0c <.L_dec_loop>:
    6c0c:	6f 93       	push	r22
    6c0e:	6e 7f       	andi	r22, 0xFE	; 254
    6c10:	6e 5f       	subi	r22, 0xFE	; 254
    6c12:	7f 4f       	sbci	r23, 0xFF	; 255
    6c14:	8f 4f       	sbci	r24, 0xFF	; 255
    6c16:	9f 4f       	sbci	r25, 0xFF	; 255
    6c18:	af 4f       	sbci	r26, 0xFF	; 255
    6c1a:	b1 e0       	ldi	r27, 0x01	; 1
    6c1c:	3e d0       	rcall	.+124    	; 0x6c9a <.L_div_add>
    6c1e:	b4 e0       	ldi	r27, 0x04	; 4
    6c20:	3c d0       	rcall	.+120    	; 0x6c9a <.L_div_add>
    6c22:	67 0f       	add	r22, r23
    6c24:	78 1f       	adc	r23, r24
    6c26:	89 1f       	adc	r24, r25
    6c28:	9a 1f       	adc	r25, r26
    6c2a:	a1 1d       	adc	r26, r1
    6c2c:	68 0f       	add	r22, r24
    6c2e:	79 1f       	adc	r23, r25
    6c30:	8a 1f       	adc	r24, r26
    6c32:	91 1d       	adc	r25, r1
    6c34:	a1 1d       	adc	r26, r1
    6c36:	6a 0f       	add	r22, r26
    6c38:	71 1d       	adc	r23, r1
    6c3a:	81 1d       	adc	r24, r1
    6c3c:	91 1d       	adc	r25, r1
    6c3e:	a1 1d       	adc	r26, r1
    6c40:	20 d0       	rcall	.+64     	; 0x6c82 <.L_lsr_4>
    6c42:	09 f4       	brne	.+2      	; 0x6c46 <.L1^B1>
    6c44:	68 94       	set

00006c46 <.L1^B1>:
    6c46:	3f 91       	pop	r19
    6c48:	2a e0       	ldi	r18, 0x0A	; 10
    6c4a:	26 9f       	mul	r18, r22
    6c4c:	11 24       	eor	r1, r1
    6c4e:	30 19       	sub	r19, r0
    6c50:	30 5d       	subi	r19, 0xD0	; 208
    6c52:	31 93       	st	Z+, r19
    6c54:	de f6       	brtc	.-74     	; 0x6c0c <.L_dec_loop>

00006c56 <.L_eos>:
    6c56:	cf 01       	movw	r24, r30
    6c58:	08 95       	ret

00006c5a <.L_oct>:
    6c5a:	46 2f       	mov	r20, r22
    6c5c:	47 70       	andi	r20, 0x07	; 7
    6c5e:	40 5d       	subi	r20, 0xD0	; 208
    6c60:	41 93       	st	Z+, r20
    6c62:	b3 e0       	ldi	r27, 0x03	; 3
    6c64:	0f d0       	rcall	.+30     	; 0x6c84 <.L_lsr>
    6c66:	c9 f7       	brne	.-14     	; 0x6c5a <.L_oct>
    6c68:	f6 cf       	rjmp	.-20     	; 0x6c56 <.L_eos>

00006c6a <.L_hex>:
    6c6a:	46 2f       	mov	r20, r22
    6c6c:	4f 70       	andi	r20, 0x0F	; 15
    6c6e:	40 5d       	subi	r20, 0xD0	; 208
    6c70:	4a 33       	cpi	r20, 0x3A	; 58
    6c72:	18 f0       	brcs	.+6      	; 0x6c7a <.L3^B1>
    6c74:	49 5d       	subi	r20, 0xD9	; 217
    6c76:	31 fd       	sbrc	r19, 1
    6c78:	40 52       	subi	r20, 0x20	; 32

00006c7a <.L3^B1>:
    6c7a:	41 93       	st	Z+, r20
    6c7c:	02 d0       	rcall	.+4      	; 0x6c82 <.L_lsr_4>
    6c7e:	a9 f7       	brne	.-22     	; 0x6c6a <.L_hex>
    6c80:	ea cf       	rjmp	.-44     	; 0x6c56 <.L_eos>

00006c82 <.L_lsr_4>:
    6c82:	b4 e0       	ldi	r27, 0x04	; 4

00006c84 <.L_lsr>:
    6c84:	a6 95       	lsr	r26
    6c86:	97 95       	ror	r25
    6c88:	87 95       	ror	r24
    6c8a:	77 95       	ror	r23
    6c8c:	67 95       	ror	r22
    6c8e:	ba 95       	dec	r27
    6c90:	c9 f7       	brne	.-14     	; 0x6c84 <.L_lsr>
    6c92:	00 97       	sbiw	r24, 0x00	; 0
    6c94:	61 05       	cpc	r22, r1
    6c96:	71 05       	cpc	r23, r1
    6c98:	08 95       	ret

00006c9a <.L_div_add>:
    6c9a:	9b 01       	movw	r18, r22
    6c9c:	ac 01       	movw	r20, r24
    6c9e:	0a 2e       	mov	r0, r26

00006ca0 <.L7^B1>:
    6ca0:	06 94       	lsr	r0
    6ca2:	57 95       	ror	r21
    6ca4:	47 95       	ror	r20
    6ca6:	37 95       	ror	r19
    6ca8:	27 95       	ror	r18
    6caa:	ba 95       	dec	r27
    6cac:	c9 f7       	brne	.-14     	; 0x6ca0 <.L7^B1>
    6cae:	62 0f       	add	r22, r18
    6cb0:	73 1f       	adc	r23, r19
    6cb2:	84 1f       	adc	r24, r20
    6cb4:	95 1f       	adc	r25, r21
    6cb6:	a0 1d       	adc	r26, r0
    6cb8:	08 95       	ret

00006cba <_exit>:
    6cba:	f8 94       	cli

00006cbc <__stop_program>:
    6cbc:	ff cf       	rjmp	.-2      	; 0x6cbc <__stop_program>

00006cbe <L0^A>:
    6cbe:	d7 1d       	adc	r29, r7
    6cc0:	bf 25       	eor	r27, r15
    6cc2:	0c 27       	eor	r16, r28
    6cc4:	59 28       	or	r5, r9
    6cc6:	ea 1b       	sub	r30, r26
    6cc8:	11 21       	and	r17, r1
    6cca:	ae 2a       	or	r10, r30
    6ccc:	c5 1f       	adc	r28, r21
